ARM GAS  /var/folders/rv/zq8s_02j1dj4vjvr1mm5zl2r0000gn/T//cczf42zg.s 			page 1


   1              		.cpu cortex-m23
   2              		.eabi_attribute 20, 1
   3              		.eabi_attribute 21, 1
   4              		.eabi_attribute 23, 3
   5              		.eabi_attribute 24, 1
   6              		.eabi_attribute 25, 1
   7              		.eabi_attribute 26, 1
   8              		.eabi_attribute 30, 1
   9              		.eabi_attribute 34, 0
  10              		.eabi_attribute 18, 4
  11              		.file	"gd32e23x_rtc.c"
  12              		.text
  13              	.Ltext0:
  14              		.cfi_sections	.debug_frame
  15              		.section	.text.rtc_init_mode_enter,"ax",%progbits
  16              		.align	1
  17              		.global	rtc_init_mode_enter
  18              		.arch armv8-m.base
  19              		.syntax unified
  20              		.code	16
  21              		.thumb_func
  22              		.fpu softvfp
  24              	rtc_init_mode_enter:
  25              	.LFB68:
  26              		.file 1 "Drivers/GD32E23x_standard_peripheral/Source/gd32e23x_rtc.c"
   1:Drivers/GD32E23x_standard_peripheral/Source/gd32e23x_rtc.c **** /*!
   2:Drivers/GD32E23x_standard_peripheral/Source/gd32e23x_rtc.c ****     \file    gd32e23x_rtc.c
   3:Drivers/GD32E23x_standard_peripheral/Source/gd32e23x_rtc.c ****     \brief   RTC driver
   4:Drivers/GD32E23x_standard_peripheral/Source/gd32e23x_rtc.c ****     
   5:Drivers/GD32E23x_standard_peripheral/Source/gd32e23x_rtc.c ****     \version 2019-02-19, V1.0.0, firmware for GD32E23X
   6:Drivers/GD32E23x_standard_peripheral/Source/gd32e23x_rtc.c ****     \version 2020-12-12, V1.1.0, firmware for GD32E23X
   7:Drivers/GD32E23x_standard_peripheral/Source/gd32e23x_rtc.c **** */
   8:Drivers/GD32E23x_standard_peripheral/Source/gd32e23x_rtc.c **** 
   9:Drivers/GD32E23x_standard_peripheral/Source/gd32e23x_rtc.c **** /*
  10:Drivers/GD32E23x_standard_peripheral/Source/gd32e23x_rtc.c ****     Copyright (c) 2020, GigaDevice Semiconductor Inc.
  11:Drivers/GD32E23x_standard_peripheral/Source/gd32e23x_rtc.c **** 
  12:Drivers/GD32E23x_standard_peripheral/Source/gd32e23x_rtc.c ****     Redistribution and use in source and binary forms, with or without modification, 
  13:Drivers/GD32E23x_standard_peripheral/Source/gd32e23x_rtc.c **** are permitted provided that the following conditions are met:
  14:Drivers/GD32E23x_standard_peripheral/Source/gd32e23x_rtc.c **** 
  15:Drivers/GD32E23x_standard_peripheral/Source/gd32e23x_rtc.c ****     1. Redistributions of source code must retain the above copyright notice, this 
  16:Drivers/GD32E23x_standard_peripheral/Source/gd32e23x_rtc.c ****        list of conditions and the following disclaimer.
  17:Drivers/GD32E23x_standard_peripheral/Source/gd32e23x_rtc.c ****     2. Redistributions in binary form must reproduce the above copyright notice, 
  18:Drivers/GD32E23x_standard_peripheral/Source/gd32e23x_rtc.c ****        this list of conditions and the following disclaimer in the documentation 
  19:Drivers/GD32E23x_standard_peripheral/Source/gd32e23x_rtc.c ****        and/or other materials provided with the distribution.
  20:Drivers/GD32E23x_standard_peripheral/Source/gd32e23x_rtc.c ****     3. Neither the name of the copyright holder nor the names of its contributors 
  21:Drivers/GD32E23x_standard_peripheral/Source/gd32e23x_rtc.c ****        may be used to endorse or promote products derived from this software without 
  22:Drivers/GD32E23x_standard_peripheral/Source/gd32e23x_rtc.c ****        specific prior written permission.
  23:Drivers/GD32E23x_standard_peripheral/Source/gd32e23x_rtc.c **** 
  24:Drivers/GD32E23x_standard_peripheral/Source/gd32e23x_rtc.c ****     THIS SOFTWARE IS PROVIDED BY THE COPYRIGHT HOLDERS AND CONTRIBUTORS "AS IS" 
  25:Drivers/GD32E23x_standard_peripheral/Source/gd32e23x_rtc.c **** AND ANY EXPRESS OR IMPLIED WARRANTIES, INCLUDING, BUT NOT LIMITED TO, THE IMPLIED 
  26:Drivers/GD32E23x_standard_peripheral/Source/gd32e23x_rtc.c **** WARRANTIES OF MERCHANTABILITY AND FITNESS FOR A PARTICULAR PURPOSE ARE DISCLAIMED. 
  27:Drivers/GD32E23x_standard_peripheral/Source/gd32e23x_rtc.c **** IN NO EVENT SHALL THE COPYRIGHT HOLDER OR CONTRIBUTORS BE LIABLE FOR ANY DIRECT, 
  28:Drivers/GD32E23x_standard_peripheral/Source/gd32e23x_rtc.c **** INDIRECT, INCIDENTAL, SPECIAL, EXEMPLARY, OR CONSEQUENTIAL DAMAGES (INCLUDING, BUT 
  29:Drivers/GD32E23x_standard_peripheral/Source/gd32e23x_rtc.c **** NOT LIMITED TO, PROCUREMENT OF SUBSTITUTE GOODS OR SERVICES; LOSS OF USE, DATA, OR 
  30:Drivers/GD32E23x_standard_peripheral/Source/gd32e23x_rtc.c **** PROFITS; OR BUSINESS INTERRUPTION) HOWEVER CAUSED AND ON ANY THEORY OF LIABILITY, 
  31:Drivers/GD32E23x_standard_peripheral/Source/gd32e23x_rtc.c **** WHETHER IN CONTRACT, STRICT LIABILITY, OR TORT (INCLUDING NEGLIGENCE OR OTHERWISE) 
  32:Drivers/GD32E23x_standard_peripheral/Source/gd32e23x_rtc.c **** ARISING IN ANY WAY OUT OF THE USE OF THIS SOFTWARE, EVEN IF ADVISED OF THE POSSIBILITY 
ARM GAS  /var/folders/rv/zq8s_02j1dj4vjvr1mm5zl2r0000gn/T//cczf42zg.s 			page 2


  33:Drivers/GD32E23x_standard_peripheral/Source/gd32e23x_rtc.c **** OF SUCH DAMAGE.
  34:Drivers/GD32E23x_standard_peripheral/Source/gd32e23x_rtc.c **** */
  35:Drivers/GD32E23x_standard_peripheral/Source/gd32e23x_rtc.c **** 
  36:Drivers/GD32E23x_standard_peripheral/Source/gd32e23x_rtc.c **** #include "gd32e23x_rtc.h"
  37:Drivers/GD32E23x_standard_peripheral/Source/gd32e23x_rtc.c **** 
  38:Drivers/GD32E23x_standard_peripheral/Source/gd32e23x_rtc.c **** /*!
  39:Drivers/GD32E23x_standard_peripheral/Source/gd32e23x_rtc.c ****     \brief      reset most of the RTC registers
  40:Drivers/GD32E23x_standard_peripheral/Source/gd32e23x_rtc.c ****     \param[in]  none
  41:Drivers/GD32E23x_standard_peripheral/Source/gd32e23x_rtc.c ****     \param[out] none
  42:Drivers/GD32E23x_standard_peripheral/Source/gd32e23x_rtc.c ****     \retval     ErrStatus: ERROR or SUCCESS
  43:Drivers/GD32E23x_standard_peripheral/Source/gd32e23x_rtc.c **** */
  44:Drivers/GD32E23x_standard_peripheral/Source/gd32e23x_rtc.c **** ErrStatus rtc_deinit(void)
  45:Drivers/GD32E23x_standard_peripheral/Source/gd32e23x_rtc.c **** {
  46:Drivers/GD32E23x_standard_peripheral/Source/gd32e23x_rtc.c ****     ErrStatus error_status = ERROR;
  47:Drivers/GD32E23x_standard_peripheral/Source/gd32e23x_rtc.c **** 
  48:Drivers/GD32E23x_standard_peripheral/Source/gd32e23x_rtc.c ****     /* RTC_TAMP register is not under write protection */
  49:Drivers/GD32E23x_standard_peripheral/Source/gd32e23x_rtc.c ****     RTC_TAMP = RTC_REGISTER_RESET;
  50:Drivers/GD32E23x_standard_peripheral/Source/gd32e23x_rtc.c **** 
  51:Drivers/GD32E23x_standard_peripheral/Source/gd32e23x_rtc.c ****     /* disable the write protection */
  52:Drivers/GD32E23x_standard_peripheral/Source/gd32e23x_rtc.c ****     RTC_WPK = RTC_UNLOCK_KEY1;
  53:Drivers/GD32E23x_standard_peripheral/Source/gd32e23x_rtc.c ****     RTC_WPK = RTC_UNLOCK_KEY2;
  54:Drivers/GD32E23x_standard_peripheral/Source/gd32e23x_rtc.c **** 
  55:Drivers/GD32E23x_standard_peripheral/Source/gd32e23x_rtc.c ****     /* reset RTC_CTL register, this can be done without the init mode */
  56:Drivers/GD32E23x_standard_peripheral/Source/gd32e23x_rtc.c ****     RTC_CTL &= RTC_REGISTER_RESET;
  57:Drivers/GD32E23x_standard_peripheral/Source/gd32e23x_rtc.c **** 
  58:Drivers/GD32E23x_standard_peripheral/Source/gd32e23x_rtc.c ****     /* enter init mode */
  59:Drivers/GD32E23x_standard_peripheral/Source/gd32e23x_rtc.c ****     error_status = rtc_init_mode_enter();
  60:Drivers/GD32E23x_standard_peripheral/Source/gd32e23x_rtc.c **** 
  61:Drivers/GD32E23x_standard_peripheral/Source/gd32e23x_rtc.c ****     if(ERROR != error_status){
  62:Drivers/GD32E23x_standard_peripheral/Source/gd32e23x_rtc.c ****         /* before reset RTC_TIME and RTC_DATE, BPSHAD bit in RTC_CTL should be reset as the conditi
  63:Drivers/GD32E23x_standard_peripheral/Source/gd32e23x_rtc.c ****            in order to read calendar from shadow register, not the real registers being reset */
  64:Drivers/GD32E23x_standard_peripheral/Source/gd32e23x_rtc.c ****         RTC_TIME = RTC_REGISTER_RESET;
  65:Drivers/GD32E23x_standard_peripheral/Source/gd32e23x_rtc.c ****         RTC_DATE = RTC_DATE_RESET;
  66:Drivers/GD32E23x_standard_peripheral/Source/gd32e23x_rtc.c **** 
  67:Drivers/GD32E23x_standard_peripheral/Source/gd32e23x_rtc.c ****         RTC_PSC = RTC_PSC_RESET;
  68:Drivers/GD32E23x_standard_peripheral/Source/gd32e23x_rtc.c **** 
  69:Drivers/GD32E23x_standard_peripheral/Source/gd32e23x_rtc.c ****         /* reset RTC_STAT register, also exit init mode.
  70:Drivers/GD32E23x_standard_peripheral/Source/gd32e23x_rtc.c ****            at the same time, RTC_STAT_SOPF bit is reset, as the condition to reset RTC_SHIFTCTL reg
  71:Drivers/GD32E23x_standard_peripheral/Source/gd32e23x_rtc.c ****         RTC_STAT = RTC_STAT_RESET;
  72:Drivers/GD32E23x_standard_peripheral/Source/gd32e23x_rtc.c ****       
  73:Drivers/GD32E23x_standard_peripheral/Source/gd32e23x_rtc.c ****         /* to write RTC_ALRM0SS register, ALRM0EN bit in RTC_CTL register should be reset as the co
  74:Drivers/GD32E23x_standard_peripheral/Source/gd32e23x_rtc.c ****         RTC_ALRM0TD = RTC_REGISTER_RESET;
  75:Drivers/GD32E23x_standard_peripheral/Source/gd32e23x_rtc.c ****         RTC_ALRM0SS = RTC_REGISTER_RESET;
  76:Drivers/GD32E23x_standard_peripheral/Source/gd32e23x_rtc.c **** 
  77:Drivers/GD32E23x_standard_peripheral/Source/gd32e23x_rtc.c ****         /* reset RTC_SHIFTCTL and RTC_HRFC register, this can be done without the init mode */
  78:Drivers/GD32E23x_standard_peripheral/Source/gd32e23x_rtc.c ****         RTC_SHIFTCTL = RTC_REGISTER_RESET;
  79:Drivers/GD32E23x_standard_peripheral/Source/gd32e23x_rtc.c ****         RTC_HRFC = RTC_REGISTER_RESET;
  80:Drivers/GD32E23x_standard_peripheral/Source/gd32e23x_rtc.c **** 
  81:Drivers/GD32E23x_standard_peripheral/Source/gd32e23x_rtc.c ****         error_status = rtc_register_sync_wait();  
  82:Drivers/GD32E23x_standard_peripheral/Source/gd32e23x_rtc.c ****     }
  83:Drivers/GD32E23x_standard_peripheral/Source/gd32e23x_rtc.c **** 
  84:Drivers/GD32E23x_standard_peripheral/Source/gd32e23x_rtc.c ****     /* enable the write protection */
  85:Drivers/GD32E23x_standard_peripheral/Source/gd32e23x_rtc.c ****     RTC_WPK = RTC_LOCK_KEY;
  86:Drivers/GD32E23x_standard_peripheral/Source/gd32e23x_rtc.c **** 
  87:Drivers/GD32E23x_standard_peripheral/Source/gd32e23x_rtc.c ****     return error_status;
  88:Drivers/GD32E23x_standard_peripheral/Source/gd32e23x_rtc.c **** }
  89:Drivers/GD32E23x_standard_peripheral/Source/gd32e23x_rtc.c **** 
ARM GAS  /var/folders/rv/zq8s_02j1dj4vjvr1mm5zl2r0000gn/T//cczf42zg.s 			page 3


  90:Drivers/GD32E23x_standard_peripheral/Source/gd32e23x_rtc.c **** /*!
  91:Drivers/GD32E23x_standard_peripheral/Source/gd32e23x_rtc.c ****     \brief      initialize RTC registers
  92:Drivers/GD32E23x_standard_peripheral/Source/gd32e23x_rtc.c ****     \param[in]  rtc_initpara_struct: pointer to a rtc_parameter_struct structure which contains 
  93:Drivers/GD32E23x_standard_peripheral/Source/gd32e23x_rtc.c ****                 parameters for initialization of the rtc peripheral
  94:Drivers/GD32E23x_standard_peripheral/Source/gd32e23x_rtc.c ****                 members of the structure and the member values are shown as below:
  95:Drivers/GD32E23x_standard_peripheral/Source/gd32e23x_rtc.c ****                   rtc_year: 0x0 - 0x99(BCD format)
  96:Drivers/GD32E23x_standard_peripheral/Source/gd32e23x_rtc.c ****                   rtc_month: RTC_JAN, RTC_FEB, RTC_MAR, RTC_APR, RTC_MAY, RTC_JUN,
  97:Drivers/GD32E23x_standard_peripheral/Source/gd32e23x_rtc.c ****                              RTC_JUL, RTC_AUG, RTC_SEP, RTC_OCT, RTC_NOV, RTC_DEC
  98:Drivers/GD32E23x_standard_peripheral/Source/gd32e23x_rtc.c ****                   rtc_date: 0x1 - 0x31(BCD format)
  99:Drivers/GD32E23x_standard_peripheral/Source/gd32e23x_rtc.c ****                   rtc_day_of_week: RTC_MONDAY, RTC_TUESDAY, RTC_WEDSDAY, RTC_THURSDAY
 100:Drivers/GD32E23x_standard_peripheral/Source/gd32e23x_rtc.c ****                                    RTC_FRIDAY, RTC_SATURDAY, RTC_SUNDAY
 101:Drivers/GD32E23x_standard_peripheral/Source/gd32e23x_rtc.c ****                   rtc_hour: 0x0 - 0x12(BCD format) or 0x0 - 0x23(BCD format) depending on the rtc_d
 102:Drivers/GD32E23x_standard_peripheral/Source/gd32e23x_rtc.c ****                   rtc_minute: 0x0 - 0x59(BCD format)
 103:Drivers/GD32E23x_standard_peripheral/Source/gd32e23x_rtc.c ****                   rtc_second: 0x0 - 0x59(BCD format)
 104:Drivers/GD32E23x_standard_peripheral/Source/gd32e23x_rtc.c ****                   rtc_factor_asyn: 0x0 - 0x7F
 105:Drivers/GD32E23x_standard_peripheral/Source/gd32e23x_rtc.c ****                   rtc_factor_syn: 0x0 - 0x7FFF
 106:Drivers/GD32E23x_standard_peripheral/Source/gd32e23x_rtc.c ****                   rtc_am_pm: RTC_AM, RTC_PM
 107:Drivers/GD32E23x_standard_peripheral/Source/gd32e23x_rtc.c ****                   rtc_display_format: RTC_24HOUR, RTC_12HOUR
 108:Drivers/GD32E23x_standard_peripheral/Source/gd32e23x_rtc.c ****     \param[out] none
 109:Drivers/GD32E23x_standard_peripheral/Source/gd32e23x_rtc.c ****     \retval     ErrStatus: ERROR or SUCCESS
 110:Drivers/GD32E23x_standard_peripheral/Source/gd32e23x_rtc.c **** */
 111:Drivers/GD32E23x_standard_peripheral/Source/gd32e23x_rtc.c **** ErrStatus rtc_init(rtc_parameter_struct* rtc_initpara_struct)
 112:Drivers/GD32E23x_standard_peripheral/Source/gd32e23x_rtc.c **** {
 113:Drivers/GD32E23x_standard_peripheral/Source/gd32e23x_rtc.c ****     ErrStatus error_status = ERROR;
 114:Drivers/GD32E23x_standard_peripheral/Source/gd32e23x_rtc.c ****     uint32_t reg_time = 0x00U, reg_date = 0x00U;
 115:Drivers/GD32E23x_standard_peripheral/Source/gd32e23x_rtc.c **** 
 116:Drivers/GD32E23x_standard_peripheral/Source/gd32e23x_rtc.c ****     reg_date = (DATE_YR(rtc_initpara_struct->rtc_year) | \
 117:Drivers/GD32E23x_standard_peripheral/Source/gd32e23x_rtc.c ****                 DATE_DOW(rtc_initpara_struct->rtc_day_of_week) | \
 118:Drivers/GD32E23x_standard_peripheral/Source/gd32e23x_rtc.c ****                 DATE_MON(rtc_initpara_struct->rtc_month) | \
 119:Drivers/GD32E23x_standard_peripheral/Source/gd32e23x_rtc.c ****                 DATE_DAY(rtc_initpara_struct->rtc_date)); 
 120:Drivers/GD32E23x_standard_peripheral/Source/gd32e23x_rtc.c ****     
 121:Drivers/GD32E23x_standard_peripheral/Source/gd32e23x_rtc.c ****     reg_time = (rtc_initpara_struct->rtc_am_pm| \
 122:Drivers/GD32E23x_standard_peripheral/Source/gd32e23x_rtc.c ****                 TIME_HR(rtc_initpara_struct->rtc_hour) | \
 123:Drivers/GD32E23x_standard_peripheral/Source/gd32e23x_rtc.c ****                 TIME_MN(rtc_initpara_struct->rtc_minute) | \
 124:Drivers/GD32E23x_standard_peripheral/Source/gd32e23x_rtc.c ****                 TIME_SC(rtc_initpara_struct->rtc_second)); 
 125:Drivers/GD32E23x_standard_peripheral/Source/gd32e23x_rtc.c ****               
 126:Drivers/GD32E23x_standard_peripheral/Source/gd32e23x_rtc.c ****     /* 1st: disable the write protection */
 127:Drivers/GD32E23x_standard_peripheral/Source/gd32e23x_rtc.c ****     RTC_WPK = RTC_UNLOCK_KEY1;
 128:Drivers/GD32E23x_standard_peripheral/Source/gd32e23x_rtc.c ****     RTC_WPK = RTC_UNLOCK_KEY2;
 129:Drivers/GD32E23x_standard_peripheral/Source/gd32e23x_rtc.c **** 
 130:Drivers/GD32E23x_standard_peripheral/Source/gd32e23x_rtc.c ****     /* 2nd: enter init mode */
 131:Drivers/GD32E23x_standard_peripheral/Source/gd32e23x_rtc.c ****     error_status = rtc_init_mode_enter();
 132:Drivers/GD32E23x_standard_peripheral/Source/gd32e23x_rtc.c **** 
 133:Drivers/GD32E23x_standard_peripheral/Source/gd32e23x_rtc.c ****     if(ERROR != error_status){
 134:Drivers/GD32E23x_standard_peripheral/Source/gd32e23x_rtc.c ****         RTC_PSC = (uint32_t)(PSC_FACTOR_A(rtc_initpara_struct->rtc_factor_asyn)| \
 135:Drivers/GD32E23x_standard_peripheral/Source/gd32e23x_rtc.c ****                                   PSC_FACTOR_S(rtc_initpara_struct->rtc_factor_syn));
 136:Drivers/GD32E23x_standard_peripheral/Source/gd32e23x_rtc.c **** 
 137:Drivers/GD32E23x_standard_peripheral/Source/gd32e23x_rtc.c ****         RTC_TIME = (uint32_t)reg_time;
 138:Drivers/GD32E23x_standard_peripheral/Source/gd32e23x_rtc.c ****         RTC_DATE = (uint32_t)reg_date;
 139:Drivers/GD32E23x_standard_peripheral/Source/gd32e23x_rtc.c **** 
 140:Drivers/GD32E23x_standard_peripheral/Source/gd32e23x_rtc.c ****         RTC_CTL &= (uint32_t)(~RTC_CTL_CS);
 141:Drivers/GD32E23x_standard_peripheral/Source/gd32e23x_rtc.c ****         RTC_CTL |=  rtc_initpara_struct->rtc_display_format;
 142:Drivers/GD32E23x_standard_peripheral/Source/gd32e23x_rtc.c ****         
 143:Drivers/GD32E23x_standard_peripheral/Source/gd32e23x_rtc.c ****         /* 3rd: exit init mode */
 144:Drivers/GD32E23x_standard_peripheral/Source/gd32e23x_rtc.c ****         rtc_init_mode_exit();
 145:Drivers/GD32E23x_standard_peripheral/Source/gd32e23x_rtc.c ****         
 146:Drivers/GD32E23x_standard_peripheral/Source/gd32e23x_rtc.c ****         /* 4th: wait the RSYNF flag to set */
ARM GAS  /var/folders/rv/zq8s_02j1dj4vjvr1mm5zl2r0000gn/T//cczf42zg.s 			page 4


 147:Drivers/GD32E23x_standard_peripheral/Source/gd32e23x_rtc.c ****         error_status = rtc_register_sync_wait();
 148:Drivers/GD32E23x_standard_peripheral/Source/gd32e23x_rtc.c ****     }
 149:Drivers/GD32E23x_standard_peripheral/Source/gd32e23x_rtc.c **** 
 150:Drivers/GD32E23x_standard_peripheral/Source/gd32e23x_rtc.c ****     /* 5th: enable the write protection */
 151:Drivers/GD32E23x_standard_peripheral/Source/gd32e23x_rtc.c ****     RTC_WPK = RTC_LOCK_KEY;
 152:Drivers/GD32E23x_standard_peripheral/Source/gd32e23x_rtc.c **** 
 153:Drivers/GD32E23x_standard_peripheral/Source/gd32e23x_rtc.c ****     return error_status;
 154:Drivers/GD32E23x_standard_peripheral/Source/gd32e23x_rtc.c **** }
 155:Drivers/GD32E23x_standard_peripheral/Source/gd32e23x_rtc.c **** 
 156:Drivers/GD32E23x_standard_peripheral/Source/gd32e23x_rtc.c **** /*!
 157:Drivers/GD32E23x_standard_peripheral/Source/gd32e23x_rtc.c ****     \brief      enter RTC init mode
 158:Drivers/GD32E23x_standard_peripheral/Source/gd32e23x_rtc.c ****     \param[in]  none
 159:Drivers/GD32E23x_standard_peripheral/Source/gd32e23x_rtc.c ****     \param[out] none
 160:Drivers/GD32E23x_standard_peripheral/Source/gd32e23x_rtc.c ****     \retval     ErrStatus: ERROR or SUCCESS
 161:Drivers/GD32E23x_standard_peripheral/Source/gd32e23x_rtc.c **** */
 162:Drivers/GD32E23x_standard_peripheral/Source/gd32e23x_rtc.c **** ErrStatus rtc_init_mode_enter(void)
 163:Drivers/GD32E23x_standard_peripheral/Source/gd32e23x_rtc.c **** {
  27              		.loc 1 163 1 view -0
  28              		.cfi_startproc
  29              		@ args = 0, pretend = 0, frame = 0
  30              		@ frame_needed = 0, uses_anonymous_args = 0
  31              		@ link register save eliminated.
 164:Drivers/GD32E23x_standard_peripheral/Source/gd32e23x_rtc.c ****     uint32_t time_index = RTC_INITM_TIMEOUT;
  32              		.loc 1 164 5 view .LVU1
  33              	.LVL0:
 165:Drivers/GD32E23x_standard_peripheral/Source/gd32e23x_rtc.c ****     uint32_t flag_status = RESET;
  34              		.loc 1 165 5 view .LVU2
 166:Drivers/GD32E23x_standard_peripheral/Source/gd32e23x_rtc.c ****     ErrStatus error_status = ERROR;
  35              		.loc 1 166 5 view .LVU3
 167:Drivers/GD32E23x_standard_peripheral/Source/gd32e23x_rtc.c **** 
 168:Drivers/GD32E23x_standard_peripheral/Source/gd32e23x_rtc.c ****     /* check whether it has been in init mode */
 169:Drivers/GD32E23x_standard_peripheral/Source/gd32e23x_rtc.c ****     if((uint32_t)RESET == (RTC_STAT & RTC_STAT_INITF)){
  36              		.loc 1 169 5 view .LVU4
  37              		.loc 1 169 28 is_stmt 0 view .LVU5
  38 0000 42F60C03 		movw	r3, #10252
  39 0004 C4F20003 		movt	r3, 16384
  40 0008 1B68     		ldr	r3, [r3]
  41              		.loc 1 169 7 view .LVU6
  42 000a 5B06     		lsls	r3, r3, #25
  43 000c 17D4     		bmi	.L5
 170:Drivers/GD32E23x_standard_peripheral/Source/gd32e23x_rtc.c ****         RTC_STAT |= RTC_STAT_INITM;
  44              		.loc 1 170 9 is_stmt 1 view .LVU7
  45              		.loc 1 170 18 is_stmt 0 view .LVU8
  46 000e 42F60C03 		movw	r3, #10252
  47 0012 C4F20003 		movt	r3, 16384
  48 0016 1A68     		ldr	r2, [r3]
  49 0018 8021     		movs	r1, #128
  50 001a 0A43     		orrs	r2, r1
  51 001c 1A60     		str	r2, [r3]
 164:Drivers/GD32E23x_standard_peripheral/Source/gd32e23x_rtc.c ****     uint32_t flag_status = RESET;
  52              		.loc 1 164 14 view .LVU9
  53 001e 44F20002 		movw	r2, #16384
  54              	.LVL1:
  55              	.L4:
 171:Drivers/GD32E23x_standard_peripheral/Source/gd32e23x_rtc.c ****         
 172:Drivers/GD32E23x_standard_peripheral/Source/gd32e23x_rtc.c ****         /* wait until the INITF flag to be set */
 173:Drivers/GD32E23x_standard_peripheral/Source/gd32e23x_rtc.c ****         do{
ARM GAS  /var/folders/rv/zq8s_02j1dj4vjvr1mm5zl2r0000gn/T//cczf42zg.s 			page 5


  56              		.loc 1 173 9 is_stmt 1 discriminator 2 view .LVU10
 174:Drivers/GD32E23x_standard_peripheral/Source/gd32e23x_rtc.c ****            flag_status = RTC_STAT & RTC_STAT_INITF;
  57              		.loc 1 174 12 discriminator 2 view .LVU11
  58              		.loc 1 174 26 is_stmt 0 discriminator 2 view .LVU12
  59 0022 42F60C03 		movw	r3, #10252
  60 0026 C4F20003 		movt	r3, 16384
  61 002a 1968     		ldr	r1, [r3]
  62              		.loc 1 174 24 discriminator 2 view .LVU13
  63 002c 4023     		movs	r3, #64
  64 002e 0B40     		ands	r3, r1
  65              	.LVL2:
 175:Drivers/GD32E23x_standard_peripheral/Source/gd32e23x_rtc.c ****         }while((--time_index > 0x00U) && ((uint32_t)RESET == flag_status));
  66              		.loc 1 175 15 is_stmt 1 discriminator 2 view .LVU14
  67              		.loc 1 175 9 is_stmt 0 discriminator 2 view .LVU15
  68 0030 013A     		subs	r2, r2, #1
  69              	.LVL3:
  70              		.loc 1 175 9 discriminator 2 view .LVU16
  71 0032 0AB1     		cbz	r2, .L3
  72              		.loc 1 175 39 discriminator 1 view .LVU17
  73 0034 002B     		cmp	r3, #0
  74 0036 F4D0     		beq	.L4
  75              	.L3:
 176:Drivers/GD32E23x_standard_peripheral/Source/gd32e23x_rtc.c **** 
 177:Drivers/GD32E23x_standard_peripheral/Source/gd32e23x_rtc.c ****         if((uint32_t)RESET != flag_status){
  76              		.loc 1 177 9 is_stmt 1 view .LVU18
  77              		.loc 1 177 11 is_stmt 0 view .LVU19
  78 0038 1BB9     		cbnz	r3, .L6
 166:Drivers/GD32E23x_standard_peripheral/Source/gd32e23x_rtc.c **** 
  79              		.loc 1 166 15 view .LVU20
  80 003a 0020     		movs	r0, #0
  81 003c 00E0     		b	.L2
  82              	.LVL4:
  83              	.L5:
 178:Drivers/GD32E23x_standard_peripheral/Source/gd32e23x_rtc.c ****             error_status = SUCCESS;
 179:Drivers/GD32E23x_standard_peripheral/Source/gd32e23x_rtc.c ****         }
 180:Drivers/GD32E23x_standard_peripheral/Source/gd32e23x_rtc.c ****     }else{
 181:Drivers/GD32E23x_standard_peripheral/Source/gd32e23x_rtc.c ****         error_status = SUCCESS;
  84              		.loc 1 181 22 view .LVU21
  85 003e 0120     		movs	r0, #1
  86              	.LVL5:
  87              	.L2:
 182:Drivers/GD32E23x_standard_peripheral/Source/gd32e23x_rtc.c ****     }
 183:Drivers/GD32E23x_standard_peripheral/Source/gd32e23x_rtc.c ****     return error_status;
  88              		.loc 1 183 5 is_stmt 1 view .LVU22
 184:Drivers/GD32E23x_standard_peripheral/Source/gd32e23x_rtc.c **** }
  89              		.loc 1 184 1 is_stmt 0 view .LVU23
  90              		@ sp needed
  91 0040 7047     		bx	lr
  92              	.LVL6:
  93              	.L6:
 178:Drivers/GD32E23x_standard_peripheral/Source/gd32e23x_rtc.c ****             error_status = SUCCESS;
  94              		.loc 1 178 26 view .LVU24
  95 0042 0120     		movs	r0, #1
  96 0044 FCE7     		b	.L2
  97              		.cfi_endproc
  98              	.LFE68:
 100              		.section	.text.rtc_init_mode_exit,"ax",%progbits
ARM GAS  /var/folders/rv/zq8s_02j1dj4vjvr1mm5zl2r0000gn/T//cczf42zg.s 			page 6


 101              		.align	1
 102              		.global	rtc_init_mode_exit
 103              		.syntax unified
 104              		.code	16
 105              		.thumb_func
 106              		.fpu softvfp
 108              	rtc_init_mode_exit:
 109              	.LFB69:
 185:Drivers/GD32E23x_standard_peripheral/Source/gd32e23x_rtc.c **** 
 186:Drivers/GD32E23x_standard_peripheral/Source/gd32e23x_rtc.c **** /*!
 187:Drivers/GD32E23x_standard_peripheral/Source/gd32e23x_rtc.c ****     \brief      exit RTC init mode
 188:Drivers/GD32E23x_standard_peripheral/Source/gd32e23x_rtc.c ****     \param[in]  none
 189:Drivers/GD32E23x_standard_peripheral/Source/gd32e23x_rtc.c ****     \param[out] none
 190:Drivers/GD32E23x_standard_peripheral/Source/gd32e23x_rtc.c ****     \retval     none
 191:Drivers/GD32E23x_standard_peripheral/Source/gd32e23x_rtc.c **** */
 192:Drivers/GD32E23x_standard_peripheral/Source/gd32e23x_rtc.c **** void rtc_init_mode_exit(void)
 193:Drivers/GD32E23x_standard_peripheral/Source/gd32e23x_rtc.c **** {
 110              		.loc 1 193 1 is_stmt 1 view -0
 111              		.cfi_startproc
 112              		@ args = 0, pretend = 0, frame = 0
 113              		@ frame_needed = 0, uses_anonymous_args = 0
 114              		@ link register save eliminated.
 194:Drivers/GD32E23x_standard_peripheral/Source/gd32e23x_rtc.c ****     RTC_STAT &= (uint32_t)(~RTC_STAT_INITM);
 115              		.loc 1 194 5 view .LVU26
 116              		.loc 1 194 14 is_stmt 0 view .LVU27
 117 0000 42F60C03 		movw	r3, #10252
 118 0004 C4F20003 		movt	r3, 16384
 119 0008 1A68     		ldr	r2, [r3]
 120 000a 8021     		movs	r1, #128
 121 000c 8A43     		bics	r2, r1
 122 000e 1A60     		str	r2, [r3]
 195:Drivers/GD32E23x_standard_peripheral/Source/gd32e23x_rtc.c **** }
 123              		.loc 1 195 1 view .LVU28
 124              		@ sp needed
 125 0010 7047     		bx	lr
 126              		.cfi_endproc
 127              	.LFE69:
 129              		.section	.text.rtc_register_sync_wait,"ax",%progbits
 130              		.align	1
 131              		.global	rtc_register_sync_wait
 132              		.syntax unified
 133              		.code	16
 134              		.thumb_func
 135              		.fpu softvfp
 137              	rtc_register_sync_wait:
 138              	.LFB70:
 196:Drivers/GD32E23x_standard_peripheral/Source/gd32e23x_rtc.c **** 
 197:Drivers/GD32E23x_standard_peripheral/Source/gd32e23x_rtc.c **** /*!
 198:Drivers/GD32E23x_standard_peripheral/Source/gd32e23x_rtc.c ****     \brief      wait until RTC_TIME and RTC_DATE registers are synchronized with APB clock, and the
 199:Drivers/GD32E23x_standard_peripheral/Source/gd32e23x_rtc.c ****                 registers are updated
 200:Drivers/GD32E23x_standard_peripheral/Source/gd32e23x_rtc.c ****     \param[in]  none
 201:Drivers/GD32E23x_standard_peripheral/Source/gd32e23x_rtc.c ****     \param[out] none
 202:Drivers/GD32E23x_standard_peripheral/Source/gd32e23x_rtc.c ****     \retval     ErrStatus: ERROR or SUCCESS
 203:Drivers/GD32E23x_standard_peripheral/Source/gd32e23x_rtc.c **** */
 204:Drivers/GD32E23x_standard_peripheral/Source/gd32e23x_rtc.c **** ErrStatus rtc_register_sync_wait(void)
 205:Drivers/GD32E23x_standard_peripheral/Source/gd32e23x_rtc.c **** {
 139              		.loc 1 205 1 is_stmt 1 view -0
ARM GAS  /var/folders/rv/zq8s_02j1dj4vjvr1mm5zl2r0000gn/T//cczf42zg.s 			page 7


 140              		.cfi_startproc
 141              		@ args = 0, pretend = 0, frame = 8
 142              		@ frame_needed = 0, uses_anonymous_args = 0
 143              		@ link register save eliminated.
 144 0000 82B0     		sub	sp, sp, #8
 145              	.LCFI0:
 146              		.cfi_def_cfa_offset 8
 206:Drivers/GD32E23x_standard_peripheral/Source/gd32e23x_rtc.c ****     volatile uint32_t time_index = RTC_RSYNF_TIMEOUT;
 147              		.loc 1 206 5 view .LVU30
 148              		.loc 1 206 23 is_stmt 0 view .LVU31
 149 0002 48F20003 		movw	r3, #32768
 150 0006 0193     		str	r3, [sp, #4]
 207:Drivers/GD32E23x_standard_peripheral/Source/gd32e23x_rtc.c ****     uint32_t flag_status = RESET;
 151              		.loc 1 207 5 is_stmt 1 view .LVU32
 152              	.LVL7:
 208:Drivers/GD32E23x_standard_peripheral/Source/gd32e23x_rtc.c ****     ErrStatus error_status = ERROR;
 153              		.loc 1 208 5 view .LVU33
 209:Drivers/GD32E23x_standard_peripheral/Source/gd32e23x_rtc.c **** 
 210:Drivers/GD32E23x_standard_peripheral/Source/gd32e23x_rtc.c ****     if((uint32_t)RESET == (RTC_CTL & RTC_CTL_BPSHAD)){
 154              		.loc 1 210 5 view .LVU34
 155              		.loc 1 210 28 is_stmt 0 view .LVU35
 156 0008 42F60803 		movw	r3, #10248
 157 000c C4F20003 		movt	r3, 16384
 158 0010 1B68     		ldr	r3, [r3]
 159              		.loc 1 210 7 view .LVU36
 160 0012 9B06     		lsls	r3, r3, #26
 161 0014 28D4     		bmi	.L13
 211:Drivers/GD32E23x_standard_peripheral/Source/gd32e23x_rtc.c ****         /* disable the write protection */
 212:Drivers/GD32E23x_standard_peripheral/Source/gd32e23x_rtc.c ****         RTC_WPK = RTC_UNLOCK_KEY1;
 162              		.loc 1 212 9 is_stmt 1 view .LVU37
 163              		.loc 1 212 17 is_stmt 0 view .LVU38
 164 0016 42F62403 		movw	r3, #10276
 165 001a C4F20003 		movt	r3, 16384
 166 001e CA22     		movs	r2, #202
 167 0020 1A60     		str	r2, [r3]
 213:Drivers/GD32E23x_standard_peripheral/Source/gd32e23x_rtc.c ****         RTC_WPK = RTC_UNLOCK_KEY2;
 168              		.loc 1 213 9 is_stmt 1 view .LVU39
 169              		.loc 1 213 17 is_stmt 0 view .LVU40
 170 0022 773A     		subs	r2, r2, #119
 171 0024 1A60     		str	r2, [r3]
 214:Drivers/GD32E23x_standard_peripheral/Source/gd32e23x_rtc.c **** 
 215:Drivers/GD32E23x_standard_peripheral/Source/gd32e23x_rtc.c ****         /* firstly clear RSYNF flag */
 216:Drivers/GD32E23x_standard_peripheral/Source/gd32e23x_rtc.c ****         RTC_STAT &= (uint32_t)(~RTC_STAT_RSYNF);
 172              		.loc 1 216 9 is_stmt 1 view .LVU41
 173              		.loc 1 216 18 is_stmt 0 view .LVU42
 174 0026 42F60C03 		movw	r3, #10252
 175 002a C4F20003 		movt	r3, 16384
 176 002e 1A68     		ldr	r2, [r3]
 177 0030 2021     		movs	r1, #32
 178 0032 8A43     		bics	r2, r1
 179 0034 1A60     		str	r2, [r3]
 180              	.LVL8:
 181              	.L11:
 217:Drivers/GD32E23x_standard_peripheral/Source/gd32e23x_rtc.c **** 
 218:Drivers/GD32E23x_standard_peripheral/Source/gd32e23x_rtc.c ****         /* wait until RSYNF flag to be set */
 219:Drivers/GD32E23x_standard_peripheral/Source/gd32e23x_rtc.c ****         do{
 182              		.loc 1 219 9 is_stmt 1 discriminator 2 view .LVU43
ARM GAS  /var/folders/rv/zq8s_02j1dj4vjvr1mm5zl2r0000gn/T//cczf42zg.s 			page 8


 220:Drivers/GD32E23x_standard_peripheral/Source/gd32e23x_rtc.c ****             flag_status = RTC_STAT & RTC_STAT_RSYNF;
 183              		.loc 1 220 13 discriminator 2 view .LVU44
 184              		.loc 1 220 27 is_stmt 0 discriminator 2 view .LVU45
 185 0036 42F60C03 		movw	r3, #10252
 186 003a C4F20003 		movt	r3, 16384
 187 003e 1B68     		ldr	r3, [r3]
 188              		.loc 1 220 25 discriminator 2 view .LVU46
 189 0040 2022     		movs	r2, #32
 190 0042 1A40     		ands	r2, r3
 191              	.LVL9:
 221:Drivers/GD32E23x_standard_peripheral/Source/gd32e23x_rtc.c ****         }while((--time_index > 0x00U) && ((uint32_t)RESET == flag_status));
 192              		.loc 1 221 15 is_stmt 1 discriminator 2 view .LVU47
 193              		.loc 1 221 17 is_stmt 0 discriminator 2 view .LVU48
 194 0044 019B     		ldr	r3, [sp, #4]
 195 0046 013B     		subs	r3, r3, #1
 196              		.loc 1 221 9 discriminator 2 view .LVU49
 197 0048 0193     		str	r3, [sp, #4]
 198 004a 0BB1     		cbz	r3, .L10
 199              		.loc 1 221 39 discriminator 1 view .LVU50
 200 004c 002A     		cmp	r2, #0
 201 004e F2D0     		beq	.L11
 202              	.L10:
 222:Drivers/GD32E23x_standard_peripheral/Source/gd32e23x_rtc.c **** 
 223:Drivers/GD32E23x_standard_peripheral/Source/gd32e23x_rtc.c ****         if((uint32_t)RESET != flag_status){
 203              		.loc 1 223 9 is_stmt 1 view .LVU51
 204              		.loc 1 223 11 is_stmt 0 view .LVU52
 205 0050 42B9     		cbnz	r2, .L14
 208:Drivers/GD32E23x_standard_peripheral/Source/gd32e23x_rtc.c **** 
 206              		.loc 1 208 15 view .LVU53
 207 0052 0020     		movs	r0, #0
 208              	.L12:
 209              	.LVL10:
 224:Drivers/GD32E23x_standard_peripheral/Source/gd32e23x_rtc.c ****             error_status = SUCCESS;
 225:Drivers/GD32E23x_standard_peripheral/Source/gd32e23x_rtc.c ****         }
 226:Drivers/GD32E23x_standard_peripheral/Source/gd32e23x_rtc.c ****         
 227:Drivers/GD32E23x_standard_peripheral/Source/gd32e23x_rtc.c ****         /* enable the write protection */
 228:Drivers/GD32E23x_standard_peripheral/Source/gd32e23x_rtc.c ****         RTC_WPK = RTC_LOCK_KEY;
 210              		.loc 1 228 9 is_stmt 1 view .LVU54
 211              		.loc 1 228 17 is_stmt 0 view .LVU55
 212 0054 42F62403 		movw	r3, #10276
 213 0058 C4F20003 		movt	r3, 16384
 214 005c FF22     		movs	r2, #255
 215              	.LVL11:
 216              		.loc 1 228 17 view .LVU56
 217 005e 1A60     		str	r2, [r3]
 218              	.LVL12:
 219              	.L9:
 229:Drivers/GD32E23x_standard_peripheral/Source/gd32e23x_rtc.c ****     }else{ 
 230:Drivers/GD32E23x_standard_peripheral/Source/gd32e23x_rtc.c ****         error_status = SUCCESS;
 231:Drivers/GD32E23x_standard_peripheral/Source/gd32e23x_rtc.c ****     }
 232:Drivers/GD32E23x_standard_peripheral/Source/gd32e23x_rtc.c **** 
 233:Drivers/GD32E23x_standard_peripheral/Source/gd32e23x_rtc.c ****     return error_status;
 220              		.loc 1 233 5 is_stmt 1 view .LVU57
 234:Drivers/GD32E23x_standard_peripheral/Source/gd32e23x_rtc.c **** }
 221              		.loc 1 234 1 is_stmt 0 view .LVU58
 222 0060 02B0     		add	sp, sp, #8
 223              		@ sp needed
ARM GAS  /var/folders/rv/zq8s_02j1dj4vjvr1mm5zl2r0000gn/T//cczf42zg.s 			page 9


 224 0062 7047     		bx	lr
 225              	.LVL13:
 226              	.L14:
 224:Drivers/GD32E23x_standard_peripheral/Source/gd32e23x_rtc.c ****             error_status = SUCCESS;
 227              		.loc 1 224 26 view .LVU59
 228 0064 0120     		movs	r0, #1
 229 0066 F5E7     		b	.L12
 230              	.LVL14:
 231              	.L13:
 230:Drivers/GD32E23x_standard_peripheral/Source/gd32e23x_rtc.c ****     }
 232              		.loc 1 230 22 view .LVU60
 233 0068 0120     		movs	r0, #1
 234 006a F9E7     		b	.L9
 235              		.cfi_endproc
 236              	.LFE70:
 238              		.section	.text.rtc_deinit,"ax",%progbits
 239              		.align	1
 240              		.global	rtc_deinit
 241              		.syntax unified
 242              		.code	16
 243              		.thumb_func
 244              		.fpu softvfp
 246              	rtc_deinit:
 247              	.LFB66:
  45:Drivers/GD32E23x_standard_peripheral/Source/gd32e23x_rtc.c ****     ErrStatus error_status = ERROR;
 248              		.loc 1 45 1 is_stmt 1 view -0
 249              		.cfi_startproc
 250              		@ args = 0, pretend = 0, frame = 0
 251              		@ frame_needed = 0, uses_anonymous_args = 0
 252 0000 10B5     		push	{r4, lr}
 253              	.LCFI1:
 254              		.cfi_def_cfa_offset 8
 255              		.cfi_offset 4, -8
 256              		.cfi_offset 14, -4
  46:Drivers/GD32E23x_standard_peripheral/Source/gd32e23x_rtc.c **** 
 257              		.loc 1 46 5 view .LVU62
 258              	.LVL15:
  49:Drivers/GD32E23x_standard_peripheral/Source/gd32e23x_rtc.c **** 
 259              		.loc 1 49 5 view .LVU63
  49:Drivers/GD32E23x_standard_peripheral/Source/gd32e23x_rtc.c **** 
 260              		.loc 1 49 14 is_stmt 0 view .LVU64
 261 0002 42F64003 		movw	r3, #10304
 262 0006 C4F20003 		movt	r3, 16384
 263 000a 0022     		movs	r2, #0
 264 000c 1A60     		str	r2, [r3]
  52:Drivers/GD32E23x_standard_peripheral/Source/gd32e23x_rtc.c ****     RTC_WPK = RTC_UNLOCK_KEY2;
 265              		.loc 1 52 5 is_stmt 1 view .LVU65
  52:Drivers/GD32E23x_standard_peripheral/Source/gd32e23x_rtc.c ****     RTC_WPK = RTC_UNLOCK_KEY2;
 266              		.loc 1 52 13 is_stmt 0 view .LVU66
 267 000e 42F62403 		movw	r3, #10276
 268 0012 C4F20003 		movt	r3, 16384
 269 0016 CA21     		movs	r1, #202
 270 0018 1960     		str	r1, [r3]
  53:Drivers/GD32E23x_standard_peripheral/Source/gd32e23x_rtc.c **** 
 271              		.loc 1 53 5 is_stmt 1 view .LVU67
  53:Drivers/GD32E23x_standard_peripheral/Source/gd32e23x_rtc.c **** 
 272              		.loc 1 53 13 is_stmt 0 view .LVU68
ARM GAS  /var/folders/rv/zq8s_02j1dj4vjvr1mm5zl2r0000gn/T//cczf42zg.s 			page 10


 273 001a 7739     		subs	r1, r1, #119
 274 001c 1960     		str	r1, [r3]
  56:Drivers/GD32E23x_standard_peripheral/Source/gd32e23x_rtc.c **** 
 275              		.loc 1 56 5 is_stmt 1 view .LVU69
  56:Drivers/GD32E23x_standard_peripheral/Source/gd32e23x_rtc.c **** 
 276              		.loc 1 56 13 is_stmt 0 view .LVU70
 277 001e 42F60803 		movw	r3, #10248
 278 0022 C4F20003 		movt	r3, 16384
 279 0026 1968     		ldr	r1, [r3]
 280 0028 1A60     		str	r2, [r3]
  59:Drivers/GD32E23x_standard_peripheral/Source/gd32e23x_rtc.c **** 
 281              		.loc 1 59 5 is_stmt 1 view .LVU71
  59:Drivers/GD32E23x_standard_peripheral/Source/gd32e23x_rtc.c **** 
 282              		.loc 1 59 20 is_stmt 0 view .LVU72
 283 002a FFF7FEFF 		bl	rtc_init_mode_enter
 284              	.LVL16:
  61:Drivers/GD32E23x_standard_peripheral/Source/gd32e23x_rtc.c ****         /* before reset RTC_TIME and RTC_DATE, BPSHAD bit in RTC_CTL should be reset as the conditi
 285              		.loc 1 61 5 is_stmt 1 view .LVU73
  61:Drivers/GD32E23x_standard_peripheral/Source/gd32e23x_rtc.c ****         /* before reset RTC_TIME and RTC_DATE, BPSHAD bit in RTC_CTL should be reset as the conditi
 286              		.loc 1 61 7 is_stmt 0 view .LVU74
 287 002e 30B9     		cbnz	r0, .L17
 288              	.LVL17:
 289              	.L16:
  85:Drivers/GD32E23x_standard_peripheral/Source/gd32e23x_rtc.c **** 
 290              		.loc 1 85 5 is_stmt 1 view .LVU75
  85:Drivers/GD32E23x_standard_peripheral/Source/gd32e23x_rtc.c **** 
 291              		.loc 1 85 13 is_stmt 0 view .LVU76
 292 0030 42F62403 		movw	r3, #10276
 293 0034 C4F20003 		movt	r3, 16384
 294 0038 FF22     		movs	r2, #255
 295 003a 1A60     		str	r2, [r3]
  87:Drivers/GD32E23x_standard_peripheral/Source/gd32e23x_rtc.c **** }
 296              		.loc 1 87 5 is_stmt 1 view .LVU77
  88:Drivers/GD32E23x_standard_peripheral/Source/gd32e23x_rtc.c **** 
 297              		.loc 1 88 1 is_stmt 0 view .LVU78
 298              		@ sp needed
 299 003c 10BD     		pop	{r4, pc}
 300              	.L17:
  64:Drivers/GD32E23x_standard_peripheral/Source/gd32e23x_rtc.c ****         RTC_DATE = RTC_DATE_RESET;
 301              		.loc 1 64 9 is_stmt 1 view .LVU79
  64:Drivers/GD32E23x_standard_peripheral/Source/gd32e23x_rtc.c ****         RTC_DATE = RTC_DATE_RESET;
 302              		.loc 1 64 18 is_stmt 0 view .LVU80
 303 003e 42F60002 		movw	r2, #10240
 304 0042 C4F20002 		movt	r2, 16384
 305 0046 0023     		movs	r3, #0
 306 0048 1360     		str	r3, [r2]
  65:Drivers/GD32E23x_standard_peripheral/Source/gd32e23x_rtc.c **** 
 307              		.loc 1 65 9 is_stmt 1 view .LVU81
  65:Drivers/GD32E23x_standard_peripheral/Source/gd32e23x_rtc.c **** 
 308              		.loc 1 65 18 is_stmt 0 view .LVU82
 309 004a 42F60402 		movw	r2, #10244
 310 004e C4F20002 		movt	r2, 16384
 311 0052 42F20111 		movw	r1, #8449
 312 0056 1160     		str	r1, [r2]
  67:Drivers/GD32E23x_standard_peripheral/Source/gd32e23x_rtc.c **** 
 313              		.loc 1 67 9 is_stmt 1 view .LVU83
  67:Drivers/GD32E23x_standard_peripheral/Source/gd32e23x_rtc.c **** 
ARM GAS  /var/folders/rv/zq8s_02j1dj4vjvr1mm5zl2r0000gn/T//cczf42zg.s 			page 11


 314              		.loc 1 67 17 is_stmt 0 view .LVU84
 315 0058 42F61002 		movw	r2, #10256
 316 005c C4F20002 		movt	r2, 16384
 317 0060 FF21     		movs	r1, #255
 318 0062 C0F27F01 		movt	r1, 127
 319 0066 1160     		str	r1, [r2]
  71:Drivers/GD32E23x_standard_peripheral/Source/gd32e23x_rtc.c ****       
 320              		.loc 1 71 9 is_stmt 1 view .LVU85
  71:Drivers/GD32E23x_standard_peripheral/Source/gd32e23x_rtc.c ****       
 321              		.loc 1 71 18 is_stmt 0 view .LVU86
 322 0068 42F60C02 		movw	r2, #10252
 323 006c C4F20002 		movt	r2, 16384
 324 0070 0721     		movs	r1, #7
 325 0072 1160     		str	r1, [r2]
  74:Drivers/GD32E23x_standard_peripheral/Source/gd32e23x_rtc.c ****         RTC_ALRM0SS = RTC_REGISTER_RESET;
 326              		.loc 1 74 9 is_stmt 1 view .LVU87
  74:Drivers/GD32E23x_standard_peripheral/Source/gd32e23x_rtc.c ****         RTC_ALRM0SS = RTC_REGISTER_RESET;
 327              		.loc 1 74 21 is_stmt 0 view .LVU88
 328 0074 42F61C02 		movw	r2, #10268
 329 0078 C4F20002 		movt	r2, 16384
 330 007c 1360     		str	r3, [r2]
  75:Drivers/GD32E23x_standard_peripheral/Source/gd32e23x_rtc.c **** 
 331              		.loc 1 75 9 is_stmt 1 view .LVU89
  75:Drivers/GD32E23x_standard_peripheral/Source/gd32e23x_rtc.c **** 
 332              		.loc 1 75 21 is_stmt 0 view .LVU90
 333 007e 42F64402 		movw	r2, #10308
 334 0082 C4F20002 		movt	r2, 16384
 335 0086 1360     		str	r3, [r2]
  78:Drivers/GD32E23x_standard_peripheral/Source/gd32e23x_rtc.c ****         RTC_HRFC = RTC_REGISTER_RESET;
 336              		.loc 1 78 9 is_stmt 1 view .LVU91
  78:Drivers/GD32E23x_standard_peripheral/Source/gd32e23x_rtc.c ****         RTC_HRFC = RTC_REGISTER_RESET;
 337              		.loc 1 78 22 is_stmt 0 view .LVU92
 338 0088 42F62C02 		movw	r2, #10284
 339 008c C4F20002 		movt	r2, 16384
 340 0090 1360     		str	r3, [r2]
  79:Drivers/GD32E23x_standard_peripheral/Source/gd32e23x_rtc.c **** 
 341              		.loc 1 79 9 is_stmt 1 view .LVU93
  79:Drivers/GD32E23x_standard_peripheral/Source/gd32e23x_rtc.c **** 
 342              		.loc 1 79 18 is_stmt 0 view .LVU94
 343 0092 42F63C02 		movw	r2, #10300
 344 0096 C4F20002 		movt	r2, 16384
 345 009a 1360     		str	r3, [r2]
  81:Drivers/GD32E23x_standard_peripheral/Source/gd32e23x_rtc.c ****     }
 346              		.loc 1 81 9 is_stmt 1 view .LVU95
  81:Drivers/GD32E23x_standard_peripheral/Source/gd32e23x_rtc.c ****     }
 347              		.loc 1 81 24 is_stmt 0 view .LVU96
 348 009c FFF7FEFF 		bl	rtc_register_sync_wait
 349              	.LVL18:
  81:Drivers/GD32E23x_standard_peripheral/Source/gd32e23x_rtc.c ****     }
 350              		.loc 1 81 24 view .LVU97
 351 00a0 C6E7     		b	.L16
 352              		.cfi_endproc
 353              	.LFE66:
 355              		.section	.text.rtc_init,"ax",%progbits
 356              		.align	1
 357              		.global	rtc_init
 358              		.syntax unified
ARM GAS  /var/folders/rv/zq8s_02j1dj4vjvr1mm5zl2r0000gn/T//cczf42zg.s 			page 12


 359              		.code	16
 360              		.thumb_func
 361              		.fpu softvfp
 363              	rtc_init:
 364              	.LVL19:
 365              	.LFB67:
 112:Drivers/GD32E23x_standard_peripheral/Source/gd32e23x_rtc.c ****     ErrStatus error_status = ERROR;
 366              		.loc 1 112 1 is_stmt 1 view -0
 367              		.cfi_startproc
 368              		@ args = 0, pretend = 0, frame = 0
 369              		@ frame_needed = 0, uses_anonymous_args = 0
 112:Drivers/GD32E23x_standard_peripheral/Source/gd32e23x_rtc.c ****     ErrStatus error_status = ERROR;
 370              		.loc 1 112 1 is_stmt 0 view .LVU99
 371 0000 70B5     		push	{r4, r5, r6, lr}
 372              	.LCFI2:
 373              		.cfi_def_cfa_offset 16
 374              		.cfi_offset 4, -16
 375              		.cfi_offset 5, -12
 376              		.cfi_offset 6, -8
 377              		.cfi_offset 14, -4
 378 0002 0400     		movs	r4, r0
 113:Drivers/GD32E23x_standard_peripheral/Source/gd32e23x_rtc.c ****     uint32_t reg_time = 0x00U, reg_date = 0x00U;
 379              		.loc 1 113 5 is_stmt 1 view .LVU100
 380              	.LVL20:
 114:Drivers/GD32E23x_standard_peripheral/Source/gd32e23x_rtc.c **** 
 381              		.loc 1 114 5 view .LVU101
 116:Drivers/GD32E23x_standard_peripheral/Source/gd32e23x_rtc.c ****                 DATE_DOW(rtc_initpara_struct->rtc_day_of_week) | \
 382              		.loc 1 116 5 view .LVU102
 116:Drivers/GD32E23x_standard_peripheral/Source/gd32e23x_rtc.c ****                 DATE_DOW(rtc_initpara_struct->rtc_day_of_week) | \
 383              		.loc 1 116 17 is_stmt 0 view .LVU103
 384 0004 0378     		ldrb	r3, [r0]
 385 0006 1B04     		lsls	r3, r3, #16
 117:Drivers/GD32E23x_standard_peripheral/Source/gd32e23x_rtc.c ****                 DATE_MON(rtc_initpara_struct->rtc_month) | \
 386              		.loc 1 117 17 view .LVU104
 387 0008 C178     		ldrb	r1, [r0, #3]
 388 000a 4903     		lsls	r1, r1, #13
 389 000c 4FF6FF72 		movw	r2, #65535
 390 0010 0A40     		ands	r2, r1
 116:Drivers/GD32E23x_standard_peripheral/Source/gd32e23x_rtc.c ****                 DATE_DOW(rtc_initpara_struct->rtc_day_of_week) | \
 391              		.loc 1 116 56 view .LVU105
 392 0012 1343     		orrs	r3, r2
 118:Drivers/GD32E23x_standard_peripheral/Source/gd32e23x_rtc.c ****                 DATE_DAY(rtc_initpara_struct->rtc_date)); 
 393              		.loc 1 118 17 view .LVU106
 394 0014 4178     		ldrb	r1, [r0, #1]
 395 0016 0902     		lsls	r1, r1, #8
 396 0018 41F60072 		movw	r2, #7936
 397 001c 0A40     		ands	r2, r1
 117:Drivers/GD32E23x_standard_peripheral/Source/gd32e23x_rtc.c ****                 DATE_MON(rtc_initpara_struct->rtc_month) | \
 398              		.loc 1 117 64 view .LVU107
 399 001e 1343     		orrs	r3, r2
 119:Drivers/GD32E23x_standard_peripheral/Source/gd32e23x_rtc.c ****     
 400              		.loc 1 119 17 view .LVU108
 401 0020 8278     		ldrb	r2, [r0, #2]
 402 0022 3F25     		movs	r5, #63
 403 0024 1540     		ands	r5, r2
 116:Drivers/GD32E23x_standard_peripheral/Source/gd32e23x_rtc.c ****                 DATE_DOW(rtc_initpara_struct->rtc_day_of_week) | \
 404              		.loc 1 116 14 view .LVU109
ARM GAS  /var/folders/rv/zq8s_02j1dj4vjvr1mm5zl2r0000gn/T//cczf42zg.s 			page 13


 405 0026 1D43     		orrs	r5, r3
 406              	.LVL21:
 121:Drivers/GD32E23x_standard_peripheral/Source/gd32e23x_rtc.c ****                 TIME_HR(rtc_initpara_struct->rtc_hour) | \
 407              		.loc 1 121 5 is_stmt 1 view .LVU110
 122:Drivers/GD32E23x_standard_peripheral/Source/gd32e23x_rtc.c ****                 TIME_MN(rtc_initpara_struct->rtc_minute) | \
 408              		.loc 1 122 17 is_stmt 0 view .LVU111
 409 0028 0379     		ldrb	r3, [r0, #4]
 410 002a 1B04     		lsls	r3, r3, #16
 411 002c FC22     		movs	r2, #252
 412 002e 9203     		lsls	r2, r2, #14
 413 0030 1340     		ands	r3, r2
 121:Drivers/GD32E23x_standard_peripheral/Source/gd32e23x_rtc.c ****                 TIME_HR(rtc_initpara_struct->rtc_hour) | \
 414              		.loc 1 121 47 view .LVU112
 415 0032 C268     		ldr	r2, [r0, #12]
 416 0034 1343     		orrs	r3, r2
 123:Drivers/GD32E23x_standard_peripheral/Source/gd32e23x_rtc.c ****                 TIME_SC(rtc_initpara_struct->rtc_second)); 
 417              		.loc 1 123 17 view .LVU113
 418 0036 4179     		ldrb	r1, [r0, #5]
 419 0038 0902     		lsls	r1, r1, #8
 420 003a 47F60072 		movw	r2, #32512
 421 003e 0A40     		ands	r2, r1
 122:Drivers/GD32E23x_standard_peripheral/Source/gd32e23x_rtc.c ****                 TIME_MN(rtc_initpara_struct->rtc_minute) | \
 422              		.loc 1 122 56 view .LVU114
 423 0040 1343     		orrs	r3, r2
 124:Drivers/GD32E23x_standard_peripheral/Source/gd32e23x_rtc.c ****               
 424              		.loc 1 124 17 view .LVU115
 425 0042 8279     		ldrb	r2, [r0, #6]
 426 0044 7F26     		movs	r6, #127
 427 0046 1640     		ands	r6, r2
 121:Drivers/GD32E23x_standard_peripheral/Source/gd32e23x_rtc.c ****                 TIME_HR(rtc_initpara_struct->rtc_hour) | \
 428              		.loc 1 121 14 view .LVU116
 429 0048 1E43     		orrs	r6, r3
 430              	.LVL22:
 127:Drivers/GD32E23x_standard_peripheral/Source/gd32e23x_rtc.c ****     RTC_WPK = RTC_UNLOCK_KEY2;
 431              		.loc 1 127 5 is_stmt 1 view .LVU117
 127:Drivers/GD32E23x_standard_peripheral/Source/gd32e23x_rtc.c ****     RTC_WPK = RTC_UNLOCK_KEY2;
 432              		.loc 1 127 13 is_stmt 0 view .LVU118
 433 004a 42F62403 		movw	r3, #10276
 434 004e C4F20003 		movt	r3, 16384
 435 0052 CA22     		movs	r2, #202
 436 0054 1A60     		str	r2, [r3]
 128:Drivers/GD32E23x_standard_peripheral/Source/gd32e23x_rtc.c **** 
 437              		.loc 1 128 5 is_stmt 1 view .LVU119
 128:Drivers/GD32E23x_standard_peripheral/Source/gd32e23x_rtc.c **** 
 438              		.loc 1 128 13 is_stmt 0 view .LVU120
 439 0056 773A     		subs	r2, r2, #119
 440 0058 1A60     		str	r2, [r3]
 131:Drivers/GD32E23x_standard_peripheral/Source/gd32e23x_rtc.c **** 
 441              		.loc 1 131 5 is_stmt 1 view .LVU121
 131:Drivers/GD32E23x_standard_peripheral/Source/gd32e23x_rtc.c **** 
 442              		.loc 1 131 20 is_stmt 0 view .LVU122
 443 005a FFF7FEFF 		bl	rtc_init_mode_enter
 444              	.LVL23:
 133:Drivers/GD32E23x_standard_peripheral/Source/gd32e23x_rtc.c ****         RTC_PSC = (uint32_t)(PSC_FACTOR_A(rtc_initpara_struct->rtc_factor_asyn)| \
 445              		.loc 1 133 5 is_stmt 1 view .LVU123
 133:Drivers/GD32E23x_standard_peripheral/Source/gd32e23x_rtc.c ****         RTC_PSC = (uint32_t)(PSC_FACTOR_A(rtc_initpara_struct->rtc_factor_asyn)| \
 446              		.loc 1 133 7 is_stmt 0 view .LVU124
ARM GAS  /var/folders/rv/zq8s_02j1dj4vjvr1mm5zl2r0000gn/T//cczf42zg.s 			page 14


 447 005e 30B9     		cbnz	r0, .L20
 448              	.LVL24:
 449              	.L19:
 151:Drivers/GD32E23x_standard_peripheral/Source/gd32e23x_rtc.c **** 
 450              		.loc 1 151 5 is_stmt 1 view .LVU125
 151:Drivers/GD32E23x_standard_peripheral/Source/gd32e23x_rtc.c **** 
 451              		.loc 1 151 13 is_stmt 0 view .LVU126
 452 0060 42F62403 		movw	r3, #10276
 453 0064 C4F20003 		movt	r3, 16384
 454 0068 FF22     		movs	r2, #255
 455 006a 1A60     		str	r2, [r3]
 153:Drivers/GD32E23x_standard_peripheral/Source/gd32e23x_rtc.c **** }
 456              		.loc 1 153 5 is_stmt 1 view .LVU127
 154:Drivers/GD32E23x_standard_peripheral/Source/gd32e23x_rtc.c **** 
 457              		.loc 1 154 1 is_stmt 0 view .LVU128
 458              		@ sp needed
 459              	.LVL25:
 460              	.LVL26:
 461              	.LVL27:
 154:Drivers/GD32E23x_standard_peripheral/Source/gd32e23x_rtc.c **** 
 462              		.loc 1 154 1 view .LVU129
 463 006c 70BD     		pop	{r4, r5, r6, pc}
 464              	.LVL28:
 465              	.L20:
 134:Drivers/GD32E23x_standard_peripheral/Source/gd32e23x_rtc.c ****                                   PSC_FACTOR_S(rtc_initpara_struct->rtc_factor_syn));
 466              		.loc 1 134 9 is_stmt 1 view .LVU130
 134:Drivers/GD32E23x_standard_peripheral/Source/gd32e23x_rtc.c ****                                   PSC_FACTOR_S(rtc_initpara_struct->rtc_factor_syn));
 467              		.loc 1 134 30 is_stmt 0 view .LVU131
 468 006e 2389     		ldrh	r3, [r4, #8]
 469 0070 1B04     		lsls	r3, r3, #16
 470 0072 FE22     		movs	r2, #254
 471 0074 D203     		lsls	r2, r2, #15
 472 0076 1340     		ands	r3, r2
 135:Drivers/GD32E23x_standard_peripheral/Source/gd32e23x_rtc.c **** 
 473              		.loc 1 135 35 view .LVU132
 474 0078 6189     		ldrh	r1, [r4, #10]
 475 007a 47F6FF72 		movw	r2, #32767
 476 007e 0A40     		ands	r2, r1
 134:Drivers/GD32E23x_standard_peripheral/Source/gd32e23x_rtc.c ****                                   PSC_FACTOR_S(rtc_initpara_struct->rtc_factor_syn));
 477              		.loc 1 134 19 view .LVU133
 478 0080 1343     		orrs	r3, r2
 134:Drivers/GD32E23x_standard_peripheral/Source/gd32e23x_rtc.c ****                                   PSC_FACTOR_S(rtc_initpara_struct->rtc_factor_syn));
 479              		.loc 1 134 17 view .LVU134
 480 0082 42F61002 		movw	r2, #10256
 481 0086 C4F20002 		movt	r2, 16384
 482 008a 1360     		str	r3, [r2]
 137:Drivers/GD32E23x_standard_peripheral/Source/gd32e23x_rtc.c ****         RTC_DATE = (uint32_t)reg_date;
 483              		.loc 1 137 9 is_stmt 1 view .LVU135
 137:Drivers/GD32E23x_standard_peripheral/Source/gd32e23x_rtc.c ****         RTC_DATE = (uint32_t)reg_date;
 484              		.loc 1 137 18 is_stmt 0 view .LVU136
 485 008c 42F60003 		movw	r3, #10240
 486 0090 C4F20003 		movt	r3, 16384
 487 0094 1E60     		str	r6, [r3]
 138:Drivers/GD32E23x_standard_peripheral/Source/gd32e23x_rtc.c **** 
 488              		.loc 1 138 9 is_stmt 1 view .LVU137
 138:Drivers/GD32E23x_standard_peripheral/Source/gd32e23x_rtc.c **** 
 489              		.loc 1 138 18 is_stmt 0 view .LVU138
ARM GAS  /var/folders/rv/zq8s_02j1dj4vjvr1mm5zl2r0000gn/T//cczf42zg.s 			page 15


 490 0096 42F60403 		movw	r3, #10244
 491 009a C4F20003 		movt	r3, 16384
 492 009e 1D60     		str	r5, [r3]
 140:Drivers/GD32E23x_standard_peripheral/Source/gd32e23x_rtc.c ****         RTC_CTL |=  rtc_initpara_struct->rtc_display_format;
 493              		.loc 1 140 9 is_stmt 1 view .LVU139
 140:Drivers/GD32E23x_standard_peripheral/Source/gd32e23x_rtc.c ****         RTC_CTL |=  rtc_initpara_struct->rtc_display_format;
 494              		.loc 1 140 17 is_stmt 0 view .LVU140
 495 00a0 42F60803 		movw	r3, #10248
 496 00a4 C4F20003 		movt	r3, 16384
 497 00a8 1A68     		ldr	r2, [r3]
 498 00aa 4021     		movs	r1, #64
 499 00ac 8A43     		bics	r2, r1
 500 00ae 1A60     		str	r2, [r3]
 141:Drivers/GD32E23x_standard_peripheral/Source/gd32e23x_rtc.c ****         
 501              		.loc 1 141 9 is_stmt 1 view .LVU141
 141:Drivers/GD32E23x_standard_peripheral/Source/gd32e23x_rtc.c ****         
 502              		.loc 1 141 17 is_stmt 0 view .LVU142
 503 00b0 1A68     		ldr	r2, [r3]
 141:Drivers/GD32E23x_standard_peripheral/Source/gd32e23x_rtc.c ****         
 504              		.loc 1 141 40 view .LVU143
 505 00b2 2169     		ldr	r1, [r4, #16]
 141:Drivers/GD32E23x_standard_peripheral/Source/gd32e23x_rtc.c ****         
 506              		.loc 1 141 17 view .LVU144
 507 00b4 0A43     		orrs	r2, r1
 508 00b6 1A60     		str	r2, [r3]
 144:Drivers/GD32E23x_standard_peripheral/Source/gd32e23x_rtc.c ****         
 509              		.loc 1 144 9 is_stmt 1 view .LVU145
 510 00b8 FFF7FEFF 		bl	rtc_init_mode_exit
 511              	.LVL29:
 147:Drivers/GD32E23x_standard_peripheral/Source/gd32e23x_rtc.c ****     }
 512              		.loc 1 147 9 view .LVU146
 147:Drivers/GD32E23x_standard_peripheral/Source/gd32e23x_rtc.c ****     }
 513              		.loc 1 147 24 is_stmt 0 view .LVU147
 514 00bc FFF7FEFF 		bl	rtc_register_sync_wait
 515              	.LVL30:
 147:Drivers/GD32E23x_standard_peripheral/Source/gd32e23x_rtc.c ****     }
 516              		.loc 1 147 24 view .LVU148
 517 00c0 CEE7     		b	.L19
 518              		.cfi_endproc
 519              	.LFE67:
 521              		.section	.text.rtc_current_time_get,"ax",%progbits
 522              		.align	1
 523              		.global	rtc_current_time_get
 524              		.syntax unified
 525              		.code	16
 526              		.thumb_func
 527              		.fpu softvfp
 529              	rtc_current_time_get:
 530              	.LVL31:
 531              	.LFB71:
 235:Drivers/GD32E23x_standard_peripheral/Source/gd32e23x_rtc.c **** 
 236:Drivers/GD32E23x_standard_peripheral/Source/gd32e23x_rtc.c **** /*!
 237:Drivers/GD32E23x_standard_peripheral/Source/gd32e23x_rtc.c ****     \brief      get current time and date
 238:Drivers/GD32E23x_standard_peripheral/Source/gd32e23x_rtc.c ****     \param[in]  none
 239:Drivers/GD32E23x_standard_peripheral/Source/gd32e23x_rtc.c ****     \param[out] rtc_initpara_struct: pointer to a rtc_parameter_struct structure which contains 
 240:Drivers/GD32E23x_standard_peripheral/Source/gd32e23x_rtc.c ****                 parameters for initialization of the rtc peripheral
 241:Drivers/GD32E23x_standard_peripheral/Source/gd32e23x_rtc.c ****                 members of the structure and the member values are shown as below:
ARM GAS  /var/folders/rv/zq8s_02j1dj4vjvr1mm5zl2r0000gn/T//cczf42zg.s 			page 16


 242:Drivers/GD32E23x_standard_peripheral/Source/gd32e23x_rtc.c ****                   rtc_year: 0x0 - 0x99(BCD format)
 243:Drivers/GD32E23x_standard_peripheral/Source/gd32e23x_rtc.c ****                   rtc_month: RTC_JAN, RTC_FEB, RTC_MAR, RTC_APR, RTC_MAY, RTC_JUN,
 244:Drivers/GD32E23x_standard_peripheral/Source/gd32e23x_rtc.c ****                              RTC_JUL, RTC_AUG, RTC_SEP, RTC_OCT, RTC_NOV, RTC_DEC
 245:Drivers/GD32E23x_standard_peripheral/Source/gd32e23x_rtc.c ****                   rtc_date: 0x1 - 0x31(BCD format)
 246:Drivers/GD32E23x_standard_peripheral/Source/gd32e23x_rtc.c ****                   rtc_day_of_week: RTC_MONDAY, RTC_TUESDAY, RTC_WEDSDAY, RTC_THURSDAY
 247:Drivers/GD32E23x_standard_peripheral/Source/gd32e23x_rtc.c ****                                    RTC_FRIDAY, RTC_SATURDAY, RTC_SUNDAY
 248:Drivers/GD32E23x_standard_peripheral/Source/gd32e23x_rtc.c ****                   rtc_hour: 0x0 - 0x12(BCD format) or 0x0 - 0x23(BCD format) depending on the rtc_d
 249:Drivers/GD32E23x_standard_peripheral/Source/gd32e23x_rtc.c ****                   rtc_minute: 0x0 - 0x59(BCD format)
 250:Drivers/GD32E23x_standard_peripheral/Source/gd32e23x_rtc.c ****                   rtc_second: 0x0 - 0x59(BCD format)
 251:Drivers/GD32E23x_standard_peripheral/Source/gd32e23x_rtc.c ****                   rtc_factor_asyn: 0x0 - 0x7F
 252:Drivers/GD32E23x_standard_peripheral/Source/gd32e23x_rtc.c ****                   rtc_factor_syn: 0x0 - 0x7FFF
 253:Drivers/GD32E23x_standard_peripheral/Source/gd32e23x_rtc.c ****                   rtc_am_pm: RTC_AM, RTC_PM
 254:Drivers/GD32E23x_standard_peripheral/Source/gd32e23x_rtc.c ****                   rtc_display_format: RTC_24HOUR, RTC_12HOUR
 255:Drivers/GD32E23x_standard_peripheral/Source/gd32e23x_rtc.c ****     \retval     none
 256:Drivers/GD32E23x_standard_peripheral/Source/gd32e23x_rtc.c **** */
 257:Drivers/GD32E23x_standard_peripheral/Source/gd32e23x_rtc.c **** void rtc_current_time_get(rtc_parameter_struct* rtc_initpara_struct)
 258:Drivers/GD32E23x_standard_peripheral/Source/gd32e23x_rtc.c **** {
 532              		.loc 1 258 1 is_stmt 1 view -0
 533              		.cfi_startproc
 534              		@ args = 0, pretend = 0, frame = 0
 535              		@ frame_needed = 0, uses_anonymous_args = 0
 536              		.loc 1 258 1 is_stmt 0 view .LVU150
 537 0000 70B5     		push	{r4, r5, r6, lr}
 538              	.LCFI3:
 539              		.cfi_def_cfa_offset 16
 540              		.cfi_offset 4, -16
 541              		.cfi_offset 5, -12
 542              		.cfi_offset 6, -8
 543              		.cfi_offset 14, -4
 259:Drivers/GD32E23x_standard_peripheral/Source/gd32e23x_rtc.c ****     uint32_t temp_tr = 0x00U, temp_dr = 0x00U, temp_pscr = 0x00U, temp_ctlr = 0x00U;
 544              		.loc 1 259 5 is_stmt 1 view .LVU151
 545              	.LVL32:
 260:Drivers/GD32E23x_standard_peripheral/Source/gd32e23x_rtc.c **** 
 261:Drivers/GD32E23x_standard_peripheral/Source/gd32e23x_rtc.c ****     temp_tr = (uint32_t)RTC_TIME;   
 546              		.loc 1 261 5 view .LVU152
 547              		.loc 1 261 13 is_stmt 0 view .LVU153
 548 0002 42F60003 		movw	r3, #10240
 549 0006 C4F20003 		movt	r3, 16384
 550 000a 1D68     		ldr	r5, [r3]
 551              	.LVL33:
 262:Drivers/GD32E23x_standard_peripheral/Source/gd32e23x_rtc.c ****     temp_dr = (uint32_t)RTC_DATE;
 552              		.loc 1 262 5 is_stmt 1 view .LVU154
 553              		.loc 1 262 13 is_stmt 0 view .LVU155
 554 000c 42F60403 		movw	r3, #10244
 555 0010 C4F20003 		movt	r3, 16384
 556 0014 1B68     		ldr	r3, [r3]
 557              	.LVL34:
 263:Drivers/GD32E23x_standard_peripheral/Source/gd32e23x_rtc.c ****     temp_pscr = (uint32_t)RTC_PSC;
 558              		.loc 1 263 5 is_stmt 1 view .LVU156
 559              		.loc 1 263 15 is_stmt 0 view .LVU157
 560 0016 42F61002 		movw	r2, #10256
 561 001a C4F20002 		movt	r2, 16384
 562 001e 1268     		ldr	r2, [r2]
 563              	.LVL35:
 264:Drivers/GD32E23x_standard_peripheral/Source/gd32e23x_rtc.c ****     temp_ctlr = (uint32_t)RTC_CTL;
 564              		.loc 1 264 5 is_stmt 1 view .LVU158
 565              		.loc 1 264 15 is_stmt 0 view .LVU159
ARM GAS  /var/folders/rv/zq8s_02j1dj4vjvr1mm5zl2r0000gn/T//cczf42zg.s 			page 17


 566 0020 42F60801 		movw	r1, #10248
 567 0024 C4F20001 		movt	r1, 16384
 568 0028 0C68     		ldr	r4, [r1]
 569              	.LVL36:
 265:Drivers/GD32E23x_standard_peripheral/Source/gd32e23x_rtc.c ****   
 266:Drivers/GD32E23x_standard_peripheral/Source/gd32e23x_rtc.c ****     /* get current time and construct rtc_parameter_struct structure */
 267:Drivers/GD32E23x_standard_peripheral/Source/gd32e23x_rtc.c ****     rtc_initpara_struct->rtc_year = (uint8_t)GET_DATE_YR(temp_dr);
 570              		.loc 1 267 5 is_stmt 1 view .LVU160
 571              		.loc 1 267 46 is_stmt 0 view .LVU161
 572 002a 190C     		lsrs	r1, r3, #16
 573              		.loc 1 267 35 view .LVU162
 574 002c 0170     		strb	r1, [r0]
 268:Drivers/GD32E23x_standard_peripheral/Source/gd32e23x_rtc.c ****     rtc_initpara_struct->rtc_month = (uint8_t)GET_DATE_MON(temp_dr);
 575              		.loc 1 268 5 is_stmt 1 view .LVU163
 576              		.loc 1 268 47 is_stmt 0 view .LVU164
 577 002e 1E0A     		lsrs	r6, r3, #8
 578              		.loc 1 268 38 view .LVU165
 579 0030 1F21     		movs	r1, #31
 580 0032 3140     		ands	r1, r6
 581              		.loc 1 268 36 view .LVU166
 582 0034 4170     		strb	r1, [r0, #1]
 269:Drivers/GD32E23x_standard_peripheral/Source/gd32e23x_rtc.c ****     rtc_initpara_struct->rtc_date = (uint8_t)GET_DATE_DAY(temp_dr);
 583              		.loc 1 269 5 is_stmt 1 view .LVU167
 584              		.loc 1 269 37 is_stmt 0 view .LVU168
 585 0036 3F21     		movs	r1, #63
 586 0038 0E00     		movs	r6, r1
 587 003a 1E40     		ands	r6, r3
 588              		.loc 1 269 35 view .LVU169
 589 003c 8670     		strb	r6, [r0, #2]
 270:Drivers/GD32E23x_standard_peripheral/Source/gd32e23x_rtc.c ****     rtc_initpara_struct->rtc_day_of_week = (uint8_t)GET_DATE_DOW(temp_dr);  
 590              		.loc 1 270 5 is_stmt 1 view .LVU170
 591              		.loc 1 270 53 is_stmt 0 view .LVU171
 592 003e 5B0B     		lsrs	r3, r3, #13
 593              	.LVL37:
 594              		.loc 1 270 44 view .LVU172
 595 0040 0726     		movs	r6, #7
 596 0042 3340     		ands	r3, r6
 597              		.loc 1 270 42 view .LVU173
 598 0044 C370     		strb	r3, [r0, #3]
 271:Drivers/GD32E23x_standard_peripheral/Source/gd32e23x_rtc.c ****     rtc_initpara_struct->rtc_hour = (uint8_t)GET_TIME_HR(temp_tr);
 599              		.loc 1 271 5 is_stmt 1 view .LVU174
 600              		.loc 1 271 46 is_stmt 0 view .LVU175
 601 0046 2B0C     		lsrs	r3, r5, #16
 602              		.loc 1 271 37 view .LVU176
 603 0048 1940     		ands	r1, r3
 604              		.loc 1 271 35 view .LVU177
 605 004a 0171     		strb	r1, [r0, #4]
 272:Drivers/GD32E23x_standard_peripheral/Source/gd32e23x_rtc.c ****     rtc_initpara_struct->rtc_minute = (uint8_t)GET_TIME_MN(temp_tr);
 606              		.loc 1 272 5 is_stmt 1 view .LVU178
 607              		.loc 1 272 48 is_stmt 0 view .LVU179
 608 004c 290A     		lsrs	r1, r5, #8
 609              		.loc 1 272 39 view .LVU180
 610 004e 7F23     		movs	r3, #127
 611 0050 1940     		ands	r1, r3
 612              		.loc 1 272 37 view .LVU181
 613 0052 4171     		strb	r1, [r0, #5]
 273:Drivers/GD32E23x_standard_peripheral/Source/gd32e23x_rtc.c ****     rtc_initpara_struct->rtc_second = (uint8_t)GET_TIME_SC(temp_tr);
ARM GAS  /var/folders/rv/zq8s_02j1dj4vjvr1mm5zl2r0000gn/T//cczf42zg.s 			page 18


 614              		.loc 1 273 5 is_stmt 1 view .LVU182
 615              		.loc 1 273 39 is_stmt 0 view .LVU183
 616 0054 2B40     		ands	r3, r5
 617              		.loc 1 273 37 view .LVU184
 618 0056 8371     		strb	r3, [r0, #6]
 274:Drivers/GD32E23x_standard_peripheral/Source/gd32e23x_rtc.c ****     rtc_initpara_struct->rtc_factor_asyn = (uint16_t)GET_PSC_FACTOR_A(temp_pscr);
 619              		.loc 1 274 5 is_stmt 1 view .LVU185
 620              		.loc 1 274 54 is_stmt 0 view .LVU186
 621 0058 110C     		lsrs	r1, r2, #16
 622              		.loc 1 274 44 view .LVU187
 623 005a 7F23     		movs	r3, #127
 624 005c 0B40     		ands	r3, r1
 625              		.loc 1 274 42 view .LVU188
 626 005e 0381     		strh	r3, [r0, #8]
 275:Drivers/GD32E23x_standard_peripheral/Source/gd32e23x_rtc.c ****     rtc_initpara_struct->rtc_factor_syn = (uint16_t)GET_PSC_FACTOR_S(temp_pscr);
 627              		.loc 1 275 5 is_stmt 1 view .LVU189
 628              		.loc 1 275 43 is_stmt 0 view .LVU190
 629 0060 47F6FF71 		movw	r1, #32767
 630 0064 1140     		ands	r1, r2
 631              		.loc 1 275 41 view .LVU191
 632 0066 4181     		strh	r1, [r0, #10]
 276:Drivers/GD32E23x_standard_peripheral/Source/gd32e23x_rtc.c ****     rtc_initpara_struct->rtc_am_pm = (uint32_t)(temp_pscr & RTC_TIME_PM); 
 633              		.loc 1 276 5 is_stmt 1 view .LVU192
 634              		.loc 1 276 38 is_stmt 0 view .LVU193
 635 0068 8023     		movs	r3, #128
 636 006a DB03     		lsls	r3, r3, #15
 637 006c 1A40     		ands	r2, r3
 638              	.LVL38:
 639              		.loc 1 276 36 view .LVU194
 640 006e C260     		str	r2, [r0, #12]
 277:Drivers/GD32E23x_standard_peripheral/Source/gd32e23x_rtc.c ****     rtc_initpara_struct->rtc_display_format = (uint32_t)(temp_ctlr & RTC_CTL_CS);
 641              		.loc 1 277 5 is_stmt 1 view .LVU195
 642              		.loc 1 277 47 is_stmt 0 view .LVU196
 643 0070 4023     		movs	r3, #64
 644 0072 2340     		ands	r3, r4
 645              		.loc 1 277 45 view .LVU197
 646 0074 0361     		str	r3, [r0, #16]
 278:Drivers/GD32E23x_standard_peripheral/Source/gd32e23x_rtc.c **** }
 647              		.loc 1 278 1 view .LVU198
 648              		@ sp needed
 649              	.LVL39:
 650              	.LVL40:
 651              		.loc 1 278 1 view .LVU199
 652 0076 70BD     		pop	{r4, r5, r6, pc}
 653              		.cfi_endproc
 654              	.LFE71:
 656              		.section	.text.rtc_subsecond_get,"ax",%progbits
 657              		.align	1
 658              		.global	rtc_subsecond_get
 659              		.syntax unified
 660              		.code	16
 661              		.thumb_func
 662              		.fpu softvfp
 664              	rtc_subsecond_get:
 665              	.LFB72:
 279:Drivers/GD32E23x_standard_peripheral/Source/gd32e23x_rtc.c **** 
 280:Drivers/GD32E23x_standard_peripheral/Source/gd32e23x_rtc.c **** /*!
ARM GAS  /var/folders/rv/zq8s_02j1dj4vjvr1mm5zl2r0000gn/T//cczf42zg.s 			page 19


 281:Drivers/GD32E23x_standard_peripheral/Source/gd32e23x_rtc.c ****     \brief      get current subsecond value
 282:Drivers/GD32E23x_standard_peripheral/Source/gd32e23x_rtc.c ****     \param[in]  none
 283:Drivers/GD32E23x_standard_peripheral/Source/gd32e23x_rtc.c ****     \param[out] none
 284:Drivers/GD32E23x_standard_peripheral/Source/gd32e23x_rtc.c ****     \retval     current subsecond value
 285:Drivers/GD32E23x_standard_peripheral/Source/gd32e23x_rtc.c **** */
 286:Drivers/GD32E23x_standard_peripheral/Source/gd32e23x_rtc.c **** uint32_t rtc_subsecond_get(void)
 287:Drivers/GD32E23x_standard_peripheral/Source/gd32e23x_rtc.c **** {
 666              		.loc 1 287 1 is_stmt 1 view -0
 667              		.cfi_startproc
 668              		@ args = 0, pretend = 0, frame = 0
 669              		@ frame_needed = 0, uses_anonymous_args = 0
 670              		@ link register save eliminated.
 288:Drivers/GD32E23x_standard_peripheral/Source/gd32e23x_rtc.c ****     uint32_t reg = 0x00U;
 671              		.loc 1 288 5 view .LVU201
 672              	.LVL41:
 289:Drivers/GD32E23x_standard_peripheral/Source/gd32e23x_rtc.c ****     /* if BPSHAD bit is reset, reading RTC_SS will lock RTC_TIME and RTC_DATE automatically */
 290:Drivers/GD32E23x_standard_peripheral/Source/gd32e23x_rtc.c ****     reg = (uint32_t)RTC_SS;
 673              		.loc 1 290 5 view .LVU202
 674              		.loc 1 290 9 is_stmt 0 view .LVU203
 675 0000 42F62803 		movw	r3, #10280
 676 0004 C4F20003 		movt	r3, 16384
 677 0008 1868     		ldr	r0, [r3]
 678              	.LVL42:
 291:Drivers/GD32E23x_standard_peripheral/Source/gd32e23x_rtc.c ****     /* read RTC_DATE to unlock the 3 shadow registers */
 292:Drivers/GD32E23x_standard_peripheral/Source/gd32e23x_rtc.c ****     (void) (RTC_DATE);
 679              		.loc 1 292 5 is_stmt 1 view .LVU204
 680 000a 42F60403 		movw	r3, #10244
 681 000e C4F20003 		movt	r3, 16384
 682 0012 1B68     		ldr	r3, [r3]
 293:Drivers/GD32E23x_standard_peripheral/Source/gd32e23x_rtc.c **** 
 294:Drivers/GD32E23x_standard_peripheral/Source/gd32e23x_rtc.c ****     return reg;
 683              		.loc 1 294 5 view .LVU205
 295:Drivers/GD32E23x_standard_peripheral/Source/gd32e23x_rtc.c **** }
 684              		.loc 1 295 1 is_stmt 0 view .LVU206
 685              		@ sp needed
 686 0014 7047     		bx	lr
 687              		.cfi_endproc
 688              	.LFE72:
 690              		.section	.text.rtc_alarm_config,"ax",%progbits
 691              		.align	1
 692              		.global	rtc_alarm_config
 693              		.syntax unified
 694              		.code	16
 695              		.thumb_func
 696              		.fpu softvfp
 698              	rtc_alarm_config:
 699              	.LVL43:
 700              	.LFB73:
 296:Drivers/GD32E23x_standard_peripheral/Source/gd32e23x_rtc.c **** 
 297:Drivers/GD32E23x_standard_peripheral/Source/gd32e23x_rtc.c **** /*!
 298:Drivers/GD32E23x_standard_peripheral/Source/gd32e23x_rtc.c ****     \brief      configure RTC alarm
 299:Drivers/GD32E23x_standard_peripheral/Source/gd32e23x_rtc.c ****     \param[in]  rtc_alarm_time: pointer to a rtc_alarm_struct structure which contains 
 300:Drivers/GD32E23x_standard_peripheral/Source/gd32e23x_rtc.c ****                 parameters for RTC alarm configuration
 301:Drivers/GD32E23x_standard_peripheral/Source/gd32e23x_rtc.c ****                 members of the structure and the member values are shown as below:
 302:Drivers/GD32E23x_standard_peripheral/Source/gd32e23x_rtc.c ****                   rtc_alarm_mask: RTC_ALARM_NONE_MASK, RTC_ALARM_DATE_MASK, RTC_ALARM_HOUR_MASK
 303:Drivers/GD32E23x_standard_peripheral/Source/gd32e23x_rtc.c ****                                   RTC_ALARM_MINUTE_MASK, RTC_ALARM_SECOND_MASK, RTC_ALARM_ALL_MASK
 304:Drivers/GD32E23x_standard_peripheral/Source/gd32e23x_rtc.c ****                   rtc_weekday_or_date: RTC_ALARM_DATE_SELECTED, RTC_ALARM_WEEKDAY_SELECTED
ARM GAS  /var/folders/rv/zq8s_02j1dj4vjvr1mm5zl2r0000gn/T//cczf42zg.s 			page 20


 305:Drivers/GD32E23x_standard_peripheral/Source/gd32e23x_rtc.c ****                   rtc_alarm_day: 1) 0x1 - 0x31(BCD format) if RTC_ALARM_DATE_SELECTED is set
 306:Drivers/GD32E23x_standard_peripheral/Source/gd32e23x_rtc.c ****                                  2) RTC_MONDAY, RTC_TUESDAY, RTC_WEDSDAY, RTC_THURSDAY, RTC_FRIDAY,
 307:Drivers/GD32E23x_standard_peripheral/Source/gd32e23x_rtc.c ****                                     RTC_SATURDAY, RTC_SUNDAY if RTC_ALARM_WEEKDAY_SELECTED is set
 308:Drivers/GD32E23x_standard_peripheral/Source/gd32e23x_rtc.c ****                   rtc_alarm_hour: 0x0 - 0x12(BCD format) or 0x0 - 0x23(BCD format) depending on the
 309:Drivers/GD32E23x_standard_peripheral/Source/gd32e23x_rtc.c ****                   rtc_alarm_minute: 0x0 - 0x59(BCD format)
 310:Drivers/GD32E23x_standard_peripheral/Source/gd32e23x_rtc.c ****                   rtc_alarm_second: 0x0 - 0x59(BCD format)
 311:Drivers/GD32E23x_standard_peripheral/Source/gd32e23x_rtc.c ****                   rtc_am_pm: RTC_AM, RTC_PM
 312:Drivers/GD32E23x_standard_peripheral/Source/gd32e23x_rtc.c ****     \param[out] none
 313:Drivers/GD32E23x_standard_peripheral/Source/gd32e23x_rtc.c ****     \retval     none
 314:Drivers/GD32E23x_standard_peripheral/Source/gd32e23x_rtc.c **** */
 315:Drivers/GD32E23x_standard_peripheral/Source/gd32e23x_rtc.c **** void rtc_alarm_config(rtc_alarm_struct* rtc_alarm_time)
 316:Drivers/GD32E23x_standard_peripheral/Source/gd32e23x_rtc.c **** {
 701              		.loc 1 316 1 is_stmt 1 view -0
 702              		.cfi_startproc
 703              		@ args = 0, pretend = 0, frame = 0
 704              		@ frame_needed = 0, uses_anonymous_args = 0
 705              		@ link register save eliminated.
 317:Drivers/GD32E23x_standard_peripheral/Source/gd32e23x_rtc.c ****     uint32_t reg_alrm0td = 0x00U;
 706              		.loc 1 317 5 view .LVU208
 318:Drivers/GD32E23x_standard_peripheral/Source/gd32e23x_rtc.c **** 
 319:Drivers/GD32E23x_standard_peripheral/Source/gd32e23x_rtc.c ****     reg_alrm0td = (rtc_alarm_time->rtc_alarm_mask | \
 707              		.loc 1 319 5 view .LVU209
 708              		.loc 1 319 51 is_stmt 0 view .LVU210
 709 0000 0368     		ldr	r3, [r0]
 710 0002 4268     		ldr	r2, [r0, #4]
 711 0004 1343     		orrs	r3, r2
 320:Drivers/GD32E23x_standard_peripheral/Source/gd32e23x_rtc.c ****                  rtc_alarm_time->rtc_weekday_or_date | \
 712              		.loc 1 320 54 view .LVU211
 713 0006 C268     		ldr	r2, [r0, #12]
 714 0008 1343     		orrs	r3, r2
 321:Drivers/GD32E23x_standard_peripheral/Source/gd32e23x_rtc.c ****                  rtc_alarm_time->rtc_am_pm | \
 322:Drivers/GD32E23x_standard_peripheral/Source/gd32e23x_rtc.c ****                  ALRM0TD_DAY(rtc_alarm_time->rtc_alarm_day) | \
 715              		.loc 1 322 18 view .LVU212
 716 000a 027A     		ldrb	r2, [r0, #8]
 717 000c 1206     		lsls	r2, r2, #24
 718 000e FC21     		movs	r1, #252
 719 0010 8905     		lsls	r1, r1, #22
 720 0012 0A40     		ands	r2, r1
 321:Drivers/GD32E23x_standard_peripheral/Source/gd32e23x_rtc.c ****                  rtc_alarm_time->rtc_am_pm | \
 721              		.loc 1 321 44 view .LVU213
 722 0014 1343     		orrs	r3, r2
 323:Drivers/GD32E23x_standard_peripheral/Source/gd32e23x_rtc.c ****                  ALRM0TD_HR(rtc_alarm_time->rtc_alarm_hour) | \
 723              		.loc 1 323 18 view .LVU214
 724 0016 427A     		ldrb	r2, [r0, #9]
 725 0018 1204     		lsls	r2, r2, #16
 726 001a FC21     		movs	r1, #252
 727 001c 8903     		lsls	r1, r1, #14
 728 001e 0A40     		ands	r2, r1
 322:Drivers/GD32E23x_standard_peripheral/Source/gd32e23x_rtc.c ****                  ALRM0TD_HR(rtc_alarm_time->rtc_alarm_hour) | \
 729              		.loc 1 322 61 view .LVU215
 730 0020 1343     		orrs	r3, r2
 324:Drivers/GD32E23x_standard_peripheral/Source/gd32e23x_rtc.c ****                  ALRM0TD_MN(rtc_alarm_time->rtc_alarm_minute) | \
 731              		.loc 1 324 18 view .LVU216
 732 0022 817A     		ldrb	r1, [r0, #10]
 733 0024 0902     		lsls	r1, r1, #8
 734 0026 47F60072 		movw	r2, #32512
 735 002a 0A40     		ands	r2, r1
ARM GAS  /var/folders/rv/zq8s_02j1dj4vjvr1mm5zl2r0000gn/T//cczf42zg.s 			page 21


 323:Drivers/GD32E23x_standard_peripheral/Source/gd32e23x_rtc.c ****                  ALRM0TD_HR(rtc_alarm_time->rtc_alarm_hour) | \
 736              		.loc 1 323 61 view .LVU217
 737 002c 1343     		orrs	r3, r2
 325:Drivers/GD32E23x_standard_peripheral/Source/gd32e23x_rtc.c ****                  ALRM0TD_SC(rtc_alarm_time->rtc_alarm_second));
 738              		.loc 1 325 18 view .LVU218
 739 002e C17A     		ldrb	r1, [r0, #11]
 740 0030 7F22     		movs	r2, #127
 741 0032 0A40     		ands	r2, r1
 319:Drivers/GD32E23x_standard_peripheral/Source/gd32e23x_rtc.c ****                  rtc_alarm_time->rtc_weekday_or_date | \
 742              		.loc 1 319 17 view .LVU219
 743 0034 1343     		orrs	r3, r2
 744              	.LVL44:
 326:Drivers/GD32E23x_standard_peripheral/Source/gd32e23x_rtc.c **** 
 327:Drivers/GD32E23x_standard_peripheral/Source/gd32e23x_rtc.c ****     /* disable the write protection */
 328:Drivers/GD32E23x_standard_peripheral/Source/gd32e23x_rtc.c ****     RTC_WPK = RTC_UNLOCK_KEY1;
 745              		.loc 1 328 5 is_stmt 1 view .LVU220
 746              		.loc 1 328 13 is_stmt 0 view .LVU221
 747 0036 42F62402 		movw	r2, #10276
 748 003a C4F20002 		movt	r2, 16384
 749 003e CA21     		movs	r1, #202
 750 0040 1160     		str	r1, [r2]
 329:Drivers/GD32E23x_standard_peripheral/Source/gd32e23x_rtc.c ****     RTC_WPK = RTC_UNLOCK_KEY2;
 751              		.loc 1 329 5 is_stmt 1 view .LVU222
 752              		.loc 1 329 13 is_stmt 0 view .LVU223
 753 0042 7739     		subs	r1, r1, #119
 754 0044 1160     		str	r1, [r2]
 330:Drivers/GD32E23x_standard_peripheral/Source/gd32e23x_rtc.c **** 
 331:Drivers/GD32E23x_standard_peripheral/Source/gd32e23x_rtc.c ****     RTC_ALRM0TD = (uint32_t)reg_alrm0td;
 755              		.loc 1 331 5 is_stmt 1 view .LVU224
 756              		.loc 1 331 17 is_stmt 0 view .LVU225
 757 0046 42F61C01 		movw	r1, #10268
 758 004a C4F20001 		movt	r1, 16384
 759 004e 0B60     		str	r3, [r1]
 332:Drivers/GD32E23x_standard_peripheral/Source/gd32e23x_rtc.c **** 
 333:Drivers/GD32E23x_standard_peripheral/Source/gd32e23x_rtc.c ****     /* enable the write protection */
 334:Drivers/GD32E23x_standard_peripheral/Source/gd32e23x_rtc.c ****     RTC_WPK = RTC_LOCK_KEY;
 760              		.loc 1 334 5 is_stmt 1 view .LVU226
 761              		.loc 1 334 13 is_stmt 0 view .LVU227
 762 0050 FF23     		movs	r3, #255
 763              	.LVL45:
 764              		.loc 1 334 13 view .LVU228
 765 0052 1360     		str	r3, [r2]
 766              	.LVL46:
 335:Drivers/GD32E23x_standard_peripheral/Source/gd32e23x_rtc.c **** }
 767              		.loc 1 335 1 view .LVU229
 768              		@ sp needed
 769 0054 7047     		bx	lr
 770              		.cfi_endproc
 771              	.LFE73:
 773              		.section	.text.rtc_alarm_subsecond_config,"ax",%progbits
 774              		.align	1
 775              		.global	rtc_alarm_subsecond_config
 776              		.syntax unified
 777              		.code	16
 778              		.thumb_func
 779              		.fpu softvfp
 781              	rtc_alarm_subsecond_config:
ARM GAS  /var/folders/rv/zq8s_02j1dj4vjvr1mm5zl2r0000gn/T//cczf42zg.s 			page 22


 782              	.LVL47:
 783              	.LFB74:
 336:Drivers/GD32E23x_standard_peripheral/Source/gd32e23x_rtc.c **** 
 337:Drivers/GD32E23x_standard_peripheral/Source/gd32e23x_rtc.c **** /*!
 338:Drivers/GD32E23x_standard_peripheral/Source/gd32e23x_rtc.c ****     \brief      configure subsecond of RTC alarm
 339:Drivers/GD32E23x_standard_peripheral/Source/gd32e23x_rtc.c ****     \param[in]  mask_subsecond: alarm subsecond mask
 340:Drivers/GD32E23x_standard_peripheral/Source/gd32e23x_rtc.c ****                 only one parameter can be selected which is shown as below:
 341:Drivers/GD32E23x_standard_peripheral/Source/gd32e23x_rtc.c ****       \arg        RTC_MASKSSC_0_14: mask alarm subsecond configuration
 342:Drivers/GD32E23x_standard_peripheral/Source/gd32e23x_rtc.c ****       \arg        RTC_MASKSSC_1_14: mask RTC_ALRM0SS_SSC[14:1], and RTC_ALRM0SS_SSC[0] is to be com
 343:Drivers/GD32E23x_standard_peripheral/Source/gd32e23x_rtc.c ****       \arg        RTC_MASKSSC_2_14: mask RTC_ALRM0SS_SSC[14:2], and RTC_ALRM0SS_SSC[1:0] is to be c
 344:Drivers/GD32E23x_standard_peripheral/Source/gd32e23x_rtc.c ****       \arg        RTC_MASKSSC_3_14: mask RTC_ALRM0SS_SSC[14:3], and RTC_ALRM0SS_SSC[2:0] is to be c
 345:Drivers/GD32E23x_standard_peripheral/Source/gd32e23x_rtc.c ****       \arg        RTC_MASKSSC_4_14: mask RTC_ALRM0SS_SSC[14:4], and RTC_ALRM0SS_SSC[3:0] is to be c
 346:Drivers/GD32E23x_standard_peripheral/Source/gd32e23x_rtc.c ****       \arg        RTC_MASKSSC_5_14: mask RTC_ALRM0SS_SSC[14:5], and RTC_ALRM0SS_SSC[4:0] is to be c
 347:Drivers/GD32E23x_standard_peripheral/Source/gd32e23x_rtc.c ****       \arg        RTC_MASKSSC_6_14: mask RTC_ALRM0SS_SSC[14:6], and RTC_ALRM0SS_SSC[5:0] is to be c
 348:Drivers/GD32E23x_standard_peripheral/Source/gd32e23x_rtc.c ****       \arg        RTC_MASKSSC_7_14: mask RTC_ALRM0SS_SSC[14:7], and RTC_ALRM0SS_SSC[6:0] is to be c
 349:Drivers/GD32E23x_standard_peripheral/Source/gd32e23x_rtc.c ****       \arg        RTC_MASKSSC_8_14: mask RTC_ALRM0SS_SSC[14:8], and RTC_ALRM0SS_SSC[7:0] is to be c
 350:Drivers/GD32E23x_standard_peripheral/Source/gd32e23x_rtc.c ****       \arg        RTC_MASKSSC_9_14: mask RTC_ALRM0SS_SSC[14:9], and RTC_ALRM0SS_SSC[8:0] is to be c
 351:Drivers/GD32E23x_standard_peripheral/Source/gd32e23x_rtc.c ****       \arg        RTC_MASKSSC_10_14: mask RTC_ALRM0SS_SSC[14:10], and RTC_ALRM0SS_SSC[9:0] is to be
 352:Drivers/GD32E23x_standard_peripheral/Source/gd32e23x_rtc.c ****       \arg        RTC_MASKSSC_11_14: mask RTC_ALRM0SS_SSC[14:11], and RTC_ALRM0SS_SSC[10:0] is to b
 353:Drivers/GD32E23x_standard_peripheral/Source/gd32e23x_rtc.c ****       \arg        RTC_MASKSSC_12_14: mask RTC_ALRM0SS_SSC[14:12], and RTC_ALRM0SS_SSC[11:0] is to b
 354:Drivers/GD32E23x_standard_peripheral/Source/gd32e23x_rtc.c ****       \arg        RTC_MASKSSC_13_14: mask RTC_ALRM0SS_SSC[14:13], and RTC_ALRM0SS_SSC[12:0] is to b
 355:Drivers/GD32E23x_standard_peripheral/Source/gd32e23x_rtc.c ****       \arg        RTC_MASKSSC_14: mask RTC_ALRM0SS_SSC[14], and RTC_ALRM0SS_SSC[13:0] is to be comp
 356:Drivers/GD32E23x_standard_peripheral/Source/gd32e23x_rtc.c ****       \arg        RTC_MASKSSC_NONE: mask none, and RTC_ALRM0SS_SSC[14:0] is to be compared
 357:Drivers/GD32E23x_standard_peripheral/Source/gd32e23x_rtc.c ****     \param[in]  subsecond: alarm subsecond value(0x000 - 0x7FFF)
 358:Drivers/GD32E23x_standard_peripheral/Source/gd32e23x_rtc.c ****     \param[out] none
 359:Drivers/GD32E23x_standard_peripheral/Source/gd32e23x_rtc.c ****     \retval     none
 360:Drivers/GD32E23x_standard_peripheral/Source/gd32e23x_rtc.c **** */
 361:Drivers/GD32E23x_standard_peripheral/Source/gd32e23x_rtc.c **** void rtc_alarm_subsecond_config(uint32_t mask_subsecond, uint32_t subsecond)
 362:Drivers/GD32E23x_standard_peripheral/Source/gd32e23x_rtc.c **** {
 784              		.loc 1 362 1 is_stmt 1 view -0
 785              		.cfi_startproc
 786              		@ args = 0, pretend = 0, frame = 0
 787              		@ frame_needed = 0, uses_anonymous_args = 0
 788              		@ link register save eliminated.
 363:Drivers/GD32E23x_standard_peripheral/Source/gd32e23x_rtc.c ****     /* disable the write protection */
 364:Drivers/GD32E23x_standard_peripheral/Source/gd32e23x_rtc.c ****     RTC_WPK = RTC_UNLOCK_KEY1;
 789              		.loc 1 364 5 view .LVU231
 790              		.loc 1 364 13 is_stmt 0 view .LVU232
 791 0000 42F62403 		movw	r3, #10276
 792 0004 C4F20003 		movt	r3, 16384
 793 0008 CA22     		movs	r2, #202
 794 000a 1A60     		str	r2, [r3]
 365:Drivers/GD32E23x_standard_peripheral/Source/gd32e23x_rtc.c ****     RTC_WPK = RTC_UNLOCK_KEY2;  
 795              		.loc 1 365 5 is_stmt 1 view .LVU233
 796              		.loc 1 365 13 is_stmt 0 view .LVU234
 797 000c 773A     		subs	r2, r2, #119
 798 000e 1A60     		str	r2, [r3]
 366:Drivers/GD32E23x_standard_peripheral/Source/gd32e23x_rtc.c **** 
 367:Drivers/GD32E23x_standard_peripheral/Source/gd32e23x_rtc.c ****     RTC_ALRM0SS = mask_subsecond | subsecond;  
 799              		.loc 1 367 5 is_stmt 1 view .LVU235
 800              		.loc 1 367 34 is_stmt 0 view .LVU236
 801 0010 0843     		orrs	r0, r1
 802              	.LVL48:
 803              		.loc 1 367 17 view .LVU237
 804 0012 42F64402 		movw	r2, #10308
 805 0016 C4F20002 		movt	r2, 16384
 806 001a 1060     		str	r0, [r2]
ARM GAS  /var/folders/rv/zq8s_02j1dj4vjvr1mm5zl2r0000gn/T//cczf42zg.s 			page 23


 368:Drivers/GD32E23x_standard_peripheral/Source/gd32e23x_rtc.c **** 
 369:Drivers/GD32E23x_standard_peripheral/Source/gd32e23x_rtc.c ****     /* enable the write protection */
 370:Drivers/GD32E23x_standard_peripheral/Source/gd32e23x_rtc.c ****     RTC_WPK = RTC_LOCK_KEY;
 807              		.loc 1 370 5 is_stmt 1 view .LVU238
 808              		.loc 1 370 13 is_stmt 0 view .LVU239
 809 001c FF22     		movs	r2, #255
 810 001e 1A60     		str	r2, [r3]
 371:Drivers/GD32E23x_standard_peripheral/Source/gd32e23x_rtc.c **** }
 811              		.loc 1 371 1 view .LVU240
 812              		@ sp needed
 813 0020 7047     		bx	lr
 814              		.cfi_endproc
 815              	.LFE74:
 817              		.section	.text.rtc_alarm_enable,"ax",%progbits
 818              		.align	1
 819              		.global	rtc_alarm_enable
 820              		.syntax unified
 821              		.code	16
 822              		.thumb_func
 823              		.fpu softvfp
 825              	rtc_alarm_enable:
 826              	.LFB75:
 372:Drivers/GD32E23x_standard_peripheral/Source/gd32e23x_rtc.c **** 
 373:Drivers/GD32E23x_standard_peripheral/Source/gd32e23x_rtc.c **** /*!
 374:Drivers/GD32E23x_standard_peripheral/Source/gd32e23x_rtc.c ****     \brief      enable RTC alarm
 375:Drivers/GD32E23x_standard_peripheral/Source/gd32e23x_rtc.c ****     \param[in]  none
 376:Drivers/GD32E23x_standard_peripheral/Source/gd32e23x_rtc.c ****     \param[out] none
 377:Drivers/GD32E23x_standard_peripheral/Source/gd32e23x_rtc.c ****     \retval     none
 378:Drivers/GD32E23x_standard_peripheral/Source/gd32e23x_rtc.c **** */
 379:Drivers/GD32E23x_standard_peripheral/Source/gd32e23x_rtc.c **** void rtc_alarm_enable(void)
 380:Drivers/GD32E23x_standard_peripheral/Source/gd32e23x_rtc.c **** {
 827              		.loc 1 380 1 is_stmt 1 view -0
 828              		.cfi_startproc
 829              		@ args = 0, pretend = 0, frame = 0
 830              		@ frame_needed = 0, uses_anonymous_args = 0
 831              		@ link register save eliminated.
 381:Drivers/GD32E23x_standard_peripheral/Source/gd32e23x_rtc.c ****     /* disable the write protection */
 382:Drivers/GD32E23x_standard_peripheral/Source/gd32e23x_rtc.c ****     RTC_WPK = RTC_UNLOCK_KEY1;
 832              		.loc 1 382 5 view .LVU242
 833              		.loc 1 382 13 is_stmt 0 view .LVU243
 834 0000 42F62403 		movw	r3, #10276
 835 0004 C4F20003 		movt	r3, 16384
 836 0008 CA22     		movs	r2, #202
 837 000a 1A60     		str	r2, [r3]
 383:Drivers/GD32E23x_standard_peripheral/Source/gd32e23x_rtc.c ****     RTC_WPK = RTC_UNLOCK_KEY2;
 838              		.loc 1 383 5 is_stmt 1 view .LVU244
 839              		.loc 1 383 13 is_stmt 0 view .LVU245
 840 000c 773A     		subs	r2, r2, #119
 841 000e 1A60     		str	r2, [r3]
 384:Drivers/GD32E23x_standard_peripheral/Source/gd32e23x_rtc.c **** 
 385:Drivers/GD32E23x_standard_peripheral/Source/gd32e23x_rtc.c ****     RTC_CTL |= RTC_CTL_ALRM0EN;
 842              		.loc 1 385 5 is_stmt 1 view .LVU246
 843              		.loc 1 385 13 is_stmt 0 view .LVU247
 844 0010 42F60802 		movw	r2, #10248
 845 0014 C4F20002 		movt	r2, 16384
 846 0018 1168     		ldr	r1, [r2]
 847 001a 40F20010 		movw	r0, #256
ARM GAS  /var/folders/rv/zq8s_02j1dj4vjvr1mm5zl2r0000gn/T//cczf42zg.s 			page 24


 848 001e 0143     		orrs	r1, r0
 849 0020 1160     		str	r1, [r2]
 386:Drivers/GD32E23x_standard_peripheral/Source/gd32e23x_rtc.c **** 
 387:Drivers/GD32E23x_standard_peripheral/Source/gd32e23x_rtc.c ****     /* enable the write protection */
 388:Drivers/GD32E23x_standard_peripheral/Source/gd32e23x_rtc.c ****     RTC_WPK = RTC_LOCK_KEY;
 850              		.loc 1 388 5 is_stmt 1 view .LVU248
 851              		.loc 1 388 13 is_stmt 0 view .LVU249
 852 0022 FF22     		movs	r2, #255
 853 0024 1A60     		str	r2, [r3]
 389:Drivers/GD32E23x_standard_peripheral/Source/gd32e23x_rtc.c **** }
 854              		.loc 1 389 1 view .LVU250
 855              		@ sp needed
 856 0026 7047     		bx	lr
 857              		.cfi_endproc
 858              	.LFE75:
 860              		.section	.text.rtc_alarm_disable,"ax",%progbits
 861              		.align	1
 862              		.global	rtc_alarm_disable
 863              		.syntax unified
 864              		.code	16
 865              		.thumb_func
 866              		.fpu softvfp
 868              	rtc_alarm_disable:
 869              	.LFB76:
 390:Drivers/GD32E23x_standard_peripheral/Source/gd32e23x_rtc.c **** 
 391:Drivers/GD32E23x_standard_peripheral/Source/gd32e23x_rtc.c **** /*!
 392:Drivers/GD32E23x_standard_peripheral/Source/gd32e23x_rtc.c ****     \brief      disable RTC alarm
 393:Drivers/GD32E23x_standard_peripheral/Source/gd32e23x_rtc.c ****     \param[in]  none
 394:Drivers/GD32E23x_standard_peripheral/Source/gd32e23x_rtc.c ****     \param[out] none
 395:Drivers/GD32E23x_standard_peripheral/Source/gd32e23x_rtc.c ****     \retval     ErrStatus: ERROR or SUCCESS
 396:Drivers/GD32E23x_standard_peripheral/Source/gd32e23x_rtc.c **** */
 397:Drivers/GD32E23x_standard_peripheral/Source/gd32e23x_rtc.c **** ErrStatus rtc_alarm_disable(void)
 398:Drivers/GD32E23x_standard_peripheral/Source/gd32e23x_rtc.c **** {
 870              		.loc 1 398 1 is_stmt 1 view -0
 871              		.cfi_startproc
 872              		@ args = 0, pretend = 0, frame = 8
 873              		@ frame_needed = 0, uses_anonymous_args = 0
 874              		@ link register save eliminated.
 875 0000 82B0     		sub	sp, sp, #8
 876              	.LCFI4:
 877              		.cfi_def_cfa_offset 8
 399:Drivers/GD32E23x_standard_peripheral/Source/gd32e23x_rtc.c ****     volatile uint32_t time_index = RTC_ALRM0WF_TIMEOUT;
 878              		.loc 1 399 5 view .LVU252
 879              		.loc 1 399 23 is_stmt 0 view .LVU253
 880 0002 48F20003 		movw	r3, #32768
 881 0006 0193     		str	r3, [sp, #4]
 400:Drivers/GD32E23x_standard_peripheral/Source/gd32e23x_rtc.c ****     ErrStatus error_status = ERROR;
 882              		.loc 1 400 5 is_stmt 1 view .LVU254
 883              	.LVL49:
 401:Drivers/GD32E23x_standard_peripheral/Source/gd32e23x_rtc.c ****     uint32_t flag_status = RESET;
 884              		.loc 1 401 5 view .LVU255
 402:Drivers/GD32E23x_standard_peripheral/Source/gd32e23x_rtc.c **** 
 403:Drivers/GD32E23x_standard_peripheral/Source/gd32e23x_rtc.c ****     /* disable the write protection */
 404:Drivers/GD32E23x_standard_peripheral/Source/gd32e23x_rtc.c ****     RTC_WPK = RTC_UNLOCK_KEY1;
 885              		.loc 1 404 5 view .LVU256
 886              		.loc 1 404 13 is_stmt 0 view .LVU257
 887 0008 42F62403 		movw	r3, #10276
ARM GAS  /var/folders/rv/zq8s_02j1dj4vjvr1mm5zl2r0000gn/T//cczf42zg.s 			page 25


 888 000c C4F20003 		movt	r3, 16384
 889 0010 CA22     		movs	r2, #202
 890 0012 1A60     		str	r2, [r3]
 405:Drivers/GD32E23x_standard_peripheral/Source/gd32e23x_rtc.c ****     RTC_WPK = RTC_UNLOCK_KEY2;
 891              		.loc 1 405 5 is_stmt 1 view .LVU258
 892              		.loc 1 405 13 is_stmt 0 view .LVU259
 893 0014 773A     		subs	r2, r2, #119
 894 0016 1A60     		str	r2, [r3]
 406:Drivers/GD32E23x_standard_peripheral/Source/gd32e23x_rtc.c ****     
 407:Drivers/GD32E23x_standard_peripheral/Source/gd32e23x_rtc.c ****     /* clear the state of alarm */
 408:Drivers/GD32E23x_standard_peripheral/Source/gd32e23x_rtc.c ****     RTC_CTL &= (uint32_t)(~RTC_CTL_ALRM0EN);  
 895              		.loc 1 408 5 is_stmt 1 view .LVU260
 896              		.loc 1 408 13 is_stmt 0 view .LVU261
 897 0018 42F60803 		movw	r3, #10248
 898 001c C4F20003 		movt	r3, 16384
 899 0020 1A68     		ldr	r2, [r3]
 900 0022 0E49     		ldr	r1, .L31
 901 0024 0A40     		ands	r2, r1
 902 0026 1A60     		str	r2, [r3]
 903              	.LVL50:
 904              	.L28:
 409:Drivers/GD32E23x_standard_peripheral/Source/gd32e23x_rtc.c ****     
 410:Drivers/GD32E23x_standard_peripheral/Source/gd32e23x_rtc.c ****     /* wait until ALRM0WF flag to be set after the alarm is disabled */
 411:Drivers/GD32E23x_standard_peripheral/Source/gd32e23x_rtc.c ****     do{
 905              		.loc 1 411 5 is_stmt 1 discriminator 2 view .LVU262
 412:Drivers/GD32E23x_standard_peripheral/Source/gd32e23x_rtc.c ****         flag_status = RTC_STAT & RTC_STAT_ALRM0WF;
 906              		.loc 1 412 9 discriminator 2 view .LVU263
 907              		.loc 1 412 23 is_stmt 0 discriminator 2 view .LVU264
 908 0028 42F60C03 		movw	r3, #10252
 909 002c C4F20003 		movt	r3, 16384
 910 0030 1B68     		ldr	r3, [r3]
 911              		.loc 1 412 21 discriminator 2 view .LVU265
 912 0032 0122     		movs	r2, #1
 913 0034 1A40     		ands	r2, r3
 914              	.LVL51:
 413:Drivers/GD32E23x_standard_peripheral/Source/gd32e23x_rtc.c ****     }while((--time_index > 0x00U) && ((uint32_t)RESET == flag_status));
 915              		.loc 1 413 11 is_stmt 1 discriminator 2 view .LVU266
 916              		.loc 1 413 13 is_stmt 0 discriminator 2 view .LVU267
 917 0036 019B     		ldr	r3, [sp, #4]
 918 0038 013B     		subs	r3, r3, #1
 919              		.loc 1 413 5 discriminator 2 view .LVU268
 920 003a 0193     		str	r3, [sp, #4]
 921 003c 0BB1     		cbz	r3, .L27
 922              		.loc 1 413 35 discriminator 1 view .LVU269
 923 003e 002A     		cmp	r2, #0
 924 0040 F2D0     		beq	.L28
 925              	.L27:
 414:Drivers/GD32E23x_standard_peripheral/Source/gd32e23x_rtc.c ****     
 415:Drivers/GD32E23x_standard_peripheral/Source/gd32e23x_rtc.c ****     if((uint32_t)RESET != flag_status){     
 926              		.loc 1 415 5 is_stmt 1 view .LVU270
 927              		.loc 1 415 7 is_stmt 0 view .LVU271
 928 0042 42B9     		cbnz	r2, .L30
 400:Drivers/GD32E23x_standard_peripheral/Source/gd32e23x_rtc.c ****     uint32_t flag_status = RESET;
 929              		.loc 1 400 15 view .LVU272
 930 0044 0020     		movs	r0, #0
 931              	.L29:
 932              	.LVL52:
ARM GAS  /var/folders/rv/zq8s_02j1dj4vjvr1mm5zl2r0000gn/T//cczf42zg.s 			page 26


 416:Drivers/GD32E23x_standard_peripheral/Source/gd32e23x_rtc.c ****         error_status = SUCCESS;
 417:Drivers/GD32E23x_standard_peripheral/Source/gd32e23x_rtc.c ****     }
 418:Drivers/GD32E23x_standard_peripheral/Source/gd32e23x_rtc.c **** 
 419:Drivers/GD32E23x_standard_peripheral/Source/gd32e23x_rtc.c ****     /* enable the write protection */
 420:Drivers/GD32E23x_standard_peripheral/Source/gd32e23x_rtc.c ****     RTC_WPK = RTC_LOCK_KEY;
 933              		.loc 1 420 5 is_stmt 1 view .LVU273
 934              		.loc 1 420 13 is_stmt 0 view .LVU274
 935 0046 42F62403 		movw	r3, #10276
 936 004a C4F20003 		movt	r3, 16384
 937 004e FF22     		movs	r2, #255
 938              	.LVL53:
 939              		.loc 1 420 13 view .LVU275
 940 0050 1A60     		str	r2, [r3]
 421:Drivers/GD32E23x_standard_peripheral/Source/gd32e23x_rtc.c **** 
 422:Drivers/GD32E23x_standard_peripheral/Source/gd32e23x_rtc.c ****     return error_status;
 941              		.loc 1 422 5 is_stmt 1 view .LVU276
 423:Drivers/GD32E23x_standard_peripheral/Source/gd32e23x_rtc.c **** }
 942              		.loc 1 423 1 is_stmt 0 view .LVU277
 943 0052 02B0     		add	sp, sp, #8
 944              		@ sp needed
 945 0054 7047     		bx	lr
 946              	.LVL54:
 947              	.L30:
 416:Drivers/GD32E23x_standard_peripheral/Source/gd32e23x_rtc.c ****         error_status = SUCCESS;
 948              		.loc 1 416 22 view .LVU278
 949 0056 0120     		movs	r0, #1
 950 0058 F5E7     		b	.L29
 951              	.L32:
 952 005a C046     		.align	2
 953              	.L31:
 954 005c FFFEFFFF 		.word	-257
 955              		.cfi_endproc
 956              	.LFE76:
 958              		.section	.text.rtc_alarm_get,"ax",%progbits
 959              		.align	1
 960              		.global	rtc_alarm_get
 961              		.syntax unified
 962              		.code	16
 963              		.thumb_func
 964              		.fpu softvfp
 966              	rtc_alarm_get:
 967              	.LVL55:
 968              	.LFB77:
 424:Drivers/GD32E23x_standard_peripheral/Source/gd32e23x_rtc.c **** 
 425:Drivers/GD32E23x_standard_peripheral/Source/gd32e23x_rtc.c **** /*!
 426:Drivers/GD32E23x_standard_peripheral/Source/gd32e23x_rtc.c ****     \brief      get RTC alarm
 427:Drivers/GD32E23x_standard_peripheral/Source/gd32e23x_rtc.c ****     \param[in]  none
 428:Drivers/GD32E23x_standard_peripheral/Source/gd32e23x_rtc.c ****     \param[out] rtc_alarm_time: pointer to a rtc_alarm_struct structure which contains 
 429:Drivers/GD32E23x_standard_peripheral/Source/gd32e23x_rtc.c ****                 parameters for RTC alarm configuration
 430:Drivers/GD32E23x_standard_peripheral/Source/gd32e23x_rtc.c ****                 members of the structure and the member values are shown as below:
 431:Drivers/GD32E23x_standard_peripheral/Source/gd32e23x_rtc.c ****                   rtc_alarm_mask: RTC_ALARM_NONE_MASK, RTC_ALARM_DATE_MASK, RTC_ALARM_HOUR_MASK
 432:Drivers/GD32E23x_standard_peripheral/Source/gd32e23x_rtc.c ****                                   RTC_ALARM_MINUTE_MASK, RTC_ALARM_SECOND_MASK, RTC_ALARM_ALL_MASK
 433:Drivers/GD32E23x_standard_peripheral/Source/gd32e23x_rtc.c ****                   rtc_weekday_or_date: RTC_ALARM_DATE_SELECTED, RTC_ALARM_WEEKDAY_SELECTED
 434:Drivers/GD32E23x_standard_peripheral/Source/gd32e23x_rtc.c ****                   rtc_alarm_day: 1) 0x1 - 0x31(BCD format) if RTC_ALARM_DATE_SELECTED is set
 435:Drivers/GD32E23x_standard_peripheral/Source/gd32e23x_rtc.c ****                                  2) RTC_MONDAY, RTC_TUESDAY, RTC_WEDSDAY, RTC_THURSDAY, RTC_FRIDAY,
 436:Drivers/GD32E23x_standard_peripheral/Source/gd32e23x_rtc.c ****                                     RTC_SATURDAY, RTC_SUNDAY if RTC_ALARM_WEEKDAY_SELECTED is set
 437:Drivers/GD32E23x_standard_peripheral/Source/gd32e23x_rtc.c ****                   rtc_alarm_hour: 0x0 - 0x12(BCD format) or 0x0 - 0x23(BCD format) depending on the
ARM GAS  /var/folders/rv/zq8s_02j1dj4vjvr1mm5zl2r0000gn/T//cczf42zg.s 			page 27


 438:Drivers/GD32E23x_standard_peripheral/Source/gd32e23x_rtc.c ****                   rtc_alarm_minute: 0x0 - 0x59(BCD format)
 439:Drivers/GD32E23x_standard_peripheral/Source/gd32e23x_rtc.c ****                   rtc_alarm_second: 0x0 - 0x59(BCD format)
 440:Drivers/GD32E23x_standard_peripheral/Source/gd32e23x_rtc.c ****                   rtc_am_pm: RTC_AM, RTC_PM
 441:Drivers/GD32E23x_standard_peripheral/Source/gd32e23x_rtc.c ****     \retval     none
 442:Drivers/GD32E23x_standard_peripheral/Source/gd32e23x_rtc.c **** */
 443:Drivers/GD32E23x_standard_peripheral/Source/gd32e23x_rtc.c **** void rtc_alarm_get(rtc_alarm_struct* rtc_alarm_time)
 444:Drivers/GD32E23x_standard_peripheral/Source/gd32e23x_rtc.c **** {
 969              		.loc 1 444 1 is_stmt 1 view -0
 970              		.cfi_startproc
 971              		@ args = 0, pretend = 0, frame = 0
 972              		@ frame_needed = 0, uses_anonymous_args = 0
 973              		@ link register save eliminated.
 445:Drivers/GD32E23x_standard_peripheral/Source/gd32e23x_rtc.c ****     uint32_t reg_alrm0td = 0x00U;
 974              		.loc 1 445 5 view .LVU280
 446:Drivers/GD32E23x_standard_peripheral/Source/gd32e23x_rtc.c **** 
 447:Drivers/GD32E23x_standard_peripheral/Source/gd32e23x_rtc.c ****     /* get the value of RTC_ALRM0TD register */
 448:Drivers/GD32E23x_standard_peripheral/Source/gd32e23x_rtc.c ****     reg_alrm0td = RTC_ALRM0TD;
 975              		.loc 1 448 5 view .LVU281
 976              		.loc 1 448 17 is_stmt 0 view .LVU282
 977 0000 42F61C03 		movw	r3, #10268
 978 0004 C4F20003 		movt	r3, 16384
 979 0008 1B68     		ldr	r3, [r3]
 980              	.LVL56:
 449:Drivers/GD32E23x_standard_peripheral/Source/gd32e23x_rtc.c **** 
 450:Drivers/GD32E23x_standard_peripheral/Source/gd32e23x_rtc.c ****     /* get alarm parameters and construct the rtc_alarm_struct structure */
 451:Drivers/GD32E23x_standard_peripheral/Source/gd32e23x_rtc.c ****     rtc_alarm_time->rtc_alarm_mask = reg_alrm0td & RTC_ALARM_ALL_MASK; 
 981              		.loc 1 451 5 is_stmt 1 view .LVU283
 982              		.loc 1 451 50 is_stmt 0 view .LVU284
 983 000a 48F28002 		movw	r2, #32896
 984 000e C8F28002 		movt	r2, 32896
 985 0012 1A40     		ands	r2, r3
 986              		.loc 1 451 36 view .LVU285
 987 0014 0260     		str	r2, [r0]
 452:Drivers/GD32E23x_standard_peripheral/Source/gd32e23x_rtc.c ****     rtc_alarm_time->rtc_am_pm = (uint32_t)(reg_alrm0td & RTC_ALRM0TD_PM);
 988              		.loc 1 452 5 is_stmt 1 view .LVU286
 989              		.loc 1 452 33 is_stmt 0 view .LVU287
 990 0016 8022     		movs	r2, #128
 991 0018 D203     		lsls	r2, r2, #15
 992 001a 1A40     		ands	r2, r3
 993              		.loc 1 452 31 view .LVU288
 994 001c C260     		str	r2, [r0, #12]
 453:Drivers/GD32E23x_standard_peripheral/Source/gd32e23x_rtc.c ****     rtc_alarm_time->rtc_weekday_or_date = (uint32_t)(reg_alrm0td & RTC_ALRM0TD_DOWS);
 995              		.loc 1 453 5 is_stmt 1 view .LVU289
 996              		.loc 1 453 43 is_stmt 0 view .LVU290
 997 001e 8022     		movs	r2, #128
 998 0020 D205     		lsls	r2, r2, #23
 999 0022 1A40     		ands	r2, r3
 1000              		.loc 1 453 41 view .LVU291
 1001 0024 4260     		str	r2, [r0, #4]
 454:Drivers/GD32E23x_standard_peripheral/Source/gd32e23x_rtc.c ****     rtc_alarm_time->rtc_alarm_day = (uint8_t)GET_ALRM0TD_DAY(reg_alrm0td);
 1002              		.loc 1 454 5 is_stmt 1 view .LVU292
 1003              		.loc 1 454 46 is_stmt 0 view .LVU293
 1004 0026 190E     		lsrs	r1, r3, #24
 1005              		.loc 1 454 37 view .LVU294
 1006 0028 3F22     		movs	r2, #63
 1007 002a 1140     		ands	r1, r2
 1008              		.loc 1 454 35 view .LVU295
ARM GAS  /var/folders/rv/zq8s_02j1dj4vjvr1mm5zl2r0000gn/T//cczf42zg.s 			page 28


 1009 002c 0172     		strb	r1, [r0, #8]
 455:Drivers/GD32E23x_standard_peripheral/Source/gd32e23x_rtc.c ****     rtc_alarm_time->rtc_alarm_hour = (uint8_t)GET_ALRM0TD_HR(reg_alrm0td);
 1010              		.loc 1 455 5 is_stmt 1 view .LVU296
 1011              		.loc 1 455 47 is_stmt 0 view .LVU297
 1012 002e 190C     		lsrs	r1, r3, #16
 1013              		.loc 1 455 38 view .LVU298
 1014 0030 0A40     		ands	r2, r1
 1015              		.loc 1 455 36 view .LVU299
 1016 0032 4272     		strb	r2, [r0, #9]
 456:Drivers/GD32E23x_standard_peripheral/Source/gd32e23x_rtc.c ****     rtc_alarm_time->rtc_alarm_minute = (uint8_t)GET_ALRM0TD_MN(reg_alrm0td);
 1017              		.loc 1 456 5 is_stmt 1 view .LVU300
 1018              		.loc 1 456 49 is_stmt 0 view .LVU301
 1019 0034 190A     		lsrs	r1, r3, #8
 1020              		.loc 1 456 40 view .LVU302
 1021 0036 7F22     		movs	r2, #127
 1022 0038 1140     		ands	r1, r2
 1023              		.loc 1 456 38 view .LVU303
 1024 003a 8172     		strb	r1, [r0, #10]
 457:Drivers/GD32E23x_standard_peripheral/Source/gd32e23x_rtc.c ****     rtc_alarm_time->rtc_alarm_second = (uint8_t)GET_ALRM0TD_SC(reg_alrm0td);  
 1025              		.loc 1 457 5 is_stmt 1 view .LVU304
 1026              		.loc 1 457 40 is_stmt 0 view .LVU305
 1027 003c 1340     		ands	r3, r2
 1028              	.LVL57:
 1029              		.loc 1 457 38 view .LVU306
 1030 003e C372     		strb	r3, [r0, #11]
 458:Drivers/GD32E23x_standard_peripheral/Source/gd32e23x_rtc.c **** }
 1031              		.loc 1 458 1 view .LVU307
 1032              		@ sp needed
 1033 0040 7047     		bx	lr
 1034              		.cfi_endproc
 1035              	.LFE77:
 1037              		.section	.text.rtc_alarm_subsecond_get,"ax",%progbits
 1038              		.align	1
 1039              		.global	rtc_alarm_subsecond_get
 1040              		.syntax unified
 1041              		.code	16
 1042              		.thumb_func
 1043              		.fpu softvfp
 1045              	rtc_alarm_subsecond_get:
 1046              	.LFB78:
 459:Drivers/GD32E23x_standard_peripheral/Source/gd32e23x_rtc.c **** 
 460:Drivers/GD32E23x_standard_peripheral/Source/gd32e23x_rtc.c **** /*!
 461:Drivers/GD32E23x_standard_peripheral/Source/gd32e23x_rtc.c ****     \brief      get RTC alarm subsecond
 462:Drivers/GD32E23x_standard_peripheral/Source/gd32e23x_rtc.c ****     \param[in]  none
 463:Drivers/GD32E23x_standard_peripheral/Source/gd32e23x_rtc.c ****     \param[out] none
 464:Drivers/GD32E23x_standard_peripheral/Source/gd32e23x_rtc.c ****     \retval     RTC alarm subsecond value
 465:Drivers/GD32E23x_standard_peripheral/Source/gd32e23x_rtc.c **** */
 466:Drivers/GD32E23x_standard_peripheral/Source/gd32e23x_rtc.c **** uint32_t rtc_alarm_subsecond_get(void)
 467:Drivers/GD32E23x_standard_peripheral/Source/gd32e23x_rtc.c **** {
 1047              		.loc 1 467 1 is_stmt 1 view -0
 1048              		.cfi_startproc
 1049              		@ args = 0, pretend = 0, frame = 0
 1050              		@ frame_needed = 0, uses_anonymous_args = 0
 1051              		@ link register save eliminated.
 468:Drivers/GD32E23x_standard_peripheral/Source/gd32e23x_rtc.c ****     return ((uint32_t)(RTC_ALRM0SS & RTC_ALRM0SS_SSC));
 1052              		.loc 1 468 5 view .LVU309
 1053              		.loc 1 468 13 is_stmt 0 view .LVU310
ARM GAS  /var/folders/rv/zq8s_02j1dj4vjvr1mm5zl2r0000gn/T//cczf42zg.s 			page 29


 1054 0000 42F64403 		movw	r3, #10308
 1055 0004 C4F20003 		movt	r3, 16384
 1056 0008 1B68     		ldr	r3, [r3]
 1057 000a 47F6FF70 		movw	r0, #32767
 1058 000e 1840     		ands	r0, r3
 469:Drivers/GD32E23x_standard_peripheral/Source/gd32e23x_rtc.c **** }
 1059              		.loc 1 469 1 view .LVU311
 1060              		@ sp needed
 1061 0010 7047     		bx	lr
 1062              		.cfi_endproc
 1063              	.LFE78:
 1065              		.section	.text.rtc_timestamp_enable,"ax",%progbits
 1066              		.align	1
 1067              		.global	rtc_timestamp_enable
 1068              		.syntax unified
 1069              		.code	16
 1070              		.thumb_func
 1071              		.fpu softvfp
 1073              	rtc_timestamp_enable:
 1074              	.LVL58:
 1075              	.LFB79:
 470:Drivers/GD32E23x_standard_peripheral/Source/gd32e23x_rtc.c **** 
 471:Drivers/GD32E23x_standard_peripheral/Source/gd32e23x_rtc.c **** #if defined(GD32E230)
 472:Drivers/GD32E23x_standard_peripheral/Source/gd32e23x_rtc.c **** /*!
 473:Drivers/GD32E23x_standard_peripheral/Source/gd32e23x_rtc.c ****     \brief      enable RTC time-stamp
 474:Drivers/GD32E23x_standard_peripheral/Source/gd32e23x_rtc.c ****     \param[in]  edge: specify which edge to detect of time-stamp
 475:Drivers/GD32E23x_standard_peripheral/Source/gd32e23x_rtc.c ****                 only one parameter can be selected which is shown as below:
 476:Drivers/GD32E23x_standard_peripheral/Source/gd32e23x_rtc.c ****       \arg        RTC_TIMESTAMP_RISING_EDGE: rising edge is valid event edge for timestamp event
 477:Drivers/GD32E23x_standard_peripheral/Source/gd32e23x_rtc.c ****       \arg        RTC_TIMESTAMP_FALLING_EDGE: falling edge is valid event edge for timestamp event
 478:Drivers/GD32E23x_standard_peripheral/Source/gd32e23x_rtc.c ****     \param[out] none
 479:Drivers/GD32E23x_standard_peripheral/Source/gd32e23x_rtc.c ****     \retval     none
 480:Drivers/GD32E23x_standard_peripheral/Source/gd32e23x_rtc.c **** */
 481:Drivers/GD32E23x_standard_peripheral/Source/gd32e23x_rtc.c **** void rtc_timestamp_enable(uint32_t edge)
 482:Drivers/GD32E23x_standard_peripheral/Source/gd32e23x_rtc.c **** {
 1076              		.loc 1 482 1 is_stmt 1 view -0
 1077              		.cfi_startproc
 1078              		@ args = 0, pretend = 0, frame = 0
 1079              		@ frame_needed = 0, uses_anonymous_args = 0
 1080              		@ link register save eliminated.
 483:Drivers/GD32E23x_standard_peripheral/Source/gd32e23x_rtc.c ****     uint32_t reg_ctl = 0x00U;
 1081              		.loc 1 483 5 view .LVU313
 484:Drivers/GD32E23x_standard_peripheral/Source/gd32e23x_rtc.c **** 
 485:Drivers/GD32E23x_standard_peripheral/Source/gd32e23x_rtc.c ****     /* clear the bits to be configured in RTC_CTL */
 486:Drivers/GD32E23x_standard_peripheral/Source/gd32e23x_rtc.c ****     reg_ctl = (uint32_t)(RTC_CTL & (uint32_t)(~(RTC_CTL_TSEG | RTC_CTL_TSEN)));
 1082              		.loc 1 486 5 view .LVU314
 1083              		.loc 1 486 26 is_stmt 0 view .LVU315
 1084 0000 42F60801 		movw	r1, #10248
 1085 0004 C4F20001 		movt	r1, 16384
 1086 0008 0B68     		ldr	r3, [r1]
 1087              		.loc 1 486 13 view .LVU316
 1088 000a 094A     		ldr	r2, .L36
 1089 000c 1340     		ands	r3, r2
 1090              	.LVL59:
 487:Drivers/GD32E23x_standard_peripheral/Source/gd32e23x_rtc.c **** 
 488:Drivers/GD32E23x_standard_peripheral/Source/gd32e23x_rtc.c ****     /* new configuration */
 489:Drivers/GD32E23x_standard_peripheral/Source/gd32e23x_rtc.c ****     reg_ctl |= (uint32_t)(edge | RTC_CTL_TSEN);
 1091              		.loc 1 489 5 is_stmt 1 view .LVU317
ARM GAS  /var/folders/rv/zq8s_02j1dj4vjvr1mm5zl2r0000gn/T//cczf42zg.s 			page 30


 1092              		.loc 1 489 13 is_stmt 0 view .LVU318
 1093 000e 0343     		orrs	r3, r0
 1094              	.LVL60:
 1095              		.loc 1 489 13 view .LVU319
 1096 0010 40F60000 		movw	r0, #2048
 1097              	.LVL61:
 1098              		.loc 1 489 13 view .LVU320
 1099 0014 0343     		orrs	r3, r0
 1100              	.LVL62:
 490:Drivers/GD32E23x_standard_peripheral/Source/gd32e23x_rtc.c ****    
 491:Drivers/GD32E23x_standard_peripheral/Source/gd32e23x_rtc.c ****     /* disable the write protection */
 492:Drivers/GD32E23x_standard_peripheral/Source/gd32e23x_rtc.c ****     RTC_WPK = RTC_UNLOCK_KEY1;
 1101              		.loc 1 492 5 is_stmt 1 view .LVU321
 1102              		.loc 1 492 13 is_stmt 0 view .LVU322
 1103 0016 42F62402 		movw	r2, #10276
 1104 001a C4F20002 		movt	r2, 16384
 1105 001e CA20     		movs	r0, #202
 1106 0020 1060     		str	r0, [r2]
 493:Drivers/GD32E23x_standard_peripheral/Source/gd32e23x_rtc.c ****     RTC_WPK = RTC_UNLOCK_KEY2;
 1107              		.loc 1 493 5 is_stmt 1 view .LVU323
 1108              		.loc 1 493 13 is_stmt 0 view .LVU324
 1109 0022 7738     		subs	r0, r0, #119
 1110 0024 1060     		str	r0, [r2]
 494:Drivers/GD32E23x_standard_peripheral/Source/gd32e23x_rtc.c **** 
 495:Drivers/GD32E23x_standard_peripheral/Source/gd32e23x_rtc.c ****     RTC_CTL = (uint32_t)reg_ctl;
 1111              		.loc 1 495 5 is_stmt 1 view .LVU325
 1112              		.loc 1 495 13 is_stmt 0 view .LVU326
 1113 0026 0B60     		str	r3, [r1]
 496:Drivers/GD32E23x_standard_peripheral/Source/gd32e23x_rtc.c **** 
 497:Drivers/GD32E23x_standard_peripheral/Source/gd32e23x_rtc.c ****     /* enable the write protection */
 498:Drivers/GD32E23x_standard_peripheral/Source/gd32e23x_rtc.c ****     RTC_WPK = RTC_LOCK_KEY;
 1114              		.loc 1 498 5 is_stmt 1 view .LVU327
 1115              		.loc 1 498 13 is_stmt 0 view .LVU328
 1116 0028 FF23     		movs	r3, #255
 1117              	.LVL63:
 1118              		.loc 1 498 13 view .LVU329
 1119 002a 1360     		str	r3, [r2]
 1120              	.LVL64:
 499:Drivers/GD32E23x_standard_peripheral/Source/gd32e23x_rtc.c **** }
 1121              		.loc 1 499 1 view .LVU330
 1122              		@ sp needed
 1123 002c 7047     		bx	lr
 1124              	.L37:
 1125 002e C046     		.align	2
 1126              	.L36:
 1127 0030 F7F7FFFF 		.word	-2057
 1128              		.cfi_endproc
 1129              	.LFE79:
 1131              		.section	.text.rtc_timestamp_disable,"ax",%progbits
 1132              		.align	1
 1133              		.global	rtc_timestamp_disable
 1134              		.syntax unified
 1135              		.code	16
 1136              		.thumb_func
 1137              		.fpu softvfp
 1139              	rtc_timestamp_disable:
 1140              	.LFB80:
ARM GAS  /var/folders/rv/zq8s_02j1dj4vjvr1mm5zl2r0000gn/T//cczf42zg.s 			page 31


 500:Drivers/GD32E23x_standard_peripheral/Source/gd32e23x_rtc.c **** 
 501:Drivers/GD32E23x_standard_peripheral/Source/gd32e23x_rtc.c **** /*!
 502:Drivers/GD32E23x_standard_peripheral/Source/gd32e23x_rtc.c ****     \brief      disable RTC time-stamp
 503:Drivers/GD32E23x_standard_peripheral/Source/gd32e23x_rtc.c ****     \param[in]  none
 504:Drivers/GD32E23x_standard_peripheral/Source/gd32e23x_rtc.c ****     \param[out] none
 505:Drivers/GD32E23x_standard_peripheral/Source/gd32e23x_rtc.c ****     \retval     none
 506:Drivers/GD32E23x_standard_peripheral/Source/gd32e23x_rtc.c **** */
 507:Drivers/GD32E23x_standard_peripheral/Source/gd32e23x_rtc.c **** void rtc_timestamp_disable(void)
 508:Drivers/GD32E23x_standard_peripheral/Source/gd32e23x_rtc.c **** {
 1141              		.loc 1 508 1 is_stmt 1 view -0
 1142              		.cfi_startproc
 1143              		@ args = 0, pretend = 0, frame = 0
 1144              		@ frame_needed = 0, uses_anonymous_args = 0
 1145              		@ link register save eliminated.
 509:Drivers/GD32E23x_standard_peripheral/Source/gd32e23x_rtc.c ****     /* disable the write protection */
 510:Drivers/GD32E23x_standard_peripheral/Source/gd32e23x_rtc.c ****     RTC_WPK = RTC_UNLOCK_KEY1;
 1146              		.loc 1 510 5 view .LVU332
 1147              		.loc 1 510 13 is_stmt 0 view .LVU333
 1148 0000 42F62403 		movw	r3, #10276
 1149 0004 C4F20003 		movt	r3, 16384
 1150 0008 CA22     		movs	r2, #202
 1151 000a 1A60     		str	r2, [r3]
 511:Drivers/GD32E23x_standard_peripheral/Source/gd32e23x_rtc.c ****     RTC_WPK = RTC_UNLOCK_KEY2;
 1152              		.loc 1 511 5 is_stmt 1 view .LVU334
 1153              		.loc 1 511 13 is_stmt 0 view .LVU335
 1154 000c 773A     		subs	r2, r2, #119
 1155 000e 1A60     		str	r2, [r3]
 512:Drivers/GD32E23x_standard_peripheral/Source/gd32e23x_rtc.c ****     
 513:Drivers/GD32E23x_standard_peripheral/Source/gd32e23x_rtc.c ****     /* clear the TSEN bit */
 514:Drivers/GD32E23x_standard_peripheral/Source/gd32e23x_rtc.c ****     RTC_CTL &= (uint32_t)(~ RTC_CTL_TSEN);
 1156              		.loc 1 514 5 is_stmt 1 view .LVU336
 1157              		.loc 1 514 13 is_stmt 0 view .LVU337
 1158 0010 42F60802 		movw	r2, #10248
 1159 0014 C4F20002 		movt	r2, 16384
 1160 0018 1168     		ldr	r1, [r2]
 1161 001a 0348     		ldr	r0, .L39
 1162 001c 0140     		ands	r1, r0
 1163 001e 1160     		str	r1, [r2]
 515:Drivers/GD32E23x_standard_peripheral/Source/gd32e23x_rtc.c **** 
 516:Drivers/GD32E23x_standard_peripheral/Source/gd32e23x_rtc.c ****     /* enable the write protection */
 517:Drivers/GD32E23x_standard_peripheral/Source/gd32e23x_rtc.c ****     RTC_WPK = RTC_LOCK_KEY;
 1164              		.loc 1 517 5 is_stmt 1 view .LVU338
 1165              		.loc 1 517 13 is_stmt 0 view .LVU339
 1166 0020 FF22     		movs	r2, #255
 1167 0022 1A60     		str	r2, [r3]
 518:Drivers/GD32E23x_standard_peripheral/Source/gd32e23x_rtc.c **** }
 1168              		.loc 1 518 1 view .LVU340
 1169              		@ sp needed
 1170 0024 7047     		bx	lr
 1171              	.L40:
 1172 0026 C046     		.align	2
 1173              	.L39:
 1174 0028 FFF7FFFF 		.word	-2049
 1175              		.cfi_endproc
 1176              	.LFE80:
 1178              		.section	.text.rtc_timestamp_get,"ax",%progbits
 1179              		.align	1
ARM GAS  /var/folders/rv/zq8s_02j1dj4vjvr1mm5zl2r0000gn/T//cczf42zg.s 			page 32


 1180              		.global	rtc_timestamp_get
 1181              		.syntax unified
 1182              		.code	16
 1183              		.thumb_func
 1184              		.fpu softvfp
 1186              	rtc_timestamp_get:
 1187              	.LVL65:
 1188              	.LFB81:
 519:Drivers/GD32E23x_standard_peripheral/Source/gd32e23x_rtc.c **** #endif
 520:Drivers/GD32E23x_standard_peripheral/Source/gd32e23x_rtc.c **** /*!
 521:Drivers/GD32E23x_standard_peripheral/Source/gd32e23x_rtc.c ****     \brief      get RTC timestamp time and date
 522:Drivers/GD32E23x_standard_peripheral/Source/gd32e23x_rtc.c ****     \param[in]  none
 523:Drivers/GD32E23x_standard_peripheral/Source/gd32e23x_rtc.c ****     \param[out] rtc_timestamp: pointer to a rtc_timestamp_struct structure which contains 
 524:Drivers/GD32E23x_standard_peripheral/Source/gd32e23x_rtc.c ****                 parameters for RTC time-stamp configuration
 525:Drivers/GD32E23x_standard_peripheral/Source/gd32e23x_rtc.c ****                 members of the structure and the member values are shown as below:
 526:Drivers/GD32E23x_standard_peripheral/Source/gd32e23x_rtc.c ****                   rtc_timestamp_month: RTC_JAN, RTC_FEB, RTC_MAR, RTC_APR, RTC_MAY, RTC_JUN,
 527:Drivers/GD32E23x_standard_peripheral/Source/gd32e23x_rtc.c ****                                        RTC_JUL, RTC_AUG, RTC_SEP, RTC_OCT, RTC_NOV, RTC_DEC
 528:Drivers/GD32E23x_standard_peripheral/Source/gd32e23x_rtc.c ****                   rtc_timestamp_date: 0x1 - 0x31(BCD format)
 529:Drivers/GD32E23x_standard_peripheral/Source/gd32e23x_rtc.c ****                   rtc_timestamp_day: RTC_MONDAY, RTC_TUESDAY, RTC_WEDSDAY, RTC_THURSDAY, RTC_FRIDAY
 530:Drivers/GD32E23x_standard_peripheral/Source/gd32e23x_rtc.c ****                                      RTC_SATURDAY, RTC_SUNDAY if RTC_ALARM_WEEKDAY_SELECTED is set
 531:Drivers/GD32E23x_standard_peripheral/Source/gd32e23x_rtc.c ****                   rtc_timestamp_hour: 0x0 - 0x12(BCD format) or 0x0 - 0x23(BCD format) depending on
 532:Drivers/GD32E23x_standard_peripheral/Source/gd32e23x_rtc.c ****                   rtc_timestamp_minute: 0x0 - 0x59(BCD format)
 533:Drivers/GD32E23x_standard_peripheral/Source/gd32e23x_rtc.c ****                   rtc_timestamp_second: 0x0 - 0x59(BCD format)
 534:Drivers/GD32E23x_standard_peripheral/Source/gd32e23x_rtc.c ****                   rtc_am_pm: RTC_AM, RTC_PM
 535:Drivers/GD32E23x_standard_peripheral/Source/gd32e23x_rtc.c ****     \retval     none
 536:Drivers/GD32E23x_standard_peripheral/Source/gd32e23x_rtc.c **** */
 537:Drivers/GD32E23x_standard_peripheral/Source/gd32e23x_rtc.c **** void rtc_timestamp_get(rtc_timestamp_struct* rtc_timestamp)
 538:Drivers/GD32E23x_standard_peripheral/Source/gd32e23x_rtc.c **** {
 1189              		.loc 1 538 1 is_stmt 1 view -0
 1190              		.cfi_startproc
 1191              		@ args = 0, pretend = 0, frame = 0
 1192              		@ frame_needed = 0, uses_anonymous_args = 0
 1193              		.loc 1 538 1 is_stmt 0 view .LVU342
 1194 0000 10B5     		push	{r4, lr}
 1195              	.LCFI5:
 1196              		.cfi_def_cfa_offset 8
 1197              		.cfi_offset 4, -8
 1198              		.cfi_offset 14, -4
 539:Drivers/GD32E23x_standard_peripheral/Source/gd32e23x_rtc.c ****     uint32_t temp_tts = 0x00U, temp_dts = 0x00U;
 1199              		.loc 1 539 5 is_stmt 1 view .LVU343
 1200              	.LVL66:
 540:Drivers/GD32E23x_standard_peripheral/Source/gd32e23x_rtc.c **** 
 541:Drivers/GD32E23x_standard_peripheral/Source/gd32e23x_rtc.c ****     /* get the value of time_stamp registers */
 542:Drivers/GD32E23x_standard_peripheral/Source/gd32e23x_rtc.c ****     temp_tts = (uint32_t)RTC_TTS;
 1201              		.loc 1 542 5 view .LVU344
 1202              		.loc 1 542 14 is_stmt 0 view .LVU345
 1203 0002 42F63003 		movw	r3, #10288
 1204 0006 C4F20003 		movt	r3, 16384
 1205 000a 1A68     		ldr	r2, [r3]
 1206              	.LVL67:
 543:Drivers/GD32E23x_standard_peripheral/Source/gd32e23x_rtc.c ****     temp_dts = (uint32_t)RTC_DTS;
 1207              		.loc 1 543 5 is_stmt 1 view .LVU346
 1208              		.loc 1 543 14 is_stmt 0 view .LVU347
 1209 000c 42F63403 		movw	r3, #10292
 1210 0010 C4F20003 		movt	r3, 16384
 1211 0014 1B68     		ldr	r3, [r3]
 1212              	.LVL68:
ARM GAS  /var/folders/rv/zq8s_02j1dj4vjvr1mm5zl2r0000gn/T//cczf42zg.s 			page 33


 544:Drivers/GD32E23x_standard_peripheral/Source/gd32e23x_rtc.c ****   
 545:Drivers/GD32E23x_standard_peripheral/Source/gd32e23x_rtc.c ****     /* get timestamp time and construct the rtc_timestamp_struct structure */
 546:Drivers/GD32E23x_standard_peripheral/Source/gd32e23x_rtc.c ****     rtc_timestamp->rtc_am_pm = (uint32_t)(temp_tts & RTC_TTS_PM);
 1213              		.loc 1 546 5 is_stmt 1 view .LVU348
 1214              		.loc 1 546 32 is_stmt 0 view .LVU349
 1215 0016 8021     		movs	r1, #128
 1216 0018 C903     		lsls	r1, r1, #15
 1217 001a 1140     		ands	r1, r2
 1218              		.loc 1 546 30 view .LVU350
 1219 001c 8160     		str	r1, [r0, #8]
 547:Drivers/GD32E23x_standard_peripheral/Source/gd32e23x_rtc.c ****     rtc_timestamp->rtc_timestamp_month = (uint8_t)GET_DTS_MON(temp_dts);
 1220              		.loc 1 547 5 is_stmt 1 view .LVU351
 1221              		.loc 1 547 51 is_stmt 0 view .LVU352
 1222 001e 1C0A     		lsrs	r4, r3, #8
 1223              		.loc 1 547 42 view .LVU353
 1224 0020 1F21     		movs	r1, #31
 1225 0022 2140     		ands	r1, r4
 1226              		.loc 1 547 40 view .LVU354
 1227 0024 0170     		strb	r1, [r0]
 548:Drivers/GD32E23x_standard_peripheral/Source/gd32e23x_rtc.c ****     rtc_timestamp->rtc_timestamp_date = (uint8_t)GET_DTS_DAY(temp_dts);
 1228              		.loc 1 548 5 is_stmt 1 view .LVU355
 1229              		.loc 1 548 41 is_stmt 0 view .LVU356
 1230 0026 3F21     		movs	r1, #63
 1231 0028 0C00     		movs	r4, r1
 1232 002a 1C40     		ands	r4, r3
 1233              		.loc 1 548 39 view .LVU357
 1234 002c 4470     		strb	r4, [r0, #1]
 549:Drivers/GD32E23x_standard_peripheral/Source/gd32e23x_rtc.c ****     rtc_timestamp->rtc_timestamp_day = (uint8_t)GET_DTS_DOW(temp_dts);
 1235              		.loc 1 549 5 is_stmt 1 view .LVU358
 1236              		.loc 1 549 49 is_stmt 0 view .LVU359
 1237 002e 5B0B     		lsrs	r3, r3, #13
 1238              	.LVL69:
 1239              		.loc 1 549 40 view .LVU360
 1240 0030 0724     		movs	r4, #7
 1241 0032 2340     		ands	r3, r4
 1242              		.loc 1 549 38 view .LVU361
 1243 0034 8370     		strb	r3, [r0, #2]
 550:Drivers/GD32E23x_standard_peripheral/Source/gd32e23x_rtc.c ****     rtc_timestamp->rtc_timestamp_hour = (uint8_t)GET_TTS_HR(temp_tts);
 1244              		.loc 1 550 5 is_stmt 1 view .LVU362
 1245              		.loc 1 550 50 is_stmt 0 view .LVU363
 1246 0036 130C     		lsrs	r3, r2, #16
 1247              		.loc 1 550 41 view .LVU364
 1248 0038 1940     		ands	r1, r3
 1249              		.loc 1 550 39 view .LVU365
 1250 003a C170     		strb	r1, [r0, #3]
 551:Drivers/GD32E23x_standard_peripheral/Source/gd32e23x_rtc.c ****     rtc_timestamp->rtc_timestamp_minute = (uint8_t)GET_TTS_MN(temp_tts);
 1251              		.loc 1 551 5 is_stmt 1 view .LVU366
 1252              		.loc 1 551 52 is_stmt 0 view .LVU367
 1253 003c 110A     		lsrs	r1, r2, #8
 1254              		.loc 1 551 43 view .LVU368
 1255 003e 7F23     		movs	r3, #127
 1256 0040 1940     		ands	r1, r3
 1257              		.loc 1 551 41 view .LVU369
 1258 0042 0171     		strb	r1, [r0, #4]
 552:Drivers/GD32E23x_standard_peripheral/Source/gd32e23x_rtc.c ****     rtc_timestamp->rtc_timestamp_second = (uint8_t)GET_TTS_SC(temp_tts);
 1259              		.loc 1 552 5 is_stmt 1 view .LVU370
 1260              		.loc 1 552 43 is_stmt 0 view .LVU371
ARM GAS  /var/folders/rv/zq8s_02j1dj4vjvr1mm5zl2r0000gn/T//cczf42zg.s 			page 34


 1261 0044 1340     		ands	r3, r2
 1262              		.loc 1 552 41 view .LVU372
 1263 0046 4371     		strb	r3, [r0, #5]
 553:Drivers/GD32E23x_standard_peripheral/Source/gd32e23x_rtc.c **** }
 1264              		.loc 1 553 1 view .LVU373
 1265              		@ sp needed
 1266 0048 10BD     		pop	{r4, pc}
 1267              		.cfi_endproc
 1268              	.LFE81:
 1270              		.section	.text.rtc_timestamp_subsecond_get,"ax",%progbits
 1271              		.align	1
 1272              		.global	rtc_timestamp_subsecond_get
 1273              		.syntax unified
 1274              		.code	16
 1275              		.thumb_func
 1276              		.fpu softvfp
 1278              	rtc_timestamp_subsecond_get:
 1279              	.LFB82:
 554:Drivers/GD32E23x_standard_peripheral/Source/gd32e23x_rtc.c **** 
 555:Drivers/GD32E23x_standard_peripheral/Source/gd32e23x_rtc.c **** /*!
 556:Drivers/GD32E23x_standard_peripheral/Source/gd32e23x_rtc.c ****     \brief      get RTC time-stamp subsecond
 557:Drivers/GD32E23x_standard_peripheral/Source/gd32e23x_rtc.c ****     \param[in]  none
 558:Drivers/GD32E23x_standard_peripheral/Source/gd32e23x_rtc.c ****     \param[out] none
 559:Drivers/GD32E23x_standard_peripheral/Source/gd32e23x_rtc.c ****     \retval     RTC time-stamp subsecond value
 560:Drivers/GD32E23x_standard_peripheral/Source/gd32e23x_rtc.c **** */
 561:Drivers/GD32E23x_standard_peripheral/Source/gd32e23x_rtc.c **** uint32_t rtc_timestamp_subsecond_get(void)
 562:Drivers/GD32E23x_standard_peripheral/Source/gd32e23x_rtc.c **** {
 1280              		.loc 1 562 1 is_stmt 1 view -0
 1281              		.cfi_startproc
 1282              		@ args = 0, pretend = 0, frame = 0
 1283              		@ frame_needed = 0, uses_anonymous_args = 0
 1284              		@ link register save eliminated.
 563:Drivers/GD32E23x_standard_peripheral/Source/gd32e23x_rtc.c ****     return ((uint32_t)RTC_SSTS);
 1285              		.loc 1 563 5 view .LVU375
 1286              		.loc 1 563 13 is_stmt 0 view .LVU376
 1287 0000 42F63803 		movw	r3, #10296
 1288 0004 C4F20003 		movt	r3, 16384
 1289 0008 1868     		ldr	r0, [r3]
 564:Drivers/GD32E23x_standard_peripheral/Source/gd32e23x_rtc.c **** }
 1290              		.loc 1 564 1 view .LVU377
 1291              		@ sp needed
 1292 000a 7047     		bx	lr
 1293              		.cfi_endproc
 1294              	.LFE82:
 1296              		.section	.text.rtc_tamper_enable,"ax",%progbits
 1297              		.align	1
 1298              		.global	rtc_tamper_enable
 1299              		.syntax unified
 1300              		.code	16
 1301              		.thumb_func
 1302              		.fpu softvfp
 1304              	rtc_tamper_enable:
 1305              	.LVL70:
 1306              	.LFB83:
 565:Drivers/GD32E23x_standard_peripheral/Source/gd32e23x_rtc.c **** 
 566:Drivers/GD32E23x_standard_peripheral/Source/gd32e23x_rtc.c **** 
 567:Drivers/GD32E23x_standard_peripheral/Source/gd32e23x_rtc.c **** /*!
ARM GAS  /var/folders/rv/zq8s_02j1dj4vjvr1mm5zl2r0000gn/T//cczf42zg.s 			page 35


 568:Drivers/GD32E23x_standard_peripheral/Source/gd32e23x_rtc.c ****     \brief      enable RTC tamper
 569:Drivers/GD32E23x_standard_peripheral/Source/gd32e23x_rtc.c ****     \param[in]  rtc_tamper: pointer to a rtc_tamper_struct structure which contains 
 570:Drivers/GD32E23x_standard_peripheral/Source/gd32e23x_rtc.c ****                 parameters for RTC tamper configuration
 571:Drivers/GD32E23x_standard_peripheral/Source/gd32e23x_rtc.c ****                 members of the structure and the member values are shown as below:
 572:Drivers/GD32E23x_standard_peripheral/Source/gd32e23x_rtc.c ****                   rtc_tamper_source: RTC_TAMPER0, RTC_TAMPER1
 573:Drivers/GD32E23x_standard_peripheral/Source/gd32e23x_rtc.c ****                   rtc_tamper_trigger: RTC_TAMPER_TRIGGER_EDGE_RISING, RTC_TAMPER_TRIGGER_EDGE_FALLI
 574:Drivers/GD32E23x_standard_peripheral/Source/gd32e23x_rtc.c ****                                       RTC_TAMPER_TRIGGER_LEVEL_LOW, RTC_TAMPER_TRIGGER_LEVEL_HIGH
 575:Drivers/GD32E23x_standard_peripheral/Source/gd32e23x_rtc.c ****                   rtc_tamper_filter: RTC_FLT_EDGE, RTC_FLT_2S, RTC_FLT_4S, RTC_FLT_8S
 576:Drivers/GD32E23x_standard_peripheral/Source/gd32e23x_rtc.c ****                   rtc_tamper_sample_frequency: RTC_FREQ_DIV32768, RTC_FREQ_DIV16384, RTC_FREQ_DIV81
 577:Drivers/GD32E23x_standard_peripheral/Source/gd32e23x_rtc.c ****                                                RTC_FREQ_DIV4096, RTC_FREQ_DIV2048, RTC_FREQ_DIV1024
 578:Drivers/GD32E23x_standard_peripheral/Source/gd32e23x_rtc.c ****                                                RTC_FREQ_DIV512, RTC_FREQ_DIV256
 579:Drivers/GD32E23x_standard_peripheral/Source/gd32e23x_rtc.c ****                   rtc_tamper_precharge_enable: DISABLE, ENABLE
 580:Drivers/GD32E23x_standard_peripheral/Source/gd32e23x_rtc.c ****                   rtc_tamper_precharge_time: RTC_PRCH_1C, RTC_PRCH_2C, RTC_PRCH_4C, RTC_PRCH_8C
 581:Drivers/GD32E23x_standard_peripheral/Source/gd32e23x_rtc.c ****                   rtc_tamper_with_timestamp: DISABLE, ENABLE
 582:Drivers/GD32E23x_standard_peripheral/Source/gd32e23x_rtc.c ****     \param[out] none
 583:Drivers/GD32E23x_standard_peripheral/Source/gd32e23x_rtc.c ****     \retval     none
 584:Drivers/GD32E23x_standard_peripheral/Source/gd32e23x_rtc.c **** */
 585:Drivers/GD32E23x_standard_peripheral/Source/gd32e23x_rtc.c **** void rtc_tamper_enable(rtc_tamper_struct* rtc_tamper)
 586:Drivers/GD32E23x_standard_peripheral/Source/gd32e23x_rtc.c **** {
 1307              		.loc 1 586 1 is_stmt 1 view -0
 1308              		.cfi_startproc
 1309              		@ args = 0, pretend = 0, frame = 0
 1310              		@ frame_needed = 0, uses_anonymous_args = 0
 1311              		@ link register save eliminated.
 587:Drivers/GD32E23x_standard_peripheral/Source/gd32e23x_rtc.c ****     /* disable tamper */
 588:Drivers/GD32E23x_standard_peripheral/Source/gd32e23x_rtc.c ****     RTC_TAMP &= (uint32_t)~(rtc_tamper->rtc_tamper_source); 
 1312              		.loc 1 588 5 view .LVU379
 1313              		.loc 1 588 14 is_stmt 0 view .LVU380
 1314 0000 42F64003 		movw	r3, #10304
 1315 0004 C4F20003 		movt	r3, 16384
 1316 0008 1A68     		ldr	r2, [r3]
 1317 000a 0168     		ldr	r1, [r0]
 1318 000c 8A43     		bics	r2, r1
 1319 000e 1A60     		str	r2, [r3]
 589:Drivers/GD32E23x_standard_peripheral/Source/gd32e23x_rtc.c **** 
 590:Drivers/GD32E23x_standard_peripheral/Source/gd32e23x_rtc.c ****     /* tamper filter must be used when the tamper source is voltage level detection */
 591:Drivers/GD32E23x_standard_peripheral/Source/gd32e23x_rtc.c ****     RTC_TAMP &= (uint32_t)~RTC_TAMP_FLT;
 1320              		.loc 1 591 5 is_stmt 1 view .LVU381
 1321              		.loc 1 591 14 is_stmt 0 view .LVU382
 1322 0010 1A68     		ldr	r2, [r3]
 1323 0012 2E49     		ldr	r1, .L49
 1324 0014 0A40     		ands	r2, r1
 1325 0016 1A60     		str	r2, [r3]
 592:Drivers/GD32E23x_standard_peripheral/Source/gd32e23x_rtc.c ****     
 593:Drivers/GD32E23x_standard_peripheral/Source/gd32e23x_rtc.c ****     /* the tamper source is voltage level detection */
 594:Drivers/GD32E23x_standard_peripheral/Source/gd32e23x_rtc.c ****     if(rtc_tamper->rtc_tamper_filter != RTC_FLT_EDGE ){ 
 1326              		.loc 1 594 5 is_stmt 1 view .LVU383
 1327              		.loc 1 594 7 is_stmt 0 view .LVU384
 1328 0018 8368     		ldr	r3, [r0, #8]
 1329 001a FBB1     		cbz	r3, .L44
 595:Drivers/GD32E23x_standard_peripheral/Source/gd32e23x_rtc.c ****         RTC_TAMP &= (uint32_t)~(RTC_TAMP_DISPU | RTC_TAMP_PRCH | RTC_TAMP_FREQ | RTC_TAMP_FLT);
 1330              		.loc 1 595 9 is_stmt 1 view .LVU385
 1331              		.loc 1 595 18 is_stmt 0 view .LVU386
 1332 001c 42F64003 		movw	r3, #10304
 1333 0020 C4F20003 		movt	r3, 16384
 1334 0024 1A68     		ldr	r2, [r3]
 1335 0026 2A49     		ldr	r1, .L49+4
ARM GAS  /var/folders/rv/zq8s_02j1dj4vjvr1mm5zl2r0000gn/T//cczf42zg.s 			page 36


 1336 0028 0A40     		ands	r2, r1
 1337 002a 1A60     		str	r2, [r3]
 596:Drivers/GD32E23x_standard_peripheral/Source/gd32e23x_rtc.c **** 
 597:Drivers/GD32E23x_standard_peripheral/Source/gd32e23x_rtc.c ****         /* check if the tamper pin need precharge, if need, then configure the precharge time */
 598:Drivers/GD32E23x_standard_peripheral/Source/gd32e23x_rtc.c ****         if(DISABLE == rtc_tamper->rtc_tamper_precharge_enable){
 1338              		.loc 1 598 9 is_stmt 1 view .LVU387
 1339              		.loc 1 598 33 is_stmt 0 view .LVU388
 1340 002c 037C     		ldrb	r3, [r0, #16]
 1341              		.loc 1 598 11 view .LVU389
 1342 002e 002B     		cmp	r3, #0
 1343 0030 42D1     		bne	.L45
 599:Drivers/GD32E23x_standard_peripheral/Source/gd32e23x_rtc.c ****             RTC_TAMP |=  (uint32_t)RTC_TAMP_DISPU;    
 1344              		.loc 1 599 13 is_stmt 1 view .LVU390
 1345              		.loc 1 599 22 is_stmt 0 view .LVU391
 1346 0032 42F64003 		movw	r3, #10304
 1347 0036 C4F20003 		movt	r3, 16384
 1348 003a 1A68     		ldr	r2, [r3]
 1349 003c 48F20001 		movw	r1, #32768
 1350 0040 0A43     		orrs	r2, r1
 1351 0042 1A60     		str	r2, [r3]
 1352              	.L46:
 600:Drivers/GD32E23x_standard_peripheral/Source/gd32e23x_rtc.c ****         }else{
 601:Drivers/GD32E23x_standard_peripheral/Source/gd32e23x_rtc.c ****             RTC_TAMP |= (uint32_t)(rtc_tamper->rtc_tamper_precharge_time);
 602:Drivers/GD32E23x_standard_peripheral/Source/gd32e23x_rtc.c ****         }
 603:Drivers/GD32E23x_standard_peripheral/Source/gd32e23x_rtc.c **** 
 604:Drivers/GD32E23x_standard_peripheral/Source/gd32e23x_rtc.c ****         RTC_TAMP |= (uint32_t)(rtc_tamper->rtc_tamper_sample_frequency);
 1353              		.loc 1 604 9 is_stmt 1 view .LVU392
 1354              		.loc 1 604 18 is_stmt 0 view .LVU393
 1355 0044 42F64003 		movw	r3, #10304
 1356 0048 C4F20003 		movt	r3, 16384
 1357 004c 1A68     		ldr	r2, [r3]
 1358 004e C168     		ldr	r1, [r0, #12]
 1359 0050 0A43     		orrs	r2, r1
 1360 0052 1A60     		str	r2, [r3]
 605:Drivers/GD32E23x_standard_peripheral/Source/gd32e23x_rtc.c ****         RTC_TAMP |= (uint32_t)(rtc_tamper->rtc_tamper_filter);
 1361              		.loc 1 605 9 is_stmt 1 view .LVU394
 1362              		.loc 1 605 18 is_stmt 0 view .LVU395
 1363 0054 1A68     		ldr	r2, [r3]
 1364 0056 8168     		ldr	r1, [r0, #8]
 1365 0058 0A43     		orrs	r2, r1
 1366 005a 1A60     		str	r2, [r3]
 1367              	.L44:
 606:Drivers/GD32E23x_standard_peripheral/Source/gd32e23x_rtc.c ****     }
 607:Drivers/GD32E23x_standard_peripheral/Source/gd32e23x_rtc.c ****     RTC_TAMP &= (uint32_t)~RTC_TAMP_TPTS;  
 1368              		.loc 1 607 5 is_stmt 1 view .LVU396
 1369              		.loc 1 607 14 is_stmt 0 view .LVU397
 1370 005c 42F64003 		movw	r3, #10304
 1371 0060 C4F20003 		movt	r3, 16384
 1372 0064 1A68     		ldr	r2, [r3]
 1373 0066 8021     		movs	r1, #128
 1374 0068 8A43     		bics	r2, r1
 1375 006a 1A60     		str	r2, [r3]
 608:Drivers/GD32E23x_standard_peripheral/Source/gd32e23x_rtc.c ****     
 609:Drivers/GD32E23x_standard_peripheral/Source/gd32e23x_rtc.c ****     if(DISABLE != rtc_tamper->rtc_tamper_with_timestamp){           
 1376              		.loc 1 609 5 is_stmt 1 view .LVU398
 1377              		.loc 1 609 29 is_stmt 0 view .LVU399
 1378 006c 037E     		ldrb	r3, [r0, #24]
ARM GAS  /var/folders/rv/zq8s_02j1dj4vjvr1mm5zl2r0000gn/T//cczf42zg.s 			page 37


 1379              		.loc 1 609 7 view .LVU400
 1380 006e 33B1     		cbz	r3, .L47
 610:Drivers/GD32E23x_standard_peripheral/Source/gd32e23x_rtc.c ****         /* the tamper event also cause a time-stamp event */
 611:Drivers/GD32E23x_standard_peripheral/Source/gd32e23x_rtc.c ****         RTC_TAMP |= (uint32_t)RTC_TAMP_TPTS;
 1381              		.loc 1 611 9 is_stmt 1 view .LVU401
 1382              		.loc 1 611 18 is_stmt 0 view .LVU402
 1383 0070 42F64003 		movw	r3, #10304
 1384 0074 C4F20003 		movt	r3, 16384
 1385 0078 1A68     		ldr	r2, [r3]
 1386 007a 0A43     		orrs	r2, r1
 1387 007c 1A60     		str	r2, [r3]
 1388              	.L47:
 612:Drivers/GD32E23x_standard_peripheral/Source/gd32e23x_rtc.c ****     } 
 613:Drivers/GD32E23x_standard_peripheral/Source/gd32e23x_rtc.c ****     /* configure the tamper trigger */
 614:Drivers/GD32E23x_standard_peripheral/Source/gd32e23x_rtc.c ****     RTC_TAMP &= ((uint32_t)~((rtc_tamper->rtc_tamper_source) << RTC_TAMPER_TRIGGER_POS));    
 1389              		.loc 1 614 5 is_stmt 1 view .LVU403
 1390              		.loc 1 614 14 is_stmt 0 view .LVU404
 1391 007e 42F64003 		movw	r3, #10304
 1392 0082 C4F20003 		movt	r3, 16384
 1393 0086 1A68     		ldr	r2, [r3]
 1394              		.loc 1 614 62 view .LVU405
 1395 0088 0168     		ldr	r1, [r0]
 1396 008a 4900     		lsls	r1, r1, #1
 1397              		.loc 1 614 14 view .LVU406
 1398 008c 8A43     		bics	r2, r1
 1399 008e 1A60     		str	r2, [r3]
 615:Drivers/GD32E23x_standard_peripheral/Source/gd32e23x_rtc.c ****     if(RTC_TAMPER_TRIGGER_EDGE_RISING != rtc_tamper->rtc_tamper_trigger){
 1400              		.loc 1 615 5 is_stmt 1 view .LVU407
 1401              		.loc 1 615 7 is_stmt 0 view .LVU408
 1402 0090 4368     		ldr	r3, [r0, #4]
 1403 0092 43B1     		cbz	r3, .L48
 616:Drivers/GD32E23x_standard_peripheral/Source/gd32e23x_rtc.c ****         RTC_TAMP |= (uint32_t)((rtc_tamper->rtc_tamper_source)<< RTC_TAMPER_TRIGGER_POS);  
 1404              		.loc 1 616 9 is_stmt 1 view .LVU409
 1405              		.loc 1 616 18 is_stmt 0 view .LVU410
 1406 0094 42F64003 		movw	r3, #10304
 1407 0098 C4F20003 		movt	r3, 16384
 1408 009c 1A68     		ldr	r2, [r3]
 1409              		.loc 1 616 63 view .LVU411
 1410 009e 0168     		ldr	r1, [r0]
 1411 00a0 4900     		lsls	r1, r1, #1
 1412              		.loc 1 616 18 view .LVU412
 1413 00a2 0A43     		orrs	r2, r1
 1414 00a4 1A60     		str	r2, [r3]
 1415              	.L48:
 617:Drivers/GD32E23x_standard_peripheral/Source/gd32e23x_rtc.c ****     }    
 618:Drivers/GD32E23x_standard_peripheral/Source/gd32e23x_rtc.c ****     /* enable tamper */
 619:Drivers/GD32E23x_standard_peripheral/Source/gd32e23x_rtc.c ****     RTC_TAMP |=  (uint32_t)(rtc_tamper->rtc_tamper_source); 
 1416              		.loc 1 619 5 is_stmt 1 view .LVU413
 1417              		.loc 1 619 14 is_stmt 0 view .LVU414
 1418 00a6 42F64003 		movw	r3, #10304
 1419 00aa C4F20003 		movt	r3, 16384
 1420 00ae 1A68     		ldr	r2, [r3]
 1421              		.loc 1 619 39 view .LVU415
 1422 00b0 0168     		ldr	r1, [r0]
 1423              		.loc 1 619 14 view .LVU416
 1424 00b2 0A43     		orrs	r2, r1
 1425 00b4 1A60     		str	r2, [r3]
ARM GAS  /var/folders/rv/zq8s_02j1dj4vjvr1mm5zl2r0000gn/T//cczf42zg.s 			page 38


 620:Drivers/GD32E23x_standard_peripheral/Source/gd32e23x_rtc.c **** }
 1426              		.loc 1 620 1 view .LVU417
 1427              		@ sp needed
 1428 00b6 7047     		bx	lr
 1429              	.L45:
 601:Drivers/GD32E23x_standard_peripheral/Source/gd32e23x_rtc.c ****         }
 1430              		.loc 1 601 13 is_stmt 1 view .LVU418
 601:Drivers/GD32E23x_standard_peripheral/Source/gd32e23x_rtc.c ****         }
 1431              		.loc 1 601 22 is_stmt 0 view .LVU419
 1432 00b8 42F64003 		movw	r3, #10304
 1433 00bc C4F20003 		movt	r3, 16384
 1434 00c0 1A68     		ldr	r2, [r3]
 1435 00c2 4169     		ldr	r1, [r0, #20]
 1436 00c4 0A43     		orrs	r2, r1
 1437 00c6 1A60     		str	r2, [r3]
 1438 00c8 BCE7     		b	.L46
 1439              	.L50:
 1440 00ca C046     		.align	2
 1441              	.L49:
 1442 00cc FFE7FFFF 		.word	-6145
 1443 00d0 FF00FFFF 		.word	-65281
 1444              		.cfi_endproc
 1445              	.LFE83:
 1447              		.section	.text.rtc_tamper_disable,"ax",%progbits
 1448              		.align	1
 1449              		.global	rtc_tamper_disable
 1450              		.syntax unified
 1451              		.code	16
 1452              		.thumb_func
 1453              		.fpu softvfp
 1455              	rtc_tamper_disable:
 1456              	.LVL71:
 1457              	.LFB84:
 621:Drivers/GD32E23x_standard_peripheral/Source/gd32e23x_rtc.c **** 
 622:Drivers/GD32E23x_standard_peripheral/Source/gd32e23x_rtc.c **** /*!
 623:Drivers/GD32E23x_standard_peripheral/Source/gd32e23x_rtc.c ****     \brief      disable RTC tamper
 624:Drivers/GD32E23x_standard_peripheral/Source/gd32e23x_rtc.c ****     \param[in]  source: specify which tamper source to be disabled
 625:Drivers/GD32E23x_standard_peripheral/Source/gd32e23x_rtc.c ****                 only one parameter can be selected which is shown as below:
 626:Drivers/GD32E23x_standard_peripheral/Source/gd32e23x_rtc.c ****       \arg        RTC_TAMPER0
 627:Drivers/GD32E23x_standard_peripheral/Source/gd32e23x_rtc.c ****       \arg        RTC_TAMPER1
 628:Drivers/GD32E23x_standard_peripheral/Source/gd32e23x_rtc.c ****     \param[out] none
 629:Drivers/GD32E23x_standard_peripheral/Source/gd32e23x_rtc.c ****     \retval     none
 630:Drivers/GD32E23x_standard_peripheral/Source/gd32e23x_rtc.c **** */
 631:Drivers/GD32E23x_standard_peripheral/Source/gd32e23x_rtc.c **** void rtc_tamper_disable(uint32_t source)
 632:Drivers/GD32E23x_standard_peripheral/Source/gd32e23x_rtc.c **** {
 1458              		.loc 1 632 1 is_stmt 1 view -0
 1459              		.cfi_startproc
 1460              		@ args = 0, pretend = 0, frame = 0
 1461              		@ frame_needed = 0, uses_anonymous_args = 0
 1462              		@ link register save eliminated.
 633:Drivers/GD32E23x_standard_peripheral/Source/gd32e23x_rtc.c ****     /* disable tamper */
 634:Drivers/GD32E23x_standard_peripheral/Source/gd32e23x_rtc.c ****     RTC_TAMP &= (uint32_t)~source; 
 1463              		.loc 1 634 5 view .LVU421
 1464              		.loc 1 634 14 is_stmt 0 view .LVU422
 1465 0000 42F64003 		movw	r3, #10304
 1466 0004 C4F20003 		movt	r3, 16384
 1467 0008 1A68     		ldr	r2, [r3]
ARM GAS  /var/folders/rv/zq8s_02j1dj4vjvr1mm5zl2r0000gn/T//cczf42zg.s 			page 39


 1468 000a 8243     		bics	r2, r0
 1469 000c 1A60     		str	r2, [r3]
 635:Drivers/GD32E23x_standard_peripheral/Source/gd32e23x_rtc.c **** 
 636:Drivers/GD32E23x_standard_peripheral/Source/gd32e23x_rtc.c **** }
 1470              		.loc 1 636 1 view .LVU423
 1471              		@ sp needed
 1472 000e 7047     		bx	lr
 1473              		.cfi_endproc
 1474              	.LFE84:
 1476              		.section	.text.rtc_interrupt_enable,"ax",%progbits
 1477              		.align	1
 1478              		.global	rtc_interrupt_enable
 1479              		.syntax unified
 1480              		.code	16
 1481              		.thumb_func
 1482              		.fpu softvfp
 1484              	rtc_interrupt_enable:
 1485              	.LVL72:
 1486              	.LFB85:
 637:Drivers/GD32E23x_standard_peripheral/Source/gd32e23x_rtc.c **** 
 638:Drivers/GD32E23x_standard_peripheral/Source/gd32e23x_rtc.c **** /*!
 639:Drivers/GD32E23x_standard_peripheral/Source/gd32e23x_rtc.c ****     \brief      enable specified RTC interrupt
 640:Drivers/GD32E23x_standard_peripheral/Source/gd32e23x_rtc.c ****     \param[in]  interrupt: specify which interrupt source to be enabled
 641:Drivers/GD32E23x_standard_peripheral/Source/gd32e23x_rtc.c ****                 only one parameter can be selected which is shown as below:
 642:Drivers/GD32E23x_standard_peripheral/Source/gd32e23x_rtc.c ****       \arg        RTC_INT_TIMESTAMP: timestamp interrupt, only available for GD32E230
 643:Drivers/GD32E23x_standard_peripheral/Source/gd32e23x_rtc.c ****       \arg        RTC_INT_ALARM: alarm interrupt
 644:Drivers/GD32E23x_standard_peripheral/Source/gd32e23x_rtc.c ****       \arg        RTC_INT_TAMP: tamp interrupt
 645:Drivers/GD32E23x_standard_peripheral/Source/gd32e23x_rtc.c ****     \param[out] none
 646:Drivers/GD32E23x_standard_peripheral/Source/gd32e23x_rtc.c ****     \retval     none
 647:Drivers/GD32E23x_standard_peripheral/Source/gd32e23x_rtc.c **** */
 648:Drivers/GD32E23x_standard_peripheral/Source/gd32e23x_rtc.c **** void rtc_interrupt_enable(uint32_t interrupt)
 649:Drivers/GD32E23x_standard_peripheral/Source/gd32e23x_rtc.c **** {  
 1487              		.loc 1 649 1 is_stmt 1 view -0
 1488              		.cfi_startproc
 1489              		@ args = 0, pretend = 0, frame = 0
 1490              		@ frame_needed = 0, uses_anonymous_args = 0
 1491              		.loc 1 649 1 is_stmt 0 view .LVU425
 1492 0000 30B5     		push	{r4, r5, lr}
 1493              	.LCFI6:
 1494              		.cfi_def_cfa_offset 12
 1495              		.cfi_offset 4, -12
 1496              		.cfi_offset 5, -8
 1497              		.cfi_offset 14, -4
 650:Drivers/GD32E23x_standard_peripheral/Source/gd32e23x_rtc.c ****     /* disable the write protection */
 651:Drivers/GD32E23x_standard_peripheral/Source/gd32e23x_rtc.c ****     RTC_WPK = RTC_UNLOCK_KEY1;
 1498              		.loc 1 651 5 is_stmt 1 view .LVU426
 1499              		.loc 1 651 13 is_stmt 0 view .LVU427
 1500 0002 42F62403 		movw	r3, #10276
 1501 0006 C4F20003 		movt	r3, 16384
 1502 000a CA22     		movs	r2, #202
 1503 000c 1A60     		str	r2, [r3]
 652:Drivers/GD32E23x_standard_peripheral/Source/gd32e23x_rtc.c ****     RTC_WPK = RTC_UNLOCK_KEY2;
 1504              		.loc 1 652 5 is_stmt 1 view .LVU428
 1505              		.loc 1 652 13 is_stmt 0 view .LVU429
 1506 000e 773A     		subs	r2, r2, #119
 1507 0010 1A60     		str	r2, [r3]
 653:Drivers/GD32E23x_standard_peripheral/Source/gd32e23x_rtc.c ****  
ARM GAS  /var/folders/rv/zq8s_02j1dj4vjvr1mm5zl2r0000gn/T//cczf42zg.s 			page 40


 654:Drivers/GD32E23x_standard_peripheral/Source/gd32e23x_rtc.c ****     /* enable the interrupts in RTC_CTL register */
 655:Drivers/GD32E23x_standard_peripheral/Source/gd32e23x_rtc.c ****     RTC_CTL |= (uint32_t)(interrupt & (uint32_t)~RTC_TAMP_TPIE);
 1508              		.loc 1 655 5 is_stmt 1 view .LVU430
 1509              		.loc 1 655 13 is_stmt 0 view .LVU431
 1510 0012 42F60801 		movw	r1, #10248
 1511 0016 C4F20001 		movt	r1, 16384
 1512 001a 0C68     		ldr	r4, [r1]
 1513              		.loc 1 655 16 view .LVU432
 1514 001c 4F3A     		subs	r2, r2, #79
 1515 001e 0500     		movs	r5, r0
 1516 0020 9543     		bics	r5, r2
 1517              		.loc 1 655 13 view .LVU433
 1518 0022 2C43     		orrs	r4, r5
 1519 0024 0C60     		str	r4, [r1]
 656:Drivers/GD32E23x_standard_peripheral/Source/gd32e23x_rtc.c ****     /* enable the interrupts in RTC_TAMP register */
 657:Drivers/GD32E23x_standard_peripheral/Source/gd32e23x_rtc.c ****     RTC_TAMP |= (uint32_t)(interrupt & RTC_TAMP_TPIE);
 1520              		.loc 1 657 5 is_stmt 1 view .LVU434
 1521              		.loc 1 657 14 is_stmt 0 view .LVU435
 1522 0026 42F64001 		movw	r1, #10304
 1523 002a C4F20001 		movt	r1, 16384
 1524 002e 0C68     		ldr	r4, [r1]
 1525              		.loc 1 657 17 view .LVU436
 1526 0030 0240     		ands	r2, r0
 1527              		.loc 1 657 14 view .LVU437
 1528 0032 2243     		orrs	r2, r4
 1529 0034 0A60     		str	r2, [r1]
 658:Drivers/GD32E23x_standard_peripheral/Source/gd32e23x_rtc.c ****     
 659:Drivers/GD32E23x_standard_peripheral/Source/gd32e23x_rtc.c ****     /* enable the write protection */
 660:Drivers/GD32E23x_standard_peripheral/Source/gd32e23x_rtc.c ****     RTC_WPK = RTC_LOCK_KEY; 
 1530              		.loc 1 660 5 is_stmt 1 view .LVU438
 1531              		.loc 1 660 13 is_stmt 0 view .LVU439
 1532 0036 FF22     		movs	r2, #255
 1533 0038 1A60     		str	r2, [r3]
 661:Drivers/GD32E23x_standard_peripheral/Source/gd32e23x_rtc.c **** }
 1534              		.loc 1 661 1 view .LVU440
 1535              		@ sp needed
 1536 003a 30BD     		pop	{r4, r5, pc}
 1537              		.cfi_endproc
 1538              	.LFE85:
 1540              		.section	.text.rtc_interrupt_disable,"ax",%progbits
 1541              		.align	1
 1542              		.global	rtc_interrupt_disable
 1543              		.syntax unified
 1544              		.code	16
 1545              		.thumb_func
 1546              		.fpu softvfp
 1548              	rtc_interrupt_disable:
 1549              	.LVL73:
 1550              	.LFB86:
 662:Drivers/GD32E23x_standard_peripheral/Source/gd32e23x_rtc.c **** 
 663:Drivers/GD32E23x_standard_peripheral/Source/gd32e23x_rtc.c **** /*!
 664:Drivers/GD32E23x_standard_peripheral/Source/gd32e23x_rtc.c ****     \brief      disble specified RTC interrupt
 665:Drivers/GD32E23x_standard_peripheral/Source/gd32e23x_rtc.c ****     \param[in]  interrupt: specify which interrupt source to be disabled
 666:Drivers/GD32E23x_standard_peripheral/Source/gd32e23x_rtc.c ****                 only one parameter can be selected which is shown as below:
 667:Drivers/GD32E23x_standard_peripheral/Source/gd32e23x_rtc.c ****       \arg        RTC_INT_TIMESTAMP: timestamp interrupt, only available for GD32E230
 668:Drivers/GD32E23x_standard_peripheral/Source/gd32e23x_rtc.c ****       \arg        RTC_INT_ALARM: alarm interrupt
 669:Drivers/GD32E23x_standard_peripheral/Source/gd32e23x_rtc.c ****       \arg        RTC_INT_TAMP: tamp interrupt
ARM GAS  /var/folders/rv/zq8s_02j1dj4vjvr1mm5zl2r0000gn/T//cczf42zg.s 			page 41


 670:Drivers/GD32E23x_standard_peripheral/Source/gd32e23x_rtc.c ****     \param[out] none
 671:Drivers/GD32E23x_standard_peripheral/Source/gd32e23x_rtc.c ****     \retval     none
 672:Drivers/GD32E23x_standard_peripheral/Source/gd32e23x_rtc.c **** */
 673:Drivers/GD32E23x_standard_peripheral/Source/gd32e23x_rtc.c **** void rtc_interrupt_disable(uint32_t interrupt)
 674:Drivers/GD32E23x_standard_peripheral/Source/gd32e23x_rtc.c **** {  
 1551              		.loc 1 674 1 is_stmt 1 view -0
 1552              		.cfi_startproc
 1553              		@ args = 0, pretend = 0, frame = 0
 1554              		@ frame_needed = 0, uses_anonymous_args = 0
 1555              		.loc 1 674 1 is_stmt 0 view .LVU442
 1556 0000 30B5     		push	{r4, r5, lr}
 1557              	.LCFI7:
 1558              		.cfi_def_cfa_offset 12
 1559              		.cfi_offset 4, -12
 1560              		.cfi_offset 5, -8
 1561              		.cfi_offset 14, -4
 675:Drivers/GD32E23x_standard_peripheral/Source/gd32e23x_rtc.c ****     /* disable the write protection */
 676:Drivers/GD32E23x_standard_peripheral/Source/gd32e23x_rtc.c ****     RTC_WPK = RTC_UNLOCK_KEY1;
 1562              		.loc 1 676 5 is_stmt 1 view .LVU443
 1563              		.loc 1 676 13 is_stmt 0 view .LVU444
 1564 0002 42F62403 		movw	r3, #10276
 1565 0006 C4F20003 		movt	r3, 16384
 1566 000a CA22     		movs	r2, #202
 1567 000c 1A60     		str	r2, [r3]
 677:Drivers/GD32E23x_standard_peripheral/Source/gd32e23x_rtc.c ****     RTC_WPK = RTC_UNLOCK_KEY2;
 1568              		.loc 1 677 5 is_stmt 1 view .LVU445
 1569              		.loc 1 677 13 is_stmt 0 view .LVU446
 1570 000e 773A     		subs	r2, r2, #119
 1571 0010 1A60     		str	r2, [r3]
 678:Drivers/GD32E23x_standard_peripheral/Source/gd32e23x_rtc.c ****  
 679:Drivers/GD32E23x_standard_peripheral/Source/gd32e23x_rtc.c ****     /* disable the interrupts in RTC_CTL register */
 680:Drivers/GD32E23x_standard_peripheral/Source/gd32e23x_rtc.c ****     RTC_CTL &= (uint32_t)~(interrupt & (uint32_t)~RTC_TAMP_TPIE);
 1572              		.loc 1 680 5 is_stmt 1 view .LVU447
 1573              		.loc 1 680 13 is_stmt 0 view .LVU448
 1574 0012 42F60801 		movw	r1, #10248
 1575 0016 C4F20001 		movt	r1, 16384
 1576 001a 0C68     		ldr	r4, [r1]
 1577              		.loc 1 680 38 view .LVU449
 1578 001c 4F3A     		subs	r2, r2, #79
 1579 001e 0500     		movs	r5, r0
 1580 0020 9543     		bics	r5, r2
 1581              		.loc 1 680 13 view .LVU450
 1582 0022 AC43     		bics	r4, r5
 1583 0024 0C60     		str	r4, [r1]
 681:Drivers/GD32E23x_standard_peripheral/Source/gd32e23x_rtc.c ****     /* disable the interrupts in RTC_TAMP register */
 682:Drivers/GD32E23x_standard_peripheral/Source/gd32e23x_rtc.c ****     RTC_TAMP &= (uint32_t)~(interrupt & RTC_TAMP_TPIE);
 1584              		.loc 1 682 5 is_stmt 1 view .LVU451
 1585              		.loc 1 682 14 is_stmt 0 view .LVU452
 1586 0026 42F64001 		movw	r1, #10304
 1587 002a C4F20001 		movt	r1, 16384
 1588 002e 0C68     		ldr	r4, [r1]
 1589              		.loc 1 682 39 view .LVU453
 1590 0030 0240     		ands	r2, r0
 1591              		.loc 1 682 14 view .LVU454
 1592 0032 9443     		bics	r4, r2
 1593 0034 0C60     		str	r4, [r1]
 683:Drivers/GD32E23x_standard_peripheral/Source/gd32e23x_rtc.c **** 
ARM GAS  /var/folders/rv/zq8s_02j1dj4vjvr1mm5zl2r0000gn/T//cczf42zg.s 			page 42


 684:Drivers/GD32E23x_standard_peripheral/Source/gd32e23x_rtc.c ****     /* enable the write protection */
 685:Drivers/GD32E23x_standard_peripheral/Source/gd32e23x_rtc.c ****     RTC_WPK = RTC_LOCK_KEY;
 1594              		.loc 1 685 5 is_stmt 1 view .LVU455
 1595              		.loc 1 685 13 is_stmt 0 view .LVU456
 1596 0036 FF22     		movs	r2, #255
 1597 0038 1A60     		str	r2, [r3]
 686:Drivers/GD32E23x_standard_peripheral/Source/gd32e23x_rtc.c **** }
 1598              		.loc 1 686 1 view .LVU457
 1599              		@ sp needed
 1600 003a 30BD     		pop	{r4, r5, pc}
 1601              		.cfi_endproc
 1602              	.LFE86:
 1604              		.section	.text.rtc_flag_get,"ax",%progbits
 1605              		.align	1
 1606              		.global	rtc_flag_get
 1607              		.syntax unified
 1608              		.code	16
 1609              		.thumb_func
 1610              		.fpu softvfp
 1612              	rtc_flag_get:
 1613              	.LVL74:
 1614              	.LFB87:
 687:Drivers/GD32E23x_standard_peripheral/Source/gd32e23x_rtc.c **** 
 688:Drivers/GD32E23x_standard_peripheral/Source/gd32e23x_rtc.c **** /*!
 689:Drivers/GD32E23x_standard_peripheral/Source/gd32e23x_rtc.c ****     \brief      check specified flag
 690:Drivers/GD32E23x_standard_peripheral/Source/gd32e23x_rtc.c ****     \param[in]  flag: specify which flag to check
 691:Drivers/GD32E23x_standard_peripheral/Source/gd32e23x_rtc.c ****                 only one parameter can be selected which is shown as below:
 692:Drivers/GD32E23x_standard_peripheral/Source/gd32e23x_rtc.c ****       \arg        RTC_FLAG_RECALIBRATION: recalibration pending flag
 693:Drivers/GD32E23x_standard_peripheral/Source/gd32e23x_rtc.c ****       \arg        RTC_FLAG_TAMP1: tamper 1 event flag
 694:Drivers/GD32E23x_standard_peripheral/Source/gd32e23x_rtc.c ****       \arg        RTC_FLAG_TAMP0: tamper 0 event flag, only available for GD32E230
 695:Drivers/GD32E23x_standard_peripheral/Source/gd32e23x_rtc.c ****       \arg        RTC_FLAG_TIMESTAMP_OVERFLOW: time-stamp overflow event flag, only available for G
 696:Drivers/GD32E23x_standard_peripheral/Source/gd32e23x_rtc.c ****       \arg        RTC_FLAG_TIMESTAMP: time-stamp event flag, only available for GD32E230
 697:Drivers/GD32E23x_standard_peripheral/Source/gd32e23x_rtc.c ****       \arg        RTC_FLAG_ALARM0: alarm event flag
 698:Drivers/GD32E23x_standard_peripheral/Source/gd32e23x_rtc.c ****       \arg        RTC_FLAG_INIT: init mode event flag
 699:Drivers/GD32E23x_standard_peripheral/Source/gd32e23x_rtc.c ****       \arg        RTC_FLAG_RSYN: time and date registers synchronized event flag
 700:Drivers/GD32E23x_standard_peripheral/Source/gd32e23x_rtc.c ****       \arg        RTC_FLAG_YCM: year parameter configured event flag
 701:Drivers/GD32E23x_standard_peripheral/Source/gd32e23x_rtc.c ****       \arg        RTC_FLAG_SHIFT: shift operation pending flag
 702:Drivers/GD32E23x_standard_peripheral/Source/gd32e23x_rtc.c ****       \arg        RTC_FLAG_ALARM0_WRITTEN: alarm writen available flag
 703:Drivers/GD32E23x_standard_peripheral/Source/gd32e23x_rtc.c ****     \param[out] none
 704:Drivers/GD32E23x_standard_peripheral/Source/gd32e23x_rtc.c ****     \retval     FlagStatus: SET or RESET
 705:Drivers/GD32E23x_standard_peripheral/Source/gd32e23x_rtc.c **** */
 706:Drivers/GD32E23x_standard_peripheral/Source/gd32e23x_rtc.c **** FlagStatus rtc_flag_get(uint32_t flag)
 707:Drivers/GD32E23x_standard_peripheral/Source/gd32e23x_rtc.c **** {
 1615              		.loc 1 707 1 is_stmt 1 view -0
 1616              		.cfi_startproc
 1617              		@ args = 0, pretend = 0, frame = 0
 1618              		@ frame_needed = 0, uses_anonymous_args = 0
 1619              		@ link register save eliminated.
 708:Drivers/GD32E23x_standard_peripheral/Source/gd32e23x_rtc.c ****     FlagStatus flag_state = RESET;
 1620              		.loc 1 708 5 view .LVU459
 709:Drivers/GD32E23x_standard_peripheral/Source/gd32e23x_rtc.c ****     
 710:Drivers/GD32E23x_standard_peripheral/Source/gd32e23x_rtc.c ****     if((uint32_t)RESET != (RTC_STAT & flag)){   
 1621              		.loc 1 710 5 view .LVU460
 1622              		.loc 1 710 28 is_stmt 0 view .LVU461
 1623 0000 42F60C03 		movw	r3, #10252
 1624 0004 C4F20003 		movt	r3, 16384
 1625 0008 1B68     		ldr	r3, [r3]
ARM GAS  /var/folders/rv/zq8s_02j1dj4vjvr1mm5zl2r0000gn/T//cczf42zg.s 			page 43


 1626              		.loc 1 710 7 view .LVU462
 1627 000a 1842     		tst	r0, r3
 1628 000c 01D1     		bne	.L56
 708:Drivers/GD32E23x_standard_peripheral/Source/gd32e23x_rtc.c ****     FlagStatus flag_state = RESET;
 1629              		.loc 1 708 16 view .LVU463
 1630 000e 0020     		movs	r0, #0
 1631              	.LVL75:
 1632              	.L55:
 711:Drivers/GD32E23x_standard_peripheral/Source/gd32e23x_rtc.c ****         flag_state = SET;
 712:Drivers/GD32E23x_standard_peripheral/Source/gd32e23x_rtc.c ****     }
 713:Drivers/GD32E23x_standard_peripheral/Source/gd32e23x_rtc.c ****     return flag_state;
 1633              		.loc 1 713 5 is_stmt 1 view .LVU464
 714:Drivers/GD32E23x_standard_peripheral/Source/gd32e23x_rtc.c **** }
 1634              		.loc 1 714 1 is_stmt 0 view .LVU465
 1635              		@ sp needed
 1636 0010 7047     		bx	lr
 1637              	.LVL76:
 1638              	.L56:
 711:Drivers/GD32E23x_standard_peripheral/Source/gd32e23x_rtc.c ****         flag_state = SET;
 1639              		.loc 1 711 20 view .LVU466
 1640 0012 0120     		movs	r0, #1
 1641              	.LVL77:
 711:Drivers/GD32E23x_standard_peripheral/Source/gd32e23x_rtc.c ****         flag_state = SET;
 1642              		.loc 1 711 20 view .LVU467
 1643 0014 FCE7     		b	.L55
 1644              		.cfi_endproc
 1645              	.LFE87:
 1647              		.section	.text.rtc_flag_clear,"ax",%progbits
 1648              		.align	1
 1649              		.global	rtc_flag_clear
 1650              		.syntax unified
 1651              		.code	16
 1652              		.thumb_func
 1653              		.fpu softvfp
 1655              	rtc_flag_clear:
 1656              	.LVL78:
 1657              	.LFB88:
 715:Drivers/GD32E23x_standard_peripheral/Source/gd32e23x_rtc.c **** 
 716:Drivers/GD32E23x_standard_peripheral/Source/gd32e23x_rtc.c **** /*!
 717:Drivers/GD32E23x_standard_peripheral/Source/gd32e23x_rtc.c ****     \brief      clear specified flag
 718:Drivers/GD32E23x_standard_peripheral/Source/gd32e23x_rtc.c ****     \param[in]  flag: specify which flag to clear
 719:Drivers/GD32E23x_standard_peripheral/Source/gd32e23x_rtc.c ****                 only one parameter can be selected which is shown as below:
 720:Drivers/GD32E23x_standard_peripheral/Source/gd32e23x_rtc.c ****       \arg        RTC_FLAG_TAMP1: tamper 1 event flag
 721:Drivers/GD32E23x_standard_peripheral/Source/gd32e23x_rtc.c ****       \arg        RTC_FLAG_TAMP0: tamper 0 event flag, only available for GD32E230
 722:Drivers/GD32E23x_standard_peripheral/Source/gd32e23x_rtc.c ****       \arg        RTC_FLAG_TIMESTAMP_OVERFLOW: time-stamp overflow event flag, only available for G
 723:Drivers/GD32E23x_standard_peripheral/Source/gd32e23x_rtc.c ****       \arg        RTC_FLAG_TIMESTAMP: time-stamp event flag, only available for GD32E230
 724:Drivers/GD32E23x_standard_peripheral/Source/gd32e23x_rtc.c ****       \arg        RTC_FLAG_ALARM0: alarm event flag
 725:Drivers/GD32E23x_standard_peripheral/Source/gd32e23x_rtc.c ****       \arg        RTC_FLAG_RSYN: time and date registers synchronized event flag
 726:Drivers/GD32E23x_standard_peripheral/Source/gd32e23x_rtc.c ****     \param[out] none
 727:Drivers/GD32E23x_standard_peripheral/Source/gd32e23x_rtc.c ****     \retval     none
 728:Drivers/GD32E23x_standard_peripheral/Source/gd32e23x_rtc.c **** */
 729:Drivers/GD32E23x_standard_peripheral/Source/gd32e23x_rtc.c **** void rtc_flag_clear(uint32_t flag)
 730:Drivers/GD32E23x_standard_peripheral/Source/gd32e23x_rtc.c **** {
 1658              		.loc 1 730 1 is_stmt 1 view -0
 1659              		.cfi_startproc
 1660              		@ args = 0, pretend = 0, frame = 0
 1661              		@ frame_needed = 0, uses_anonymous_args = 0
ARM GAS  /var/folders/rv/zq8s_02j1dj4vjvr1mm5zl2r0000gn/T//cczf42zg.s 			page 44


 1662              		@ link register save eliminated.
 731:Drivers/GD32E23x_standard_peripheral/Source/gd32e23x_rtc.c ****     RTC_STAT &= (uint32_t)(~flag);  
 1663              		.loc 1 731 5 view .LVU469
 1664              		.loc 1 731 14 is_stmt 0 view .LVU470
 1665 0000 42F60C03 		movw	r3, #10252
 1666 0004 C4F20003 		movt	r3, 16384
 1667 0008 1A68     		ldr	r2, [r3]
 1668 000a 8243     		bics	r2, r0
 1669 000c 1A60     		str	r2, [r3]
 732:Drivers/GD32E23x_standard_peripheral/Source/gd32e23x_rtc.c **** }
 1670              		.loc 1 732 1 view .LVU471
 1671              		@ sp needed
 1672 000e 7047     		bx	lr
 1673              		.cfi_endproc
 1674              	.LFE88:
 1676              		.section	.text.rtc_alter_output_config,"ax",%progbits
 1677              		.align	1
 1678              		.global	rtc_alter_output_config
 1679              		.syntax unified
 1680              		.code	16
 1681              		.thumb_func
 1682              		.fpu softvfp
 1684              	rtc_alter_output_config:
 1685              	.LVL79:
 1686              	.LFB89:
 733:Drivers/GD32E23x_standard_peripheral/Source/gd32e23x_rtc.c **** 
 734:Drivers/GD32E23x_standard_peripheral/Source/gd32e23x_rtc.c **** #if defined(GD32E230)
 735:Drivers/GD32E23x_standard_peripheral/Source/gd32e23x_rtc.c **** /*!
 736:Drivers/GD32E23x_standard_peripheral/Source/gd32e23x_rtc.c ****     \brief      configure rtc alternate output source
 737:Drivers/GD32E23x_standard_peripheral/Source/gd32e23x_rtc.c ****     \param[in]  source: specify signal to output
 738:Drivers/GD32E23x_standard_peripheral/Source/gd32e23x_rtc.c ****                 only one parameter can be selected which is shown as below:
 739:Drivers/GD32E23x_standard_peripheral/Source/gd32e23x_rtc.c ****       \arg        RTC_CALIBRATION_512HZ: when the LSE freqency is 32768Hz and the RTC_PSC 
 740:Drivers/GD32E23x_standard_peripheral/Source/gd32e23x_rtc.c ****                                          is the default value, output 512Hz signal
 741:Drivers/GD32E23x_standard_peripheral/Source/gd32e23x_rtc.c ****       \arg        RTC_CALIBRATION_1HZ: when the LSE freqency is 32768Hz and the RTC_PSC 
 742:Drivers/GD32E23x_standard_peripheral/Source/gd32e23x_rtc.c ****                                        is the default value, output 512Hz signal
 743:Drivers/GD32E23x_standard_peripheral/Source/gd32e23x_rtc.c ****       \arg        RTC_ALARM_HIGH: when the  alarm flag is set, the output pin is high
 744:Drivers/GD32E23x_standard_peripheral/Source/gd32e23x_rtc.c ****       \arg        RTC_ALARM_LOW: when the  Alarm flag is set, the output pin is low
 745:Drivers/GD32E23x_standard_peripheral/Source/gd32e23x_rtc.c ****     \param[in]  mode: specify the output pin (PC13) mode when output alarm signal
 746:Drivers/GD32E23x_standard_peripheral/Source/gd32e23x_rtc.c ****                 only one parameter can be selected which is shown as below:
 747:Drivers/GD32E23x_standard_peripheral/Source/gd32e23x_rtc.c ****       \arg        RTC_ALARM_OUTPUT_OD: open drain mode
 748:Drivers/GD32E23x_standard_peripheral/Source/gd32e23x_rtc.c ****       \arg        RTC_ALARM_OUTPUT_PP: push pull mode
 749:Drivers/GD32E23x_standard_peripheral/Source/gd32e23x_rtc.c ****     \param[out] none
 750:Drivers/GD32E23x_standard_peripheral/Source/gd32e23x_rtc.c ****     \retval     none
 751:Drivers/GD32E23x_standard_peripheral/Source/gd32e23x_rtc.c **** */
 752:Drivers/GD32E23x_standard_peripheral/Source/gd32e23x_rtc.c **** void rtc_alter_output_config(uint32_t source, uint32_t mode)
 753:Drivers/GD32E23x_standard_peripheral/Source/gd32e23x_rtc.c **** {
 1687              		.loc 1 753 1 is_stmt 1 view -0
 1688              		.cfi_startproc
 1689              		@ args = 0, pretend = 0, frame = 0
 1690              		@ frame_needed = 0, uses_anonymous_args = 0
 1691              		.loc 1 753 1 is_stmt 0 view .LVU473
 1692 0000 10B5     		push	{r4, lr}
 1693              	.LCFI8:
 1694              		.cfi_def_cfa_offset 8
 1695              		.cfi_offset 4, -8
 1696              		.cfi_offset 14, -4
 754:Drivers/GD32E23x_standard_peripheral/Source/gd32e23x_rtc.c ****     /* disable the write protection */
ARM GAS  /var/folders/rv/zq8s_02j1dj4vjvr1mm5zl2r0000gn/T//cczf42zg.s 			page 45


 755:Drivers/GD32E23x_standard_peripheral/Source/gd32e23x_rtc.c ****     RTC_WPK = RTC_UNLOCK_KEY1;
 1697              		.loc 1 755 5 is_stmt 1 view .LVU474
 1698              		.loc 1 755 13 is_stmt 0 view .LVU475
 1699 0002 42F62403 		movw	r3, #10276
 1700 0006 C4F20003 		movt	r3, 16384
 1701 000a CA22     		movs	r2, #202
 1702 000c 1A60     		str	r2, [r3]
 756:Drivers/GD32E23x_standard_peripheral/Source/gd32e23x_rtc.c ****     RTC_WPK = RTC_UNLOCK_KEY2;
 1703              		.loc 1 756 5 is_stmt 1 view .LVU476
 1704              		.loc 1 756 13 is_stmt 0 view .LVU477
 1705 000e 773A     		subs	r2, r2, #119
 1706 0010 1A60     		str	r2, [r3]
 757:Drivers/GD32E23x_standard_peripheral/Source/gd32e23x_rtc.c **** 
 758:Drivers/GD32E23x_standard_peripheral/Source/gd32e23x_rtc.c ****     RTC_CTL &= (uint32_t)~(RTC_CTL_COEN | RTC_CTL_OS | RTC_CTL_OPOL | RTC_CTL_COS);
 1707              		.loc 1 758 5 is_stmt 1 view .LVU478
 1708              		.loc 1 758 13 is_stmt 0 view .LVU479
 1709 0012 42F60803 		movw	r3, #10248
 1710 0016 C4F20003 		movt	r3, 16384
 1711 001a 1A68     		ldr	r2, [r3]
 1712 001c 0C4C     		ldr	r4, .L60
 1713 001e 2240     		ands	r2, r4
 1714 0020 1A60     		str	r2, [r3]
 759:Drivers/GD32E23x_standard_peripheral/Source/gd32e23x_rtc.c **** 
 760:Drivers/GD32E23x_standard_peripheral/Source/gd32e23x_rtc.c ****     RTC_CTL |= (uint32_t)(source);
 1715              		.loc 1 760 5 is_stmt 1 view .LVU480
 1716              		.loc 1 760 13 is_stmt 0 view .LVU481
 1717 0022 1A68     		ldr	r2, [r3]
 1718 0024 0243     		orrs	r2, r0
 1719 0026 1A60     		str	r2, [r3]
 761:Drivers/GD32E23x_standard_peripheral/Source/gd32e23x_rtc.c ****     
 762:Drivers/GD32E23x_standard_peripheral/Source/gd32e23x_rtc.c ****     /* alarm output */
 763:Drivers/GD32E23x_standard_peripheral/Source/gd32e23x_rtc.c ****     if((uint32_t)RESET != (source & RTC_OS_ENABLE)){
 1720              		.loc 1 763 5 is_stmt 1 view .LVU482
 1721              		.loc 1 763 7 is_stmt 0 view .LVU483
 1722 0028 8302     		lsls	r3, r0, #10
 1723 002a 0AD5     		bpl	.L59
 764:Drivers/GD32E23x_standard_peripheral/Source/gd32e23x_rtc.c ****         RTC_TAMP &= (uint32_t)~(RTC_TAMP_PC13VAL);
 1724              		.loc 1 764 9 is_stmt 1 view .LVU484
 1725              		.loc 1 764 18 is_stmt 0 view .LVU485
 1726 002c 42F64003 		movw	r3, #10304
 1727 0030 C4F20003 		movt	r3, 16384
 1728 0034 1A68     		ldr	r2, [r3]
 1729 0036 0748     		ldr	r0, .L60+4
 1730              	.LVL80:
 1731              		.loc 1 764 18 view .LVU486
 1732 0038 0240     		ands	r2, r0
 1733 003a 1A60     		str	r2, [r3]
 765:Drivers/GD32E23x_standard_peripheral/Source/gd32e23x_rtc.c ****         RTC_TAMP |= (uint32_t)(mode);  
 1734              		.loc 1 765 9 is_stmt 1 view .LVU487
 1735              		.loc 1 765 18 is_stmt 0 view .LVU488
 1736 003c 1A68     		ldr	r2, [r3]
 1737 003e 1143     		orrs	r1, r2
 1738              	.LVL81:
 1739              		.loc 1 765 18 view .LVU489
 1740 0040 1960     		str	r1, [r3]
 1741              	.L59:
 766:Drivers/GD32E23x_standard_peripheral/Source/gd32e23x_rtc.c ****     }
ARM GAS  /var/folders/rv/zq8s_02j1dj4vjvr1mm5zl2r0000gn/T//cczf42zg.s 			page 46


 767:Drivers/GD32E23x_standard_peripheral/Source/gd32e23x_rtc.c ****     
 768:Drivers/GD32E23x_standard_peripheral/Source/gd32e23x_rtc.c ****     /* enable the write protection */
 769:Drivers/GD32E23x_standard_peripheral/Source/gd32e23x_rtc.c ****     RTC_WPK = RTC_LOCK_KEY;
 1742              		.loc 1 769 5 is_stmt 1 view .LVU490
 1743              		.loc 1 769 13 is_stmt 0 view .LVU491
 1744 0042 42F62403 		movw	r3, #10276
 1745 0046 C4F20003 		movt	r3, 16384
 1746 004a FF22     		movs	r2, #255
 1747 004c 1A60     		str	r2, [r3]
 770:Drivers/GD32E23x_standard_peripheral/Source/gd32e23x_rtc.c **** }
 1748              		.loc 1 770 1 view .LVU492
 1749              		@ sp needed
 1750 004e 10BD     		pop	{r4, pc}
 1751              	.L61:
 1752              		.align	2
 1753              	.L60:
 1754 0050 FFFF07FF 		.word	-16252929
 1755 0054 FFFFFBFF 		.word	-262145
 1756              		.cfi_endproc
 1757              	.LFE89:
 1759              		.section	.text.rtc_calibration_config,"ax",%progbits
 1760              		.align	1
 1761              		.global	rtc_calibration_config
 1762              		.syntax unified
 1763              		.code	16
 1764              		.thumb_func
 1765              		.fpu softvfp
 1767              	rtc_calibration_config:
 1768              	.LVL82:
 1769              	.LFB90:
 771:Drivers/GD32E23x_standard_peripheral/Source/gd32e23x_rtc.c **** #endif
 772:Drivers/GD32E23x_standard_peripheral/Source/gd32e23x_rtc.c **** 
 773:Drivers/GD32E23x_standard_peripheral/Source/gd32e23x_rtc.c **** /*!
 774:Drivers/GD32E23x_standard_peripheral/Source/gd32e23x_rtc.c ****     \brief      configure RTC calibration register
 775:Drivers/GD32E23x_standard_peripheral/Source/gd32e23x_rtc.c ****     \param[in]  window: select calibration window
 776:Drivers/GD32E23x_standard_peripheral/Source/gd32e23x_rtc.c ****                 only one parameter can be selected which is shown as below:
 777:Drivers/GD32E23x_standard_peripheral/Source/gd32e23x_rtc.c ****       \arg        RTC_CALIBRATION_WINDOW_32S: 2exp20 RTCCLK cycles, 32s if RTCCLK = 32768 Hz
 778:Drivers/GD32E23x_standard_peripheral/Source/gd32e23x_rtc.c ****       \arg        RTC_CALIBRATION_WINDOW_16S: 2exp19 RTCCLK cycles, 16s if RTCCLK = 32768 Hz
 779:Drivers/GD32E23x_standard_peripheral/Source/gd32e23x_rtc.c ****       \arg        RTC_CALIBRATION_WINDOW_8S: 2exp18 RTCCLK cycles, 8s if RTCCLK = 32768 Hz
 780:Drivers/GD32E23x_standard_peripheral/Source/gd32e23x_rtc.c ****     \param[in]  plus: add RTC clock or not
 781:Drivers/GD32E23x_standard_peripheral/Source/gd32e23x_rtc.c ****                 only one parameter can be selected which is shown as below:
 782:Drivers/GD32E23x_standard_peripheral/Source/gd32e23x_rtc.c ****       \arg        RTC_CALIBRATION_PLUS_SET: add one RTC clock every 2048 rtc clock
 783:Drivers/GD32E23x_standard_peripheral/Source/gd32e23x_rtc.c ****       \arg        RTC_CALIBRATION_PLUS_RESET: no effect
 784:Drivers/GD32E23x_standard_peripheral/Source/gd32e23x_rtc.c ****     \param[in]  minus: the RTC clock to minus during the calibration window(0x0 - 0x1FF)
 785:Drivers/GD32E23x_standard_peripheral/Source/gd32e23x_rtc.c ****     \param[out] none
 786:Drivers/GD32E23x_standard_peripheral/Source/gd32e23x_rtc.c ****     \retval     ErrStatus: ERROR or SUCCESS
 787:Drivers/GD32E23x_standard_peripheral/Source/gd32e23x_rtc.c **** */
 788:Drivers/GD32E23x_standard_peripheral/Source/gd32e23x_rtc.c **** ErrStatus rtc_calibration_config(uint32_t window, uint32_t plus, uint32_t minus)
 789:Drivers/GD32E23x_standard_peripheral/Source/gd32e23x_rtc.c **** {
 1770              		.loc 1 789 1 is_stmt 1 view -0
 1771              		.cfi_startproc
 1772              		@ args = 0, pretend = 0, frame = 0
 1773              		@ frame_needed = 0, uses_anonymous_args = 0
 1774              		.loc 1 789 1 is_stmt 0 view .LVU494
 1775 0000 30B5     		push	{r4, r5, lr}
 1776              	.LCFI9:
 1777              		.cfi_def_cfa_offset 12
ARM GAS  /var/folders/rv/zq8s_02j1dj4vjvr1mm5zl2r0000gn/T//cczf42zg.s 			page 47


 1778              		.cfi_offset 4, -12
 1779              		.cfi_offset 5, -8
 1780              		.cfi_offset 14, -4
 790:Drivers/GD32E23x_standard_peripheral/Source/gd32e23x_rtc.c ****     uint32_t time_index = RTC_HRFC_TIMEOUT;
 1781              		.loc 1 790 5 is_stmt 1 view .LVU495
 1782              	.LVL83:
 791:Drivers/GD32E23x_standard_peripheral/Source/gd32e23x_rtc.c ****     ErrStatus error_status = ERROR;
 1783              		.loc 1 791 5 view .LVU496
 792:Drivers/GD32E23x_standard_peripheral/Source/gd32e23x_rtc.c ****     uint32_t flag_status = RESET;
 1784              		.loc 1 792 5 view .LVU497
 793:Drivers/GD32E23x_standard_peripheral/Source/gd32e23x_rtc.c ****     
 794:Drivers/GD32E23x_standard_peripheral/Source/gd32e23x_rtc.c ****     /* disable the write protection */
 795:Drivers/GD32E23x_standard_peripheral/Source/gd32e23x_rtc.c ****     RTC_WPK = RTC_UNLOCK_KEY1;
 1785              		.loc 1 795 5 view .LVU498
 1786              		.loc 1 795 13 is_stmt 0 view .LVU499
 1787 0002 42F62403 		movw	r3, #10276
 1788 0006 C4F20003 		movt	r3, 16384
 1789 000a CA24     		movs	r4, #202
 1790 000c 1C60     		str	r4, [r3]
 796:Drivers/GD32E23x_standard_peripheral/Source/gd32e23x_rtc.c ****     RTC_WPK = RTC_UNLOCK_KEY2;    
 1791              		.loc 1 796 5 is_stmt 1 view .LVU500
 1792              		.loc 1 796 13 is_stmt 0 view .LVU501
 1793 000e 773C     		subs	r4, r4, #119
 1794 0010 1C60     		str	r4, [r3]
 790:Drivers/GD32E23x_standard_peripheral/Source/gd32e23x_rtc.c ****     ErrStatus error_status = ERROR;
 1795              		.loc 1 790 14 view .LVU502
 1796 0012 41F20004 		movw	r4, #4096
 1797              	.LVL84:
 1798              	.L64:
 797:Drivers/GD32E23x_standard_peripheral/Source/gd32e23x_rtc.c ****     
 798:Drivers/GD32E23x_standard_peripheral/Source/gd32e23x_rtc.c ****     /* check if a calibration operation is ongoing */        
 799:Drivers/GD32E23x_standard_peripheral/Source/gd32e23x_rtc.c ****     do{
 1799              		.loc 1 799 5 is_stmt 1 discriminator 2 view .LVU503
 800:Drivers/GD32E23x_standard_peripheral/Source/gd32e23x_rtc.c ****         flag_status = RTC_STAT & RTC_STAT_SCPF;
 1800              		.loc 1 800 9 discriminator 2 view .LVU504
 1801              		.loc 1 800 23 is_stmt 0 discriminator 2 view .LVU505
 1802 0016 42F60C03 		movw	r3, #10252
 1803 001a C4F20003 		movt	r3, 16384
 1804 001e 1B68     		ldr	r3, [r3]
 1805              		.loc 1 800 21 discriminator 2 view .LVU506
 1806 0020 8025     		movs	r5, #128
 1807 0022 6D02     		lsls	r5, r5, #9
 1808 0024 2B40     		ands	r3, r5
 1809              	.LVL85:
 801:Drivers/GD32E23x_standard_peripheral/Source/gd32e23x_rtc.c ****     }while((--time_index > 0x00U) && ((uint32_t)RESET != flag_status));
 1810              		.loc 1 801 11 is_stmt 1 discriminator 2 view .LVU507
 1811              		.loc 1 801 5 is_stmt 0 discriminator 2 view .LVU508
 1812 0026 013C     		subs	r4, r4, #1
 1813              	.LVL86:
 1814              		.loc 1 801 5 discriminator 2 view .LVU509
 1815 0028 0CB1     		cbz	r4, .L63
 1816              		.loc 1 801 35 discriminator 1 view .LVU510
 1817 002a 002B     		cmp	r3, #0
 1818 002c F3D1     		bne	.L64
 1819              	.L63:
 802:Drivers/GD32E23x_standard_peripheral/Source/gd32e23x_rtc.c ****     
 803:Drivers/GD32E23x_standard_peripheral/Source/gd32e23x_rtc.c ****     if((uint32_t)RESET == flag_status){
ARM GAS  /var/folders/rv/zq8s_02j1dj4vjvr1mm5zl2r0000gn/T//cczf42zg.s 			page 48


 1820              		.loc 1 803 5 is_stmt 1 view .LVU511
 1821              		.loc 1 803 7 is_stmt 0 view .LVU512
 1822 002e 8BB9     		cbnz	r3, .L66
 804:Drivers/GD32E23x_standard_peripheral/Source/gd32e23x_rtc.c ****         RTC_HRFC = (uint32_t)(window | plus | HRFC_CMSK(minus));
 1823              		.loc 1 804 9 is_stmt 1 view .LVU513
 1824              		.loc 1 804 38 is_stmt 0 view .LVU514
 1825 0030 0843     		orrs	r0, r1
 1826              	.LVL87:
 1827              		.loc 1 804 47 view .LVU515
 1828 0032 40F2FF11 		movw	r1, #511
 1829              	.LVL88:
 1830              		.loc 1 804 47 view .LVU516
 1831 0036 0A40     		ands	r2, r1
 1832              	.LVL89:
 1833              		.loc 1 804 20 view .LVU517
 1834 0038 1043     		orrs	r0, r2
 1835              		.loc 1 804 18 view .LVU518
 1836 003a 42F63C03 		movw	r3, #10300
 1837              	.LVL90:
 1838              		.loc 1 804 18 view .LVU519
 1839 003e C4F20003 		movt	r3, 16384
 1840 0042 1860     		str	r0, [r3]
 805:Drivers/GD32E23x_standard_peripheral/Source/gd32e23x_rtc.c ****         error_status = SUCCESS;
 1841              		.loc 1 805 9 is_stmt 1 view .LVU520
 1842              	.LVL91:
 1843              		.loc 1 805 22 is_stmt 0 view .LVU521
 1844 0044 0120     		movs	r0, #1
 1845              	.LVL92:
 1846              	.L65:
 806:Drivers/GD32E23x_standard_peripheral/Source/gd32e23x_rtc.c ****     }
 807:Drivers/GD32E23x_standard_peripheral/Source/gd32e23x_rtc.c **** 
 808:Drivers/GD32E23x_standard_peripheral/Source/gd32e23x_rtc.c ****     /* enable the write protection */
 809:Drivers/GD32E23x_standard_peripheral/Source/gd32e23x_rtc.c ****     RTC_WPK = RTC_LOCK_KEY;
 1847              		.loc 1 809 5 is_stmt 1 view .LVU522
 1848              		.loc 1 809 13 is_stmt 0 view .LVU523
 1849 0046 42F62403 		movw	r3, #10276
 1850 004a C4F20003 		movt	r3, 16384
 1851 004e FF22     		movs	r2, #255
 1852 0050 1A60     		str	r2, [r3]
 810:Drivers/GD32E23x_standard_peripheral/Source/gd32e23x_rtc.c **** 
 811:Drivers/GD32E23x_standard_peripheral/Source/gd32e23x_rtc.c ****     return error_status;
 1853              		.loc 1 811 5 is_stmt 1 view .LVU524
 812:Drivers/GD32E23x_standard_peripheral/Source/gd32e23x_rtc.c **** }
 1854              		.loc 1 812 1 is_stmt 0 view .LVU525
 1855              		@ sp needed
 1856              	.LVL93:
 1857              		.loc 1 812 1 view .LVU526
 1858 0052 30BD     		pop	{r4, r5, pc}
 1859              	.LVL94:
 1860              	.L66:
 791:Drivers/GD32E23x_standard_peripheral/Source/gd32e23x_rtc.c ****     uint32_t flag_status = RESET;
 1861              		.loc 1 791 15 view .LVU527
 1862 0054 0020     		movs	r0, #0
 1863              	.LVL95:
 791:Drivers/GD32E23x_standard_peripheral/Source/gd32e23x_rtc.c ****     uint32_t flag_status = RESET;
 1864              		.loc 1 791 15 view .LVU528
 1865 0056 F6E7     		b	.L65
ARM GAS  /var/folders/rv/zq8s_02j1dj4vjvr1mm5zl2r0000gn/T//cczf42zg.s 			page 49


 1866              		.cfi_endproc
 1867              	.LFE90:
 1869              		.section	.text.rtc_hour_adjust,"ax",%progbits
 1870              		.align	1
 1871              		.global	rtc_hour_adjust
 1872              		.syntax unified
 1873              		.code	16
 1874              		.thumb_func
 1875              		.fpu softvfp
 1877              	rtc_hour_adjust:
 1878              	.LVL96:
 1879              	.LFB91:
 813:Drivers/GD32E23x_standard_peripheral/Source/gd32e23x_rtc.c **** 
 814:Drivers/GD32E23x_standard_peripheral/Source/gd32e23x_rtc.c **** /*!
 815:Drivers/GD32E23x_standard_peripheral/Source/gd32e23x_rtc.c ****     \brief      adjust the daylight saving time by adding or substracting one hour from the current
 816:Drivers/GD32E23x_standard_peripheral/Source/gd32e23x_rtc.c ****     \param[in]  operation: hour ajustment operation
 817:Drivers/GD32E23x_standard_peripheral/Source/gd32e23x_rtc.c ****                 only one parameter can be selected which is shown as below:
 818:Drivers/GD32E23x_standard_peripheral/Source/gd32e23x_rtc.c ****       \arg        RTC_CTL_A1H: add one hour
 819:Drivers/GD32E23x_standard_peripheral/Source/gd32e23x_rtc.c ****       \arg        RTC_CTL_S1H: substract one hour
 820:Drivers/GD32E23x_standard_peripheral/Source/gd32e23x_rtc.c ****     \param[out] none
 821:Drivers/GD32E23x_standard_peripheral/Source/gd32e23x_rtc.c ****     \retval     none
 822:Drivers/GD32E23x_standard_peripheral/Source/gd32e23x_rtc.c **** */
 823:Drivers/GD32E23x_standard_peripheral/Source/gd32e23x_rtc.c **** void rtc_hour_adjust(uint32_t operation)
 824:Drivers/GD32E23x_standard_peripheral/Source/gd32e23x_rtc.c **** {
 1880              		.loc 1 824 1 is_stmt 1 view -0
 1881              		.cfi_startproc
 1882              		@ args = 0, pretend = 0, frame = 0
 1883              		@ frame_needed = 0, uses_anonymous_args = 0
 1884              		@ link register save eliminated.
 825:Drivers/GD32E23x_standard_peripheral/Source/gd32e23x_rtc.c ****     /* disable the write protection */
 826:Drivers/GD32E23x_standard_peripheral/Source/gd32e23x_rtc.c ****     RTC_WPK = RTC_UNLOCK_KEY1;
 1885              		.loc 1 826 5 view .LVU530
 1886              		.loc 1 826 13 is_stmt 0 view .LVU531
 1887 0000 42F62403 		movw	r3, #10276
 1888 0004 C4F20003 		movt	r3, 16384
 1889 0008 CA22     		movs	r2, #202
 1890 000a 1A60     		str	r2, [r3]
 827:Drivers/GD32E23x_standard_peripheral/Source/gd32e23x_rtc.c ****     RTC_WPK = RTC_UNLOCK_KEY2;
 1891              		.loc 1 827 5 is_stmt 1 view .LVU532
 1892              		.loc 1 827 13 is_stmt 0 view .LVU533
 1893 000c 773A     		subs	r2, r2, #119
 1894 000e 1A60     		str	r2, [r3]
 828:Drivers/GD32E23x_standard_peripheral/Source/gd32e23x_rtc.c **** 
 829:Drivers/GD32E23x_standard_peripheral/Source/gd32e23x_rtc.c ****     RTC_CTL |= (uint32_t)(operation);
 1895              		.loc 1 829 5 is_stmt 1 view .LVU534
 1896              		.loc 1 829 13 is_stmt 0 view .LVU535
 1897 0010 42F60802 		movw	r2, #10248
 1898 0014 C4F20002 		movt	r2, 16384
 1899 0018 1168     		ldr	r1, [r2]
 1900 001a 0143     		orrs	r1, r0
 1901 001c 1160     		str	r1, [r2]
 830:Drivers/GD32E23x_standard_peripheral/Source/gd32e23x_rtc.c **** 
 831:Drivers/GD32E23x_standard_peripheral/Source/gd32e23x_rtc.c ****     /* enable the write protection */
 832:Drivers/GD32E23x_standard_peripheral/Source/gd32e23x_rtc.c ****     RTC_WPK = RTC_LOCK_KEY;
 1902              		.loc 1 832 5 is_stmt 1 view .LVU536
 1903              		.loc 1 832 13 is_stmt 0 view .LVU537
 1904 001e FF22     		movs	r2, #255
ARM GAS  /var/folders/rv/zq8s_02j1dj4vjvr1mm5zl2r0000gn/T//cczf42zg.s 			page 50


 1905 0020 1A60     		str	r2, [r3]
 833:Drivers/GD32E23x_standard_peripheral/Source/gd32e23x_rtc.c **** }
 1906              		.loc 1 833 1 view .LVU538
 1907              		@ sp needed
 1908 0022 7047     		bx	lr
 1909              		.cfi_endproc
 1910              	.LFE91:
 1912              		.section	.text.rtc_second_adjust,"ax",%progbits
 1913              		.align	1
 1914              		.global	rtc_second_adjust
 1915              		.syntax unified
 1916              		.code	16
 1917              		.thumb_func
 1918              		.fpu softvfp
 1920              	rtc_second_adjust:
 1921              	.LVL97:
 1922              	.LFB92:
 834:Drivers/GD32E23x_standard_peripheral/Source/gd32e23x_rtc.c **** 
 835:Drivers/GD32E23x_standard_peripheral/Source/gd32e23x_rtc.c **** /*!
 836:Drivers/GD32E23x_standard_peripheral/Source/gd32e23x_rtc.c ****     \brief      adjust RTC second or subsecond value of current time
 837:Drivers/GD32E23x_standard_peripheral/Source/gd32e23x_rtc.c ****     \param[in]  add: add 1s to current time or not
 838:Drivers/GD32E23x_standard_peripheral/Source/gd32e23x_rtc.c ****                 only one parameter can be selected which is shown as below:
 839:Drivers/GD32E23x_standard_peripheral/Source/gd32e23x_rtc.c ****       \arg        RTC_SHIFT_ADD1S_RESET: no effect
 840:Drivers/GD32E23x_standard_peripheral/Source/gd32e23x_rtc.c ****       \arg        RTC_SHIFT_ADD1S_SET: add 1s to current time
 841:Drivers/GD32E23x_standard_peripheral/Source/gd32e23x_rtc.c ****     \param[in]  minus: number of subsecond to minus from current time(0x0 - 0x7FFF)
 842:Drivers/GD32E23x_standard_peripheral/Source/gd32e23x_rtc.c ****     \param[out] none
 843:Drivers/GD32E23x_standard_peripheral/Source/gd32e23x_rtc.c ****     \retval     ErrStatus: ERROR or SUCCESS
 844:Drivers/GD32E23x_standard_peripheral/Source/gd32e23x_rtc.c **** */
 845:Drivers/GD32E23x_standard_peripheral/Source/gd32e23x_rtc.c **** ErrStatus rtc_second_adjust(uint32_t add, uint32_t minus)
 846:Drivers/GD32E23x_standard_peripheral/Source/gd32e23x_rtc.c **** {
 1923              		.loc 1 846 1 is_stmt 1 view -0
 1924              		.cfi_startproc
 1925              		@ args = 0, pretend = 0, frame = 0
 1926              		@ frame_needed = 0, uses_anonymous_args = 0
 1927              		.loc 1 846 1 is_stmt 0 view .LVU540
 1928 0000 10B5     		push	{r4, lr}
 1929              	.LCFI10:
 1930              		.cfi_def_cfa_offset 8
 1931              		.cfi_offset 4, -8
 1932              		.cfi_offset 14, -4
 847:Drivers/GD32E23x_standard_peripheral/Source/gd32e23x_rtc.c ****     uint32_t time_index = RTC_SHIFTCTL_TIMEOUT;
 1933              		.loc 1 847 5 is_stmt 1 view .LVU541
 1934              	.LVL98:
 848:Drivers/GD32E23x_standard_peripheral/Source/gd32e23x_rtc.c ****     ErrStatus error_status = ERROR;
 1935              		.loc 1 848 5 view .LVU542
 849:Drivers/GD32E23x_standard_peripheral/Source/gd32e23x_rtc.c ****     uint32_t flag_status = RESET;
 1936              		.loc 1 849 5 view .LVU543
 850:Drivers/GD32E23x_standard_peripheral/Source/gd32e23x_rtc.c ****     uint32_t temp=0U;
 1937              		.loc 1 850 5 view .LVU544
 851:Drivers/GD32E23x_standard_peripheral/Source/gd32e23x_rtc.c **** 
 852:Drivers/GD32E23x_standard_peripheral/Source/gd32e23x_rtc.c ****     /* disable the write protection */
 853:Drivers/GD32E23x_standard_peripheral/Source/gd32e23x_rtc.c ****     RTC_WPK = RTC_UNLOCK_KEY1;
 1938              		.loc 1 853 5 view .LVU545
 1939              		.loc 1 853 13 is_stmt 0 view .LVU546
 1940 0002 42F62403 		movw	r3, #10276
 1941 0006 C4F20003 		movt	r3, 16384
 1942 000a CA22     		movs	r2, #202
ARM GAS  /var/folders/rv/zq8s_02j1dj4vjvr1mm5zl2r0000gn/T//cczf42zg.s 			page 51


 1943 000c 1A60     		str	r2, [r3]
 854:Drivers/GD32E23x_standard_peripheral/Source/gd32e23x_rtc.c ****     RTC_WPK = RTC_UNLOCK_KEY2;
 1944              		.loc 1 854 5 is_stmt 1 view .LVU547
 1945              		.loc 1 854 13 is_stmt 0 view .LVU548
 1946 000e 773A     		subs	r2, r2, #119
 1947 0010 1A60     		str	r2, [r3]
 847:Drivers/GD32E23x_standard_peripheral/Source/gd32e23x_rtc.c ****     ErrStatus error_status = ERROR;
 1948              		.loc 1 847 14 view .LVU549
 1949 0012 41F20002 		movw	r2, #4096
 1950              	.LVL99:
 1951              	.L70:
 855:Drivers/GD32E23x_standard_peripheral/Source/gd32e23x_rtc.c ****     
 856:Drivers/GD32E23x_standard_peripheral/Source/gd32e23x_rtc.c ****     /* check if a shift operation is ongoing */    
 857:Drivers/GD32E23x_standard_peripheral/Source/gd32e23x_rtc.c ****     do{
 1952              		.loc 1 857 5 is_stmt 1 discriminator 2 view .LVU550
 858:Drivers/GD32E23x_standard_peripheral/Source/gd32e23x_rtc.c ****         flag_status = RTC_STAT & RTC_STAT_SOPF;
 1953              		.loc 1 858 9 discriminator 2 view .LVU551
 1954              		.loc 1 858 23 is_stmt 0 discriminator 2 view .LVU552
 1955 0016 42F60C03 		movw	r3, #10252
 1956 001a C4F20003 		movt	r3, 16384
 1957 001e 1C68     		ldr	r4, [r3]
 1958              		.loc 1 858 21 discriminator 2 view .LVU553
 1959 0020 0823     		movs	r3, #8
 1960 0022 2340     		ands	r3, r4
 1961              	.LVL100:
 859:Drivers/GD32E23x_standard_peripheral/Source/gd32e23x_rtc.c ****     }while((--time_index > 0x00U) && ((uint32_t)RESET != flag_status));
 1962              		.loc 1 859 11 is_stmt 1 discriminator 2 view .LVU554
 1963              		.loc 1 859 5 is_stmt 0 discriminator 2 view .LVU555
 1964 0024 013A     		subs	r2, r2, #1
 1965              	.LVL101:
 1966              		.loc 1 859 5 discriminator 2 view .LVU556
 1967 0026 0AB1     		cbz	r2, .L69
 1968              		.loc 1 859 35 discriminator 1 view .LVU557
 1969 0028 002B     		cmp	r3, #0
 1970 002a F4D1     		bne	.L70
 1971              	.L69:
 860:Drivers/GD32E23x_standard_peripheral/Source/gd32e23x_rtc.c ****   
 861:Drivers/GD32E23x_standard_peripheral/Source/gd32e23x_rtc.c ****     temp = RTC_CTL & RTC_CTL_REFEN;
 1972              		.loc 1 861 5 is_stmt 1 view .LVU558
 1973              		.loc 1 861 12 is_stmt 0 view .LVU559
 1974 002c 42F60802 		movw	r2, #10248
 1975              	.LVL102:
 1976              		.loc 1 861 12 view .LVU560
 1977 0030 C4F20002 		movt	r2, 16384
 1978 0034 1468     		ldr	r4, [r2]
 1979              		.loc 1 861 10 view .LVU561
 1980 0036 1022     		movs	r2, #16
 1981 0038 2240     		ands	r2, r4
 1982              	.LVL103:
 862:Drivers/GD32E23x_standard_peripheral/Source/gd32e23x_rtc.c ****     /* check if the function of reference clock detection is disabled */
 863:Drivers/GD32E23x_standard_peripheral/Source/gd32e23x_rtc.c ****     if(((uint32_t)RESET == flag_status) && (RESET == temp)){  
 1983              		.loc 1 863 5 is_stmt 1 view .LVU562
 1984              		.loc 1 863 41 is_stmt 0 view .LVU563
 1985 003a 1343     		orrs	r3, r2
 1986              	.LVL104:
 1987              		.loc 1 863 7 view .LVU564
 1988 003c 3BB1     		cbz	r3, .L73
ARM GAS  /var/folders/rv/zq8s_02j1dj4vjvr1mm5zl2r0000gn/T//cczf42zg.s 			page 52


 848:Drivers/GD32E23x_standard_peripheral/Source/gd32e23x_rtc.c ****     uint32_t flag_status = RESET;
 1989              		.loc 1 848 15 view .LVU565
 1990 003e 0020     		movs	r0, #0
 1991              	.LVL105:
 1992              	.L71:
 864:Drivers/GD32E23x_standard_peripheral/Source/gd32e23x_rtc.c ****         RTC_SHIFTCTL = (uint32_t)(add | SHIFTCTL_SFS(minus));
 865:Drivers/GD32E23x_standard_peripheral/Source/gd32e23x_rtc.c ****         error_status = rtc_register_sync_wait();        
 866:Drivers/GD32E23x_standard_peripheral/Source/gd32e23x_rtc.c ****     }
 867:Drivers/GD32E23x_standard_peripheral/Source/gd32e23x_rtc.c **** 
 868:Drivers/GD32E23x_standard_peripheral/Source/gd32e23x_rtc.c ****     /* enable the write protection */
 869:Drivers/GD32E23x_standard_peripheral/Source/gd32e23x_rtc.c ****     RTC_WPK = RTC_LOCK_KEY;
 1993              		.loc 1 869 5 is_stmt 1 view .LVU566
 1994              		.loc 1 869 13 is_stmt 0 view .LVU567
 1995 0040 42F62403 		movw	r3, #10276
 1996 0044 C4F20003 		movt	r3, 16384
 1997 0048 FF22     		movs	r2, #255
 1998 004a 1A60     		str	r2, [r3]
 870:Drivers/GD32E23x_standard_peripheral/Source/gd32e23x_rtc.c **** 
 871:Drivers/GD32E23x_standard_peripheral/Source/gd32e23x_rtc.c ****     return error_status;
 1999              		.loc 1 871 5 is_stmt 1 view .LVU568
 872:Drivers/GD32E23x_standard_peripheral/Source/gd32e23x_rtc.c **** }
 2000              		.loc 1 872 1 is_stmt 0 view .LVU569
 2001              		@ sp needed
 2002              	.LVL106:
 2003              		.loc 1 872 1 view .LVU570
 2004 004c 10BD     		pop	{r4, pc}
 2005              	.LVL107:
 2006              	.L73:
 864:Drivers/GD32E23x_standard_peripheral/Source/gd32e23x_rtc.c ****         RTC_SHIFTCTL = (uint32_t)(add | SHIFTCTL_SFS(minus));
 2007              		.loc 1 864 9 is_stmt 1 view .LVU571
 864:Drivers/GD32E23x_standard_peripheral/Source/gd32e23x_rtc.c ****         RTC_SHIFTCTL = (uint32_t)(add | SHIFTCTL_SFS(minus));
 2008              		.loc 1 864 41 is_stmt 0 view .LVU572
 2009 004e 47F6FF73 		movw	r3, #32767
 2010 0052 1940     		ands	r1, r3
 2011              	.LVL108:
 864:Drivers/GD32E23x_standard_peripheral/Source/gd32e23x_rtc.c ****         RTC_SHIFTCTL = (uint32_t)(add | SHIFTCTL_SFS(minus));
 2012              		.loc 1 864 24 view .LVU573
 2013 0054 0843     		orrs	r0, r1
 2014              	.LVL109:
 864:Drivers/GD32E23x_standard_peripheral/Source/gd32e23x_rtc.c ****         RTC_SHIFTCTL = (uint32_t)(add | SHIFTCTL_SFS(minus));
 2015              		.loc 1 864 22 view .LVU574
 2016 0056 42F62C03 		movw	r3, #10284
 2017 005a C4F20003 		movt	r3, 16384
 2018 005e 1860     		str	r0, [r3]
 865:Drivers/GD32E23x_standard_peripheral/Source/gd32e23x_rtc.c ****     }
 2019              		.loc 1 865 9 is_stmt 1 view .LVU575
 865:Drivers/GD32E23x_standard_peripheral/Source/gd32e23x_rtc.c ****     }
 2020              		.loc 1 865 24 is_stmt 0 view .LVU576
 2021 0060 FFF7FEFF 		bl	rtc_register_sync_wait
 2022              	.LVL110:
 865:Drivers/GD32E23x_standard_peripheral/Source/gd32e23x_rtc.c ****     }
 2023              		.loc 1 865 24 view .LVU577
 2024 0064 ECE7     		b	.L71
 2025              		.cfi_endproc
 2026              	.LFE92:
 2028              		.section	.text.rtc_bypass_shadow_enable,"ax",%progbits
 2029              		.align	1
ARM GAS  /var/folders/rv/zq8s_02j1dj4vjvr1mm5zl2r0000gn/T//cczf42zg.s 			page 53


 2030              		.global	rtc_bypass_shadow_enable
 2031              		.syntax unified
 2032              		.code	16
 2033              		.thumb_func
 2034              		.fpu softvfp
 2036              	rtc_bypass_shadow_enable:
 2037              	.LFB93:
 873:Drivers/GD32E23x_standard_peripheral/Source/gd32e23x_rtc.c **** 
 874:Drivers/GD32E23x_standard_peripheral/Source/gd32e23x_rtc.c **** /*!
 875:Drivers/GD32E23x_standard_peripheral/Source/gd32e23x_rtc.c ****     \brief      enable RTC bypass shadow registers function
 876:Drivers/GD32E23x_standard_peripheral/Source/gd32e23x_rtc.c ****     \param[in]  none
 877:Drivers/GD32E23x_standard_peripheral/Source/gd32e23x_rtc.c ****     \param[out] none
 878:Drivers/GD32E23x_standard_peripheral/Source/gd32e23x_rtc.c ****     \retval     none
 879:Drivers/GD32E23x_standard_peripheral/Source/gd32e23x_rtc.c **** */
 880:Drivers/GD32E23x_standard_peripheral/Source/gd32e23x_rtc.c **** void rtc_bypass_shadow_enable(void)
 881:Drivers/GD32E23x_standard_peripheral/Source/gd32e23x_rtc.c **** { 
 2038              		.loc 1 881 1 is_stmt 1 view -0
 2039              		.cfi_startproc
 2040              		@ args = 0, pretend = 0, frame = 0
 2041              		@ frame_needed = 0, uses_anonymous_args = 0
 2042              		@ link register save eliminated.
 882:Drivers/GD32E23x_standard_peripheral/Source/gd32e23x_rtc.c ****     /* disable the write protection */
 883:Drivers/GD32E23x_standard_peripheral/Source/gd32e23x_rtc.c ****     RTC_WPK = RTC_UNLOCK_KEY1;
 2043              		.loc 1 883 5 view .LVU579
 2044              		.loc 1 883 13 is_stmt 0 view .LVU580
 2045 0000 42F62403 		movw	r3, #10276
 2046 0004 C4F20003 		movt	r3, 16384
 2047 0008 CA22     		movs	r2, #202
 2048 000a 1A60     		str	r2, [r3]
 884:Drivers/GD32E23x_standard_peripheral/Source/gd32e23x_rtc.c ****     RTC_WPK = RTC_UNLOCK_KEY2;
 2049              		.loc 1 884 5 is_stmt 1 view .LVU581
 2050              		.loc 1 884 13 is_stmt 0 view .LVU582
 2051 000c 773A     		subs	r2, r2, #119
 2052 000e 1A60     		str	r2, [r3]
 885:Drivers/GD32E23x_standard_peripheral/Source/gd32e23x_rtc.c **** 
 886:Drivers/GD32E23x_standard_peripheral/Source/gd32e23x_rtc.c ****     RTC_CTL |= (uint8_t)RTC_CTL_BPSHAD;
 2053              		.loc 1 886 5 is_stmt 1 view .LVU583
 2054              		.loc 1 886 13 is_stmt 0 view .LVU584
 2055 0010 42F60802 		movw	r2, #10248
 2056 0014 C4F20002 		movt	r2, 16384
 2057 0018 1168     		ldr	r1, [r2]
 2058 001a 2020     		movs	r0, #32
 2059 001c 0143     		orrs	r1, r0
 2060 001e 1160     		str	r1, [r2]
 887:Drivers/GD32E23x_standard_peripheral/Source/gd32e23x_rtc.c **** 
 888:Drivers/GD32E23x_standard_peripheral/Source/gd32e23x_rtc.c ****     /* enable the write protection */
 889:Drivers/GD32E23x_standard_peripheral/Source/gd32e23x_rtc.c ****     RTC_WPK = RTC_LOCK_KEY;
 2061              		.loc 1 889 5 is_stmt 1 view .LVU585
 2062              		.loc 1 889 13 is_stmt 0 view .LVU586
 2063 0020 FF22     		movs	r2, #255
 2064 0022 1A60     		str	r2, [r3]
 890:Drivers/GD32E23x_standard_peripheral/Source/gd32e23x_rtc.c **** }
 2065              		.loc 1 890 1 view .LVU587
 2066              		@ sp needed
 2067 0024 7047     		bx	lr
 2068              		.cfi_endproc
 2069              	.LFE93:
ARM GAS  /var/folders/rv/zq8s_02j1dj4vjvr1mm5zl2r0000gn/T//cczf42zg.s 			page 54


 2071              		.section	.text.rtc_bypass_shadow_disable,"ax",%progbits
 2072              		.align	1
 2073              		.global	rtc_bypass_shadow_disable
 2074              		.syntax unified
 2075              		.code	16
 2076              		.thumb_func
 2077              		.fpu softvfp
 2079              	rtc_bypass_shadow_disable:
 2080              	.LFB94:
 891:Drivers/GD32E23x_standard_peripheral/Source/gd32e23x_rtc.c **** 
 892:Drivers/GD32E23x_standard_peripheral/Source/gd32e23x_rtc.c **** /*!
 893:Drivers/GD32E23x_standard_peripheral/Source/gd32e23x_rtc.c ****     \brief      disable RTC bypass shadow registers function
 894:Drivers/GD32E23x_standard_peripheral/Source/gd32e23x_rtc.c ****     \param[in]  none
 895:Drivers/GD32E23x_standard_peripheral/Source/gd32e23x_rtc.c ****     \param[out] none
 896:Drivers/GD32E23x_standard_peripheral/Source/gd32e23x_rtc.c ****     \retval     none
 897:Drivers/GD32E23x_standard_peripheral/Source/gd32e23x_rtc.c **** */
 898:Drivers/GD32E23x_standard_peripheral/Source/gd32e23x_rtc.c **** void rtc_bypass_shadow_disable(void)
 899:Drivers/GD32E23x_standard_peripheral/Source/gd32e23x_rtc.c **** { 
 2081              		.loc 1 899 1 is_stmt 1 view -0
 2082              		.cfi_startproc
 2083              		@ args = 0, pretend = 0, frame = 0
 2084              		@ frame_needed = 0, uses_anonymous_args = 0
 2085              		@ link register save eliminated.
 900:Drivers/GD32E23x_standard_peripheral/Source/gd32e23x_rtc.c ****     /* disable the write protection */
 901:Drivers/GD32E23x_standard_peripheral/Source/gd32e23x_rtc.c ****     RTC_WPK = RTC_UNLOCK_KEY1;
 2086              		.loc 1 901 5 view .LVU589
 2087              		.loc 1 901 13 is_stmt 0 view .LVU590
 2088 0000 42F62403 		movw	r3, #10276
 2089 0004 C4F20003 		movt	r3, 16384
 2090 0008 CA22     		movs	r2, #202
 2091 000a 1A60     		str	r2, [r3]
 902:Drivers/GD32E23x_standard_peripheral/Source/gd32e23x_rtc.c ****     RTC_WPK = RTC_UNLOCK_KEY2;
 2092              		.loc 1 902 5 is_stmt 1 view .LVU591
 2093              		.loc 1 902 13 is_stmt 0 view .LVU592
 2094 000c 773A     		subs	r2, r2, #119
 2095 000e 1A60     		str	r2, [r3]
 903:Drivers/GD32E23x_standard_peripheral/Source/gd32e23x_rtc.c **** 
 904:Drivers/GD32E23x_standard_peripheral/Source/gd32e23x_rtc.c ****     RTC_CTL &= (uint8_t)~RTC_CTL_BPSHAD;
 2096              		.loc 1 904 5 is_stmt 1 view .LVU593
 2097              		.loc 1 904 13 is_stmt 0 view .LVU594
 2098 0010 42F60802 		movw	r2, #10248
 2099 0014 C4F20002 		movt	r2, 16384
 2100 0018 1068     		ldr	r0, [r2]
 2101 001a DF21     		movs	r1, #223
 2102 001c 0140     		ands	r1, r0
 2103 001e 1160     		str	r1, [r2]
 905:Drivers/GD32E23x_standard_peripheral/Source/gd32e23x_rtc.c **** 
 906:Drivers/GD32E23x_standard_peripheral/Source/gd32e23x_rtc.c ****     /* enable the write protection */
 907:Drivers/GD32E23x_standard_peripheral/Source/gd32e23x_rtc.c ****     RTC_WPK = RTC_LOCK_KEY;
 2104              		.loc 1 907 5 is_stmt 1 view .LVU595
 2105              		.loc 1 907 13 is_stmt 0 view .LVU596
 2106 0020 FF22     		movs	r2, #255
 2107 0022 1A60     		str	r2, [r3]
 908:Drivers/GD32E23x_standard_peripheral/Source/gd32e23x_rtc.c **** }
 2108              		.loc 1 908 1 view .LVU597
 2109              		@ sp needed
 2110 0024 7047     		bx	lr
ARM GAS  /var/folders/rv/zq8s_02j1dj4vjvr1mm5zl2r0000gn/T//cczf42zg.s 			page 55


 2111              		.cfi_endproc
 2112              	.LFE94:
 2114              		.section	.text.rtc_refclock_detection_enable,"ax",%progbits
 2115              		.align	1
 2116              		.global	rtc_refclock_detection_enable
 2117              		.syntax unified
 2118              		.code	16
 2119              		.thumb_func
 2120              		.fpu softvfp
 2122              	rtc_refclock_detection_enable:
 2123              	.LFB95:
 909:Drivers/GD32E23x_standard_peripheral/Source/gd32e23x_rtc.c **** 
 910:Drivers/GD32E23x_standard_peripheral/Source/gd32e23x_rtc.c **** /*!
 911:Drivers/GD32E23x_standard_peripheral/Source/gd32e23x_rtc.c ****     \brief      enable RTC reference clock detection function
 912:Drivers/GD32E23x_standard_peripheral/Source/gd32e23x_rtc.c ****     \param[in]  none
 913:Drivers/GD32E23x_standard_peripheral/Source/gd32e23x_rtc.c ****     \param[out] none
 914:Drivers/GD32E23x_standard_peripheral/Source/gd32e23x_rtc.c ****     \retval     ErrStatus: ERROR or SUCCESS
 915:Drivers/GD32E23x_standard_peripheral/Source/gd32e23x_rtc.c **** */
 916:Drivers/GD32E23x_standard_peripheral/Source/gd32e23x_rtc.c **** ErrStatus rtc_refclock_detection_enable(void)
 917:Drivers/GD32E23x_standard_peripheral/Source/gd32e23x_rtc.c **** {
 2124              		.loc 1 917 1 is_stmt 1 view -0
 2125              		.cfi_startproc
 2126              		@ args = 0, pretend = 0, frame = 0
 2127              		@ frame_needed = 0, uses_anonymous_args = 0
 2128 0000 10B5     		push	{r4, lr}
 2129              	.LCFI11:
 2130              		.cfi_def_cfa_offset 8
 2131              		.cfi_offset 4, -8
 2132              		.cfi_offset 14, -4
 918:Drivers/GD32E23x_standard_peripheral/Source/gd32e23x_rtc.c ****     ErrStatus error_status = ERROR;
 2133              		.loc 1 918 5 view .LVU599
 2134              	.LVL111:
 919:Drivers/GD32E23x_standard_peripheral/Source/gd32e23x_rtc.c ****     
 920:Drivers/GD32E23x_standard_peripheral/Source/gd32e23x_rtc.c ****     /* disable the write protection */
 921:Drivers/GD32E23x_standard_peripheral/Source/gd32e23x_rtc.c ****     RTC_WPK = RTC_UNLOCK_KEY1;
 2135              		.loc 1 921 5 view .LVU600
 2136              		.loc 1 921 13 is_stmt 0 view .LVU601
 2137 0002 42F62403 		movw	r3, #10276
 2138 0006 C4F20003 		movt	r3, 16384
 2139 000a CA22     		movs	r2, #202
 2140 000c 1A60     		str	r2, [r3]
 922:Drivers/GD32E23x_standard_peripheral/Source/gd32e23x_rtc.c ****     RTC_WPK = RTC_UNLOCK_KEY2;
 2141              		.loc 1 922 5 is_stmt 1 view .LVU602
 2142              		.loc 1 922 13 is_stmt 0 view .LVU603
 2143 000e 773A     		subs	r2, r2, #119
 2144 0010 1A60     		str	r2, [r3]
 923:Drivers/GD32E23x_standard_peripheral/Source/gd32e23x_rtc.c **** 
 924:Drivers/GD32E23x_standard_peripheral/Source/gd32e23x_rtc.c ****     /* enter init mode */
 925:Drivers/GD32E23x_standard_peripheral/Source/gd32e23x_rtc.c ****     error_status = rtc_init_mode_enter();
 2145              		.loc 1 925 5 is_stmt 1 view .LVU604
 2146              		.loc 1 925 20 is_stmt 0 view .LVU605
 2147 0012 FFF7FEFF 		bl	rtc_init_mode_enter
 2148              	.LVL112:
 2149 0016 0400     		movs	r4, r0
 2150              	.LVL113:
 926:Drivers/GD32E23x_standard_peripheral/Source/gd32e23x_rtc.c **** 
 927:Drivers/GD32E23x_standard_peripheral/Source/gd32e23x_rtc.c ****     if(ERROR != error_status){
ARM GAS  /var/folders/rv/zq8s_02j1dj4vjvr1mm5zl2r0000gn/T//cczf42zg.s 			page 56


 2151              		.loc 1 927 5 is_stmt 1 view .LVU606
 2152              		.loc 1 927 7 is_stmt 0 view .LVU607
 2153 0018 38B9     		cbnz	r0, .L78
 2154              	.LVL114:
 2155              	.L77:
 928:Drivers/GD32E23x_standard_peripheral/Source/gd32e23x_rtc.c ****         RTC_CTL |= (uint32_t)RTC_CTL_REFEN;
 929:Drivers/GD32E23x_standard_peripheral/Source/gd32e23x_rtc.c ****         /* exit init mode */
 930:Drivers/GD32E23x_standard_peripheral/Source/gd32e23x_rtc.c ****         rtc_init_mode_exit();
 931:Drivers/GD32E23x_standard_peripheral/Source/gd32e23x_rtc.c ****     }
 932:Drivers/GD32E23x_standard_peripheral/Source/gd32e23x_rtc.c **** 
 933:Drivers/GD32E23x_standard_peripheral/Source/gd32e23x_rtc.c ****     /* enable the write protection */
 934:Drivers/GD32E23x_standard_peripheral/Source/gd32e23x_rtc.c ****     RTC_WPK = RTC_LOCK_KEY;
 2156              		.loc 1 934 5 is_stmt 1 view .LVU608
 2157              		.loc 1 934 13 is_stmt 0 view .LVU609
 2158 001a 42F62403 		movw	r3, #10276
 2159 001e C4F20003 		movt	r3, 16384
 2160 0022 FF22     		movs	r2, #255
 2161 0024 1A60     		str	r2, [r3]
 935:Drivers/GD32E23x_standard_peripheral/Source/gd32e23x_rtc.c **** 
 936:Drivers/GD32E23x_standard_peripheral/Source/gd32e23x_rtc.c ****     return error_status;
 2162              		.loc 1 936 5 is_stmt 1 view .LVU610
 937:Drivers/GD32E23x_standard_peripheral/Source/gd32e23x_rtc.c **** }
 2163              		.loc 1 937 1 is_stmt 0 view .LVU611
 2164 0026 2000     		movs	r0, r4
 2165              		@ sp needed
 2166 0028 10BD     		pop	{r4, pc}
 2167              	.LVL115:
 2168              	.L78:
 928:Drivers/GD32E23x_standard_peripheral/Source/gd32e23x_rtc.c ****         RTC_CTL |= (uint32_t)RTC_CTL_REFEN;
 2169              		.loc 1 928 9 is_stmt 1 view .LVU612
 928:Drivers/GD32E23x_standard_peripheral/Source/gd32e23x_rtc.c ****         RTC_CTL |= (uint32_t)RTC_CTL_REFEN;
 2170              		.loc 1 928 17 is_stmt 0 view .LVU613
 2171 002a 42F60803 		movw	r3, #10248
 2172 002e C4F20003 		movt	r3, 16384
 2173 0032 1A68     		ldr	r2, [r3]
 2174 0034 1021     		movs	r1, #16
 2175 0036 0A43     		orrs	r2, r1
 2176 0038 1A60     		str	r2, [r3]
 930:Drivers/GD32E23x_standard_peripheral/Source/gd32e23x_rtc.c ****     }
 2177              		.loc 1 930 9 is_stmt 1 view .LVU614
 2178 003a FFF7FEFF 		bl	rtc_init_mode_exit
 2179              	.LVL116:
 930:Drivers/GD32E23x_standard_peripheral/Source/gd32e23x_rtc.c ****     }
 2180              		.loc 1 930 9 is_stmt 0 view .LVU615
 2181 003e ECE7     		b	.L77
 2182              		.cfi_endproc
 2183              	.LFE95:
 2185              		.section	.text.rtc_refclock_detection_disable,"ax",%progbits
 2186              		.align	1
 2187              		.global	rtc_refclock_detection_disable
 2188              		.syntax unified
 2189              		.code	16
 2190              		.thumb_func
 2191              		.fpu softvfp
 2193              	rtc_refclock_detection_disable:
 2194              	.LFB96:
 938:Drivers/GD32E23x_standard_peripheral/Source/gd32e23x_rtc.c **** 
ARM GAS  /var/folders/rv/zq8s_02j1dj4vjvr1mm5zl2r0000gn/T//cczf42zg.s 			page 57


 939:Drivers/GD32E23x_standard_peripheral/Source/gd32e23x_rtc.c **** /*!
 940:Drivers/GD32E23x_standard_peripheral/Source/gd32e23x_rtc.c ****     \brief      disable RTC reference clock detection function
 941:Drivers/GD32E23x_standard_peripheral/Source/gd32e23x_rtc.c ****     \param[in]  none
 942:Drivers/GD32E23x_standard_peripheral/Source/gd32e23x_rtc.c ****     \param[out] none
 943:Drivers/GD32E23x_standard_peripheral/Source/gd32e23x_rtc.c ****     \retval     ErrStatus: ERROR or SUCCESS
 944:Drivers/GD32E23x_standard_peripheral/Source/gd32e23x_rtc.c **** */
 945:Drivers/GD32E23x_standard_peripheral/Source/gd32e23x_rtc.c **** ErrStatus rtc_refclock_detection_disable(void)
 946:Drivers/GD32E23x_standard_peripheral/Source/gd32e23x_rtc.c **** {
 2195              		.loc 1 946 1 is_stmt 1 view -0
 2196              		.cfi_startproc
 2197              		@ args = 0, pretend = 0, frame = 0
 2198              		@ frame_needed = 0, uses_anonymous_args = 0
 2199 0000 10B5     		push	{r4, lr}
 2200              	.LCFI12:
 2201              		.cfi_def_cfa_offset 8
 2202              		.cfi_offset 4, -8
 2203              		.cfi_offset 14, -4
 947:Drivers/GD32E23x_standard_peripheral/Source/gd32e23x_rtc.c ****     ErrStatus error_status = ERROR;
 2204              		.loc 1 947 5 view .LVU617
 2205              	.LVL117:
 948:Drivers/GD32E23x_standard_peripheral/Source/gd32e23x_rtc.c ****     
 949:Drivers/GD32E23x_standard_peripheral/Source/gd32e23x_rtc.c ****     /* disable the write protection */
 950:Drivers/GD32E23x_standard_peripheral/Source/gd32e23x_rtc.c ****     RTC_WPK = RTC_UNLOCK_KEY1;
 2206              		.loc 1 950 5 view .LVU618
 2207              		.loc 1 950 13 is_stmt 0 view .LVU619
 2208 0002 42F62403 		movw	r3, #10276
 2209 0006 C4F20003 		movt	r3, 16384
 2210 000a CA22     		movs	r2, #202
 2211 000c 1A60     		str	r2, [r3]
 951:Drivers/GD32E23x_standard_peripheral/Source/gd32e23x_rtc.c ****     RTC_WPK = RTC_UNLOCK_KEY2;
 2212              		.loc 1 951 5 is_stmt 1 view .LVU620
 2213              		.loc 1 951 13 is_stmt 0 view .LVU621
 2214 000e 773A     		subs	r2, r2, #119
 2215 0010 1A60     		str	r2, [r3]
 952:Drivers/GD32E23x_standard_peripheral/Source/gd32e23x_rtc.c **** 
 953:Drivers/GD32E23x_standard_peripheral/Source/gd32e23x_rtc.c ****     /* enter init mode */
 954:Drivers/GD32E23x_standard_peripheral/Source/gd32e23x_rtc.c ****     error_status = rtc_init_mode_enter();
 2216              		.loc 1 954 5 is_stmt 1 view .LVU622
 2217              		.loc 1 954 20 is_stmt 0 view .LVU623
 2218 0012 FFF7FEFF 		bl	rtc_init_mode_enter
 2219              	.LVL118:
 2220 0016 0400     		movs	r4, r0
 2221              	.LVL119:
 955:Drivers/GD32E23x_standard_peripheral/Source/gd32e23x_rtc.c **** 
 956:Drivers/GD32E23x_standard_peripheral/Source/gd32e23x_rtc.c ****     if(ERROR != error_status){ 
 2222              		.loc 1 956 5 is_stmt 1 view .LVU624
 2223              		.loc 1 956 7 is_stmt 0 view .LVU625
 2224 0018 38B9     		cbnz	r0, .L81
 2225              	.LVL120:
 2226              	.L80:
 957:Drivers/GD32E23x_standard_peripheral/Source/gd32e23x_rtc.c ****         RTC_CTL &= (uint32_t)~RTC_CTL_REFEN;
 958:Drivers/GD32E23x_standard_peripheral/Source/gd32e23x_rtc.c ****         /* exit init mode */
 959:Drivers/GD32E23x_standard_peripheral/Source/gd32e23x_rtc.c ****         rtc_init_mode_exit();
 960:Drivers/GD32E23x_standard_peripheral/Source/gd32e23x_rtc.c ****     }
 961:Drivers/GD32E23x_standard_peripheral/Source/gd32e23x_rtc.c **** 
 962:Drivers/GD32E23x_standard_peripheral/Source/gd32e23x_rtc.c ****     /* enable the write protection */
 963:Drivers/GD32E23x_standard_peripheral/Source/gd32e23x_rtc.c ****     RTC_WPK = RTC_LOCK_KEY;
ARM GAS  /var/folders/rv/zq8s_02j1dj4vjvr1mm5zl2r0000gn/T//cczf42zg.s 			page 58


 2227              		.loc 1 963 5 is_stmt 1 view .LVU626
 2228              		.loc 1 963 13 is_stmt 0 view .LVU627
 2229 001a 42F62403 		movw	r3, #10276
 2230 001e C4F20003 		movt	r3, 16384
 2231 0022 FF22     		movs	r2, #255
 2232 0024 1A60     		str	r2, [r3]
 964:Drivers/GD32E23x_standard_peripheral/Source/gd32e23x_rtc.c **** 
 965:Drivers/GD32E23x_standard_peripheral/Source/gd32e23x_rtc.c ****     return error_status;
 2233              		.loc 1 965 5 is_stmt 1 view .LVU628
 966:Drivers/GD32E23x_standard_peripheral/Source/gd32e23x_rtc.c **** }
 2234              		.loc 1 966 1 is_stmt 0 view .LVU629
 2235 0026 2000     		movs	r0, r4
 2236              		@ sp needed
 2237 0028 10BD     		pop	{r4, pc}
 2238              	.LVL121:
 2239              	.L81:
 957:Drivers/GD32E23x_standard_peripheral/Source/gd32e23x_rtc.c ****         RTC_CTL &= (uint32_t)~RTC_CTL_REFEN;
 2240              		.loc 1 957 9 is_stmt 1 view .LVU630
 957:Drivers/GD32E23x_standard_peripheral/Source/gd32e23x_rtc.c ****         RTC_CTL &= (uint32_t)~RTC_CTL_REFEN;
 2241              		.loc 1 957 17 is_stmt 0 view .LVU631
 2242 002a 42F60803 		movw	r3, #10248
 2243 002e C4F20003 		movt	r3, 16384
 2244 0032 1A68     		ldr	r2, [r3]
 2245 0034 1021     		movs	r1, #16
 2246 0036 8A43     		bics	r2, r1
 2247 0038 1A60     		str	r2, [r3]
 959:Drivers/GD32E23x_standard_peripheral/Source/gd32e23x_rtc.c ****     }
 2248              		.loc 1 959 9 is_stmt 1 view .LVU632
 2249 003a FFF7FEFF 		bl	rtc_init_mode_exit
 2250              	.LVL122:
 959:Drivers/GD32E23x_standard_peripheral/Source/gd32e23x_rtc.c ****     }
 2251              		.loc 1 959 9 is_stmt 0 view .LVU633
 2252 003e ECE7     		b	.L80
 2253              		.cfi_endproc
 2254              	.LFE96:
 2256              		.text
 2257              	.Letext0:
 2258              		.file 2 "/Users/jgiles/projects/gcc-arm-none-eabi-10.3-2021.07/arm-none-eabi/include/machine/_defa
 2259              		.file 3 "/Users/jgiles/projects/gcc-arm-none-eabi-10.3-2021.07/arm-none-eabi/include/sys/_stdint.h
 2260              		.file 4 "Drivers/CMSIS/Device/GD/GD32E23x/Include/gd32e23x.h"
 2261              		.file 5 "Drivers/GD32E23x_standard_peripheral/Include/gd32e23x_rtc.h"
ARM GAS  /var/folders/rv/zq8s_02j1dj4vjvr1mm5zl2r0000gn/T//cczf42zg.s 			page 59

