ARM GAS  /var/folders/rv/zq8s_02j1dj4vjvr1mm5zl2r0000gn/T//cc2hOtpo.s 			page 1


   1              		.cpu cortex-m23
   2              		.eabi_attribute 20, 1
   3              		.eabi_attribute 21, 1
   4              		.eabi_attribute 23, 3
   5              		.eabi_attribute 24, 1
   6              		.eabi_attribute 25, 1
   7              		.eabi_attribute 26, 1
   8              		.eabi_attribute 30, 1
   9              		.eabi_attribute 34, 0
  10              		.eabi_attribute 18, 4
  11              		.file	"gd32e23x_rcu.c"
  12              		.text
  13              	.Ltext0:
  14              		.cfi_sections	.debug_frame
  15              		.section	.text.rcu_deinit,"ax",%progbits
  16              		.align	1
  17              		.global	rcu_deinit
  18              		.arch armv8-m.base
  19              		.syntax unified
  20              		.code	16
  21              		.thumb_func
  22              		.fpu softvfp
  24              	rcu_deinit:
  25              	.LFB66:
  26              		.file 1 "Drivers/GD32E23x_standard_peripheral/Source/gd32e23x_rcu.c"
   1:Drivers/GD32E23x_standard_peripheral/Source/gd32e23x_rcu.c **** /*!
   2:Drivers/GD32E23x_standard_peripheral/Source/gd32e23x_rcu.c ****     \file    gd32e23x_rcu.c
   3:Drivers/GD32E23x_standard_peripheral/Source/gd32e23x_rcu.c ****     \brief   RCU driver
   4:Drivers/GD32E23x_standard_peripheral/Source/gd32e23x_rcu.c ****     
   5:Drivers/GD32E23x_standard_peripheral/Source/gd32e23x_rcu.c ****     \version 2019-02-19, V1.0.0, firmware for GD32E23x
   6:Drivers/GD32E23x_standard_peripheral/Source/gd32e23x_rcu.c ****     \version 2020-12-12, V1.1.0, firmware for GD32E23x
   7:Drivers/GD32E23x_standard_peripheral/Source/gd32e23x_rcu.c **** */
   8:Drivers/GD32E23x_standard_peripheral/Source/gd32e23x_rcu.c **** 
   9:Drivers/GD32E23x_standard_peripheral/Source/gd32e23x_rcu.c **** /*
  10:Drivers/GD32E23x_standard_peripheral/Source/gd32e23x_rcu.c ****     Copyright (c) 2020, GigaDevice Semiconductor Inc.
  11:Drivers/GD32E23x_standard_peripheral/Source/gd32e23x_rcu.c **** 
  12:Drivers/GD32E23x_standard_peripheral/Source/gd32e23x_rcu.c ****     Redistribution and use in source and binary forms, with or without modification, 
  13:Drivers/GD32E23x_standard_peripheral/Source/gd32e23x_rcu.c **** are permitted provided that the following conditions are met:
  14:Drivers/GD32E23x_standard_peripheral/Source/gd32e23x_rcu.c **** 
  15:Drivers/GD32E23x_standard_peripheral/Source/gd32e23x_rcu.c ****     1. Redistributions of source code must retain the above copyright notice, this 
  16:Drivers/GD32E23x_standard_peripheral/Source/gd32e23x_rcu.c ****        list of conditions and the following disclaimer.
  17:Drivers/GD32E23x_standard_peripheral/Source/gd32e23x_rcu.c ****     2. Redistributions in binary form must reproduce the above copyright notice, 
  18:Drivers/GD32E23x_standard_peripheral/Source/gd32e23x_rcu.c ****        this list of conditions and the following disclaimer in the documentation 
  19:Drivers/GD32E23x_standard_peripheral/Source/gd32e23x_rcu.c ****        and/or other materials provided with the distribution.
  20:Drivers/GD32E23x_standard_peripheral/Source/gd32e23x_rcu.c ****     3. Neither the name of the copyright holder nor the names of its contributors 
  21:Drivers/GD32E23x_standard_peripheral/Source/gd32e23x_rcu.c ****        may be used to endorse or promote products derived from this software without 
  22:Drivers/GD32E23x_standard_peripheral/Source/gd32e23x_rcu.c ****        specific prior written permission.
  23:Drivers/GD32E23x_standard_peripheral/Source/gd32e23x_rcu.c **** 
  24:Drivers/GD32E23x_standard_peripheral/Source/gd32e23x_rcu.c ****     THIS SOFTWARE IS PROVIDED BY THE COPYRIGHT HOLDERS AND CONTRIBUTORS "AS IS" 
  25:Drivers/GD32E23x_standard_peripheral/Source/gd32e23x_rcu.c **** AND ANY EXPRESS OR IMPLIED WARRANTIES, INCLUDING, BUT NOT LIMITED TO, THE IMPLIED 
  26:Drivers/GD32E23x_standard_peripheral/Source/gd32e23x_rcu.c **** WARRANTIES OF MERCHANTABILITY AND FITNESS FOR A PARTICULAR PURPOSE ARE DISCLAIMED. 
  27:Drivers/GD32E23x_standard_peripheral/Source/gd32e23x_rcu.c **** IN NO EVENT SHALL THE COPYRIGHT HOLDER OR CONTRIBUTORS BE LIABLE FOR ANY DIRECT, 
  28:Drivers/GD32E23x_standard_peripheral/Source/gd32e23x_rcu.c **** INDIRECT, INCIDENTAL, SPECIAL, EXEMPLARY, OR CONSEQUENTIAL DAMAGES (INCLUDING, BUT 
  29:Drivers/GD32E23x_standard_peripheral/Source/gd32e23x_rcu.c **** NOT LIMITED TO, PROCUREMENT OF SUBSTITUTE GOODS OR SERVICES; LOSS OF USE, DATA, OR 
  30:Drivers/GD32E23x_standard_peripheral/Source/gd32e23x_rcu.c **** PROFITS; OR BUSINESS INTERRUPTION) HOWEVER CAUSED AND ON ANY THEORY OF LIABILITY, 
  31:Drivers/GD32E23x_standard_peripheral/Source/gd32e23x_rcu.c **** WHETHER IN CONTRACT, STRICT LIABILITY, OR TORT (INCLUDING NEGLIGENCE OR OTHERWISE) 
  32:Drivers/GD32E23x_standard_peripheral/Source/gd32e23x_rcu.c **** ARISING IN ANY WAY OUT OF THE USE OF THIS SOFTWARE, EVEN IF ADVISED OF THE POSSIBILITY 
ARM GAS  /var/folders/rv/zq8s_02j1dj4vjvr1mm5zl2r0000gn/T//cc2hOtpo.s 			page 2


  33:Drivers/GD32E23x_standard_peripheral/Source/gd32e23x_rcu.c **** OF SUCH DAMAGE.
  34:Drivers/GD32E23x_standard_peripheral/Source/gd32e23x_rcu.c **** */
  35:Drivers/GD32E23x_standard_peripheral/Source/gd32e23x_rcu.c **** 
  36:Drivers/GD32E23x_standard_peripheral/Source/gd32e23x_rcu.c **** #include "gd32e23x_rcu.h"
  37:Drivers/GD32E23x_standard_peripheral/Source/gd32e23x_rcu.c **** 
  38:Drivers/GD32E23x_standard_peripheral/Source/gd32e23x_rcu.c **** /* define clock source */
  39:Drivers/GD32E23x_standard_peripheral/Source/gd32e23x_rcu.c **** #define SEL_IRC8M       0x00U
  40:Drivers/GD32E23x_standard_peripheral/Source/gd32e23x_rcu.c **** #define SEL_HXTAL       0x01U
  41:Drivers/GD32E23x_standard_peripheral/Source/gd32e23x_rcu.c **** #define SEL_PLL         0x02U
  42:Drivers/GD32E23x_standard_peripheral/Source/gd32e23x_rcu.c **** 
  43:Drivers/GD32E23x_standard_peripheral/Source/gd32e23x_rcu.c **** /* define startup timeout count */
  44:Drivers/GD32E23x_standard_peripheral/Source/gd32e23x_rcu.c **** #define OSC_STARTUP_TIMEOUT         ((uint32_t)0x000FFFFFU)
  45:Drivers/GD32E23x_standard_peripheral/Source/gd32e23x_rcu.c **** #define LXTAL_STARTUP_TIMEOUT       ((uint32_t)0x03FFFFFFU)
  46:Drivers/GD32E23x_standard_peripheral/Source/gd32e23x_rcu.c **** 
  47:Drivers/GD32E23x_standard_peripheral/Source/gd32e23x_rcu.c **** /*!
  48:Drivers/GD32E23x_standard_peripheral/Source/gd32e23x_rcu.c ****     \brief      deinitialize the RCU
  49:Drivers/GD32E23x_standard_peripheral/Source/gd32e23x_rcu.c ****     \param[in]  none
  50:Drivers/GD32E23x_standard_peripheral/Source/gd32e23x_rcu.c ****     \param[out] none
  51:Drivers/GD32E23x_standard_peripheral/Source/gd32e23x_rcu.c ****     \retval     none
  52:Drivers/GD32E23x_standard_peripheral/Source/gd32e23x_rcu.c **** */
  53:Drivers/GD32E23x_standard_peripheral/Source/gd32e23x_rcu.c **** void rcu_deinit(void)
  54:Drivers/GD32E23x_standard_peripheral/Source/gd32e23x_rcu.c **** {
  27              		.loc 1 54 1 view -0
  28              		.cfi_startproc
  29              		@ args = 0, pretend = 0, frame = 0
  30              		@ frame_needed = 0, uses_anonymous_args = 0
  31              		@ link register save eliminated.
  55:Drivers/GD32E23x_standard_peripheral/Source/gd32e23x_rcu.c ****     /* enable IRC8M */
  56:Drivers/GD32E23x_standard_peripheral/Source/gd32e23x_rcu.c ****     RCU_CTL0 |= RCU_CTL0_IRC8MEN;
  32              		.loc 1 56 5 view .LVU1
  33              		.loc 1 56 14 is_stmt 0 view .LVU2
  34 0000 41F20003 		movw	r3, #4096
  35 0004 C4F20203 		movt	r3, 16386
  36 0008 1A68     		ldr	r2, [r3]
  37 000a 0121     		movs	r1, #1
  38 000c 0A43     		orrs	r2, r1
  39 000e 1A60     		str	r2, [r3]
  57:Drivers/GD32E23x_standard_peripheral/Source/gd32e23x_rcu.c ****     while(0U == (RCU_CTL0 & RCU_CTL0_IRC8MSTB)){
  40              		.loc 1 57 5 is_stmt 1 view .LVU3
  41              	.L2:
  58:Drivers/GD32E23x_standard_peripheral/Source/gd32e23x_rcu.c ****     }
  42              		.loc 1 58 5 discriminator 1 view .LVU4
  57:Drivers/GD32E23x_standard_peripheral/Source/gd32e23x_rcu.c ****     while(0U == (RCU_CTL0 & RCU_CTL0_IRC8MSTB)){
  43              		.loc 1 57 10 discriminator 1 view .LVU5
  57:Drivers/GD32E23x_standard_peripheral/Source/gd32e23x_rcu.c ****     while(0U == (RCU_CTL0 & RCU_CTL0_IRC8MSTB)){
  44              		.loc 1 57 18 is_stmt 0 discriminator 1 view .LVU6
  45 0010 41F20003 		movw	r3, #4096
  46 0014 C4F20203 		movt	r3, 16386
  47 0018 1B68     		ldr	r3, [r3]
  57:Drivers/GD32E23x_standard_peripheral/Source/gd32e23x_rcu.c ****     while(0U == (RCU_CTL0 & RCU_CTL0_IRC8MSTB)){
  48              		.loc 1 57 10 discriminator 1 view .LVU7
  49 001a 9B07     		lsls	r3, r3, #30
  50 001c F8D5     		bpl	.L2
  59:Drivers/GD32E23x_standard_peripheral/Source/gd32e23x_rcu.c ****     /* reset RCU */
  60:Drivers/GD32E23x_standard_peripheral/Source/gd32e23x_rcu.c ****     RCU_CFG0 &= ~(RCU_CFG0_SCS | RCU_CFG0_AHBPSC | RCU_CFG0_APB1PSC | RCU_CFG0_APB2PSC |\
  51              		.loc 1 60 5 is_stmt 1 view .LVU8
  52              		.loc 1 60 14 is_stmt 0 view .LVU9
ARM GAS  /var/folders/rv/zq8s_02j1dj4vjvr1mm5zl2r0000gn/T//cc2hOtpo.s 			page 3


  53 001e 41F20403 		movw	r3, #4100
  54 0022 C4F20203 		movt	r3, 16386
  55 0026 1A68     		ldr	r2, [r3]
  56 0028 0C21     		movs	r1, #12
  57 002a C0F6FF01 		movt	r1, 2303
  58 002e 0A40     		ands	r2, r1
  59 0030 1A60     		str	r2, [r3]
  61:Drivers/GD32E23x_standard_peripheral/Source/gd32e23x_rcu.c ****                   RCU_CFG0_ADCPSC | RCU_CFG0_CKOUTSEL | RCU_CFG0_CKOUTDIV | RCU_CFG0_PLLDV);
  62:Drivers/GD32E23x_standard_peripheral/Source/gd32e23x_rcu.c ****     RCU_CFG0 &= ~(RCU_CFG0_PLLSEL | RCU_CFG0_PLLMF | RCU_CFG0_PLLMF4 | RCU_CFG0_PLLDV);
  60              		.loc 1 62 5 is_stmt 1 view .LVU10
  61              		.loc 1 62 14 is_stmt 0 view .LVU11
  62 0032 1A68     		ldr	r2, [r3]
  63 0034 4FF6FF71 		movw	r1, #65535
  64 0038 C7F2C271 		movt	r1, 30658
  65 003c 0A40     		ands	r2, r1
  66 003e 1A60     		str	r2, [r3]
  63:Drivers/GD32E23x_standard_peripheral/Source/gd32e23x_rcu.c ****     RCU_CTL0 &= ~(RCU_CTL0_HXTALEN | RCU_CTL0_CKMEN | RCU_CTL0_PLLEN | RCU_CTL0_HXTALBPS);
  67              		.loc 1 63 5 is_stmt 1 view .LVU12
  68              		.loc 1 63 14 is_stmt 0 view .LVU13
  69 0040 41F20003 		movw	r3, #4096
  70 0044 C4F20203 		movt	r3, 16386
  71 0048 1A68     		ldr	r2, [r3]
  72 004a 4FF6FF71 		movw	r1, #65535
  73 004e CFF6F261 		movt	r1, 65266
  74 0052 0A40     		ands	r2, r1
  75 0054 1A60     		str	r2, [r3]
  64:Drivers/GD32E23x_standard_peripheral/Source/gd32e23x_rcu.c ****     RCU_CFG1 &= ~(RCU_CFG1_PREDV);
  76              		.loc 1 64 5 is_stmt 1 view .LVU14
  77              		.loc 1 64 14 is_stmt 0 view .LVU15
  78 0056 41F22C03 		movw	r3, #4140
  79 005a C4F20203 		movt	r3, 16386
  80 005e 1A68     		ldr	r2, [r3]
  81 0060 0F21     		movs	r1, #15
  82 0062 8A43     		bics	r2, r1
  83 0064 1A60     		str	r2, [r3]
  65:Drivers/GD32E23x_standard_peripheral/Source/gd32e23x_rcu.c ****     RCU_CFG2 &= ~(RCU_CFG2_USART0SEL | RCU_CFG2_ADCSEL);
  84              		.loc 1 65 5 is_stmt 1 view .LVU16
  85              		.loc 1 65 14 is_stmt 0 view .LVU17
  86 0066 41F23003 		movw	r3, #4144
  87 006a C4F20203 		movt	r3, 16386
  88 006e 1A68     		ldr	r2, [r3]
  89 0070 0C49     		ldr	r1, .L3
  90 0072 0A40     		ands	r2, r1
  91 0074 1A60     		str	r2, [r3]
  66:Drivers/GD32E23x_standard_peripheral/Source/gd32e23x_rcu.c ****     RCU_CFG2 &= ~RCU_CFG2_IRC28MDIV;
  92              		.loc 1 66 5 is_stmt 1 view .LVU18
  93              		.loc 1 66 14 is_stmt 0 view .LVU19
  94 0076 1A68     		ldr	r2, [r3]
  95 0078 0B49     		ldr	r1, .L3+4
  96 007a 0A40     		ands	r2, r1
  97 007c 1A60     		str	r2, [r3]
  67:Drivers/GD32E23x_standard_peripheral/Source/gd32e23x_rcu.c ****     RCU_CFG2 &= ~RCU_CFG2_ADCPSC2;
  98              		.loc 1 67 5 is_stmt 1 view .LVU20
  99              		.loc 1 67 14 is_stmt 0 view .LVU21
 100 007e 1A68     		ldr	r2, [r3]
 101 0080 5200     		lsls	r2, r2, #1
 102 0082 5208     		lsrs	r2, r2, #1
ARM GAS  /var/folders/rv/zq8s_02j1dj4vjvr1mm5zl2r0000gn/T//cc2hOtpo.s 			page 4


 103 0084 1A60     		str	r2, [r3]
  68:Drivers/GD32E23x_standard_peripheral/Source/gd32e23x_rcu.c ****     RCU_CTL1 &= ~RCU_CTL1_IRC28MEN;
 104              		.loc 1 68 5 is_stmt 1 view .LVU22
 105              		.loc 1 68 14 is_stmt 0 view .LVU23
 106 0086 41F23403 		movw	r3, #4148
 107 008a C4F20203 		movt	r3, 16386
 108 008e 1A68     		ldr	r2, [r3]
 109 0090 0121     		movs	r1, #1
 110 0092 8A43     		bics	r2, r1
 111 0094 1A60     		str	r2, [r3]
  69:Drivers/GD32E23x_standard_peripheral/Source/gd32e23x_rcu.c ****     RCU_INT = 0x00000000U;
 112              		.loc 1 69 5 is_stmt 1 view .LVU24
 113              		.loc 1 69 13 is_stmt 0 view .LVU25
 114 0096 41F20803 		movw	r3, #4104
 115 009a C4F20203 		movt	r3, 16386
 116 009e 0022     		movs	r2, #0
 117 00a0 1A60     		str	r2, [r3]
  70:Drivers/GD32E23x_standard_peripheral/Source/gd32e23x_rcu.c **** }
 118              		.loc 1 70 1 view .LVU26
 119              		@ sp needed
 120 00a2 7047     		bx	lr
 121              	.L4:
 122              		.align	2
 123              	.L3:
 124 00a4 FCFEFFFF 		.word	-260
 125 00a8 FFFFFEFF 		.word	-65537
 126              		.cfi_endproc
 127              	.LFE66:
 129              		.section	.text.rcu_periph_clock_enable,"ax",%progbits
 130              		.align	1
 131              		.global	rcu_periph_clock_enable
 132              		.syntax unified
 133              		.code	16
 134              		.thumb_func
 135              		.fpu softvfp
 137              	rcu_periph_clock_enable:
 138              	.LVL0:
 139              	.LFB67:
  71:Drivers/GD32E23x_standard_peripheral/Source/gd32e23x_rcu.c **** 
  72:Drivers/GD32E23x_standard_peripheral/Source/gd32e23x_rcu.c **** /*!
  73:Drivers/GD32E23x_standard_peripheral/Source/gd32e23x_rcu.c ****     \brief      enable the peripherals clock
  74:Drivers/GD32E23x_standard_peripheral/Source/gd32e23x_rcu.c ****     \param[in]  periph: RCU peripherals, refer to rcu_periph_enum
  75:Drivers/GD32E23x_standard_peripheral/Source/gd32e23x_rcu.c ****                 only one parameter can be selected which is shown as below:
  76:Drivers/GD32E23x_standard_peripheral/Source/gd32e23x_rcu.c ****       \arg        RCU_GPIOx (x=A,B,C,F): GPIO ports clock
  77:Drivers/GD32E23x_standard_peripheral/Source/gd32e23x_rcu.c ****       \arg        RCU_DMA: DMA clock
  78:Drivers/GD32E23x_standard_peripheral/Source/gd32e23x_rcu.c ****       \arg        RCU_CRC: CRC clock
  79:Drivers/GD32E23x_standard_peripheral/Source/gd32e23x_rcu.c ****       \arg        RCU_CFGCMP: CFGCMP clock
  80:Drivers/GD32E23x_standard_peripheral/Source/gd32e23x_rcu.c ****       \arg        RCU_ADC: ADC clock
  81:Drivers/GD32E23x_standard_peripheral/Source/gd32e23x_rcu.c ****       \arg        RCU_TIMERx (x=0,2,5,13,14,15,16): TIMER clock
  82:Drivers/GD32E23x_standard_peripheral/Source/gd32e23x_rcu.c ****       \arg        RCU_SPIx (x=0,1): SPI clock
  83:Drivers/GD32E23x_standard_peripheral/Source/gd32e23x_rcu.c ****       \arg        RCU_USARTx (x=0,1): USART clock
  84:Drivers/GD32E23x_standard_peripheral/Source/gd32e23x_rcu.c ****       \arg        RCU_WWDGT: WWDGT clock
  85:Drivers/GD32E23x_standard_peripheral/Source/gd32e23x_rcu.c ****       \arg        RCU_I2Cx (x=0,1): I2C clock
  86:Drivers/GD32E23x_standard_peripheral/Source/gd32e23x_rcu.c ****       \arg        RCU_PMU: PMU clock
  87:Drivers/GD32E23x_standard_peripheral/Source/gd32e23x_rcu.c ****       \arg        RCU_RTC: RTC clock
  88:Drivers/GD32E23x_standard_peripheral/Source/gd32e23x_rcu.c ****       \arg        RCU_DBGMCU: DBGMCU clock
  89:Drivers/GD32E23x_standard_peripheral/Source/gd32e23x_rcu.c ****     \param[out] none
ARM GAS  /var/folders/rv/zq8s_02j1dj4vjvr1mm5zl2r0000gn/T//cc2hOtpo.s 			page 5


  90:Drivers/GD32E23x_standard_peripheral/Source/gd32e23x_rcu.c ****     \retval     none
  91:Drivers/GD32E23x_standard_peripheral/Source/gd32e23x_rcu.c **** */
  92:Drivers/GD32E23x_standard_peripheral/Source/gd32e23x_rcu.c **** void rcu_periph_clock_enable(rcu_periph_enum periph)
  93:Drivers/GD32E23x_standard_peripheral/Source/gd32e23x_rcu.c **** {
 140              		.loc 1 93 1 is_stmt 1 view -0
 141              		.cfi_startproc
 142              		@ args = 0, pretend = 0, frame = 0
 143              		@ frame_needed = 0, uses_anonymous_args = 0
 144              		@ link register save eliminated.
  94:Drivers/GD32E23x_standard_peripheral/Source/gd32e23x_rcu.c ****     RCU_REG_VAL(periph) |= BIT(RCU_BIT_POS(periph));
 145              		.loc 1 94 5 view .LVU28
 146              		.loc 1 94 25 is_stmt 0 view .LVU29
 147 0000 8309     		lsrs	r3, r0, #6
 148 0002 41F2000C 		movw	ip, #4096
 149 0006 C4F2020C 		movt	ip, 16386
 150 000a 6344     		add	r3, r3, ip
 151 000c 1A68     		ldr	r2, [r3]
 152              		.loc 1 94 28 view .LVU30
 153 000e 1F21     		movs	r1, #31
 154 0010 0840     		ands	r0, r1
 155              	.LVL1:
 156              		.loc 1 94 28 view .LVU31
 157 0012 1E39     		subs	r1, r1, #30
 158 0014 8140     		lsls	r1, r1, r0
 159              		.loc 1 94 25 view .LVU32
 160 0016 0A43     		orrs	r2, r1
 161 0018 1A60     		str	r2, [r3]
  95:Drivers/GD32E23x_standard_peripheral/Source/gd32e23x_rcu.c **** }
 162              		.loc 1 95 1 view .LVU33
 163              		@ sp needed
 164 001a 7047     		bx	lr
 165              		.cfi_endproc
 166              	.LFE67:
 168              		.section	.text.rcu_periph_clock_disable,"ax",%progbits
 169              		.align	1
 170              		.global	rcu_periph_clock_disable
 171              		.syntax unified
 172              		.code	16
 173              		.thumb_func
 174              		.fpu softvfp
 176              	rcu_periph_clock_disable:
 177              	.LVL2:
 178              	.LFB68:
  96:Drivers/GD32E23x_standard_peripheral/Source/gd32e23x_rcu.c **** 
  97:Drivers/GD32E23x_standard_peripheral/Source/gd32e23x_rcu.c **** /*!
  98:Drivers/GD32E23x_standard_peripheral/Source/gd32e23x_rcu.c ****     \brief      disable the peripherals clock
  99:Drivers/GD32E23x_standard_peripheral/Source/gd32e23x_rcu.c ****     \param[in]  periph: RCU peripherals, refer to rcu_periph_enum
 100:Drivers/GD32E23x_standard_peripheral/Source/gd32e23x_rcu.c ****                 only one parameter can be selected which is shown as below:
 101:Drivers/GD32E23x_standard_peripheral/Source/gd32e23x_rcu.c ****       \arg        RCU_GPIOx (x=A,B,C,F): GPIO ports clock
 102:Drivers/GD32E23x_standard_peripheral/Source/gd32e23x_rcu.c ****       \arg        RCU_DMA: DMA clock
 103:Drivers/GD32E23x_standard_peripheral/Source/gd32e23x_rcu.c ****       \arg        RCU_CRC: CRC clock
 104:Drivers/GD32E23x_standard_peripheral/Source/gd32e23x_rcu.c ****       \arg        RCU_CFGCMP: CFGCMP clock
 105:Drivers/GD32E23x_standard_peripheral/Source/gd32e23x_rcu.c ****       \arg        RCU_ADC: ADC clock
 106:Drivers/GD32E23x_standard_peripheral/Source/gd32e23x_rcu.c ****       \arg        RCU_TIMERx (x=0,2,5,13,14,15,16): TIMER clock
 107:Drivers/GD32E23x_standard_peripheral/Source/gd32e23x_rcu.c ****       \arg        RCU_SPIx (x=0,1): SPI clock
 108:Drivers/GD32E23x_standard_peripheral/Source/gd32e23x_rcu.c ****       \arg        RCU_USARTx (x=0,1): USART clock
 109:Drivers/GD32E23x_standard_peripheral/Source/gd32e23x_rcu.c ****       \arg        RCU_WWDGT: WWDGT clock
ARM GAS  /var/folders/rv/zq8s_02j1dj4vjvr1mm5zl2r0000gn/T//cc2hOtpo.s 			page 6


 110:Drivers/GD32E23x_standard_peripheral/Source/gd32e23x_rcu.c ****       \arg        RCU_I2Cx (x=0,1): I2C clock
 111:Drivers/GD32E23x_standard_peripheral/Source/gd32e23x_rcu.c ****       \arg        RCU_PMU: PMU clock
 112:Drivers/GD32E23x_standard_peripheral/Source/gd32e23x_rcu.c ****       \arg        RCU_RTC: RTC clock
 113:Drivers/GD32E23x_standard_peripheral/Source/gd32e23x_rcu.c ****       \arg        RCU_DBGMCU: DBGMCU clock
 114:Drivers/GD32E23x_standard_peripheral/Source/gd32e23x_rcu.c ****     \param[out] none
 115:Drivers/GD32E23x_standard_peripheral/Source/gd32e23x_rcu.c ****     \retval     none
 116:Drivers/GD32E23x_standard_peripheral/Source/gd32e23x_rcu.c **** */
 117:Drivers/GD32E23x_standard_peripheral/Source/gd32e23x_rcu.c **** void rcu_periph_clock_disable(rcu_periph_enum periph)
 118:Drivers/GD32E23x_standard_peripheral/Source/gd32e23x_rcu.c **** {
 179              		.loc 1 118 1 is_stmt 1 view -0
 180              		.cfi_startproc
 181              		@ args = 0, pretend = 0, frame = 0
 182              		@ frame_needed = 0, uses_anonymous_args = 0
 183              		@ link register save eliminated.
 119:Drivers/GD32E23x_standard_peripheral/Source/gd32e23x_rcu.c ****     RCU_REG_VAL(periph) &= ~BIT(RCU_BIT_POS(periph));
 184              		.loc 1 119 5 view .LVU35
 185              		.loc 1 119 25 is_stmt 0 view .LVU36
 186 0000 8309     		lsrs	r3, r0, #6
 187 0002 41F2000C 		movw	ip, #4096
 188 0006 C4F2020C 		movt	ip, 16386
 189 000a 6344     		add	r3, r3, ip
 190 000c 1A68     		ldr	r2, [r3]
 191              		.loc 1 119 29 view .LVU37
 192 000e 1F21     		movs	r1, #31
 193 0010 0840     		ands	r0, r1
 194              	.LVL3:
 195              		.loc 1 119 29 view .LVU38
 196 0012 1E39     		subs	r1, r1, #30
 197 0014 8140     		lsls	r1, r1, r0
 198              		.loc 1 119 25 view .LVU39
 199 0016 8A43     		bics	r2, r1
 200 0018 1A60     		str	r2, [r3]
 120:Drivers/GD32E23x_standard_peripheral/Source/gd32e23x_rcu.c **** }
 201              		.loc 1 120 1 view .LVU40
 202              		@ sp needed
 203 001a 7047     		bx	lr
 204              		.cfi_endproc
 205              	.LFE68:
 207              		.section	.text.rcu_periph_clock_sleep_enable,"ax",%progbits
 208              		.align	1
 209              		.global	rcu_periph_clock_sleep_enable
 210              		.syntax unified
 211              		.code	16
 212              		.thumb_func
 213              		.fpu softvfp
 215              	rcu_periph_clock_sleep_enable:
 216              	.LVL4:
 217              	.LFB69:
 121:Drivers/GD32E23x_standard_peripheral/Source/gd32e23x_rcu.c **** 
 122:Drivers/GD32E23x_standard_peripheral/Source/gd32e23x_rcu.c **** /*!
 123:Drivers/GD32E23x_standard_peripheral/Source/gd32e23x_rcu.c ****     \brief      enable the peripherals clock when sleep mode
 124:Drivers/GD32E23x_standard_peripheral/Source/gd32e23x_rcu.c ****     \param[in]  periph: RCU peripherals, refer to rcu_periph_sleep_enum
 125:Drivers/GD32E23x_standard_peripheral/Source/gd32e23x_rcu.c ****                 only one parameter can be selected which is shown as below:
 126:Drivers/GD32E23x_standard_peripheral/Source/gd32e23x_rcu.c ****       \arg        RCU_FMC_SLP: FMC clock
 127:Drivers/GD32E23x_standard_peripheral/Source/gd32e23x_rcu.c ****       \arg        RCU_SRAM_SLP: SRAM clock
 128:Drivers/GD32E23x_standard_peripheral/Source/gd32e23x_rcu.c ****     \param[out] none
 129:Drivers/GD32E23x_standard_peripheral/Source/gd32e23x_rcu.c ****     \retval     none
ARM GAS  /var/folders/rv/zq8s_02j1dj4vjvr1mm5zl2r0000gn/T//cc2hOtpo.s 			page 7


 130:Drivers/GD32E23x_standard_peripheral/Source/gd32e23x_rcu.c **** */
 131:Drivers/GD32E23x_standard_peripheral/Source/gd32e23x_rcu.c **** void rcu_periph_clock_sleep_enable(rcu_periph_sleep_enum periph)
 132:Drivers/GD32E23x_standard_peripheral/Source/gd32e23x_rcu.c **** {
 218              		.loc 1 132 1 is_stmt 1 view -0
 219              		.cfi_startproc
 220              		@ args = 0, pretend = 0, frame = 0
 221              		@ frame_needed = 0, uses_anonymous_args = 0
 222              		@ link register save eliminated.
 133:Drivers/GD32E23x_standard_peripheral/Source/gd32e23x_rcu.c ****     RCU_REG_VAL(periph) |= BIT(RCU_BIT_POS(periph));
 223              		.loc 1 133 5 view .LVU42
 224              		.loc 1 133 25 is_stmt 0 view .LVU43
 225 0000 8309     		lsrs	r3, r0, #6
 226 0002 41F2000C 		movw	ip, #4096
 227 0006 C4F2020C 		movt	ip, 16386
 228 000a 6344     		add	r3, r3, ip
 229 000c 1A68     		ldr	r2, [r3]
 230              		.loc 1 133 28 view .LVU44
 231 000e 1F21     		movs	r1, #31
 232 0010 0840     		ands	r0, r1
 233              	.LVL5:
 234              		.loc 1 133 28 view .LVU45
 235 0012 1E39     		subs	r1, r1, #30
 236 0014 8140     		lsls	r1, r1, r0
 237              		.loc 1 133 25 view .LVU46
 238 0016 0A43     		orrs	r2, r1
 239 0018 1A60     		str	r2, [r3]
 134:Drivers/GD32E23x_standard_peripheral/Source/gd32e23x_rcu.c **** }
 240              		.loc 1 134 1 view .LVU47
 241              		@ sp needed
 242 001a 7047     		bx	lr
 243              		.cfi_endproc
 244              	.LFE69:
 246              		.section	.text.rcu_periph_clock_sleep_disable,"ax",%progbits
 247              		.align	1
 248              		.global	rcu_periph_clock_sleep_disable
 249              		.syntax unified
 250              		.code	16
 251              		.thumb_func
 252              		.fpu softvfp
 254              	rcu_periph_clock_sleep_disable:
 255              	.LVL6:
 256              	.LFB70:
 135:Drivers/GD32E23x_standard_peripheral/Source/gd32e23x_rcu.c **** 
 136:Drivers/GD32E23x_standard_peripheral/Source/gd32e23x_rcu.c **** /*!
 137:Drivers/GD32E23x_standard_peripheral/Source/gd32e23x_rcu.c ****     \brief      disable the peripherals clock when sleep mode
 138:Drivers/GD32E23x_standard_peripheral/Source/gd32e23x_rcu.c ****     \param[in]  periph: RCU peripherals, refer to rcu_periph_sleep_enum
 139:Drivers/GD32E23x_standard_peripheral/Source/gd32e23x_rcu.c ****                 only one parameter can be selected which is shown as below:
 140:Drivers/GD32E23x_standard_peripheral/Source/gd32e23x_rcu.c ****       \arg        RCU_FMC_SLP: FMC clock
 141:Drivers/GD32E23x_standard_peripheral/Source/gd32e23x_rcu.c ****       \arg        RCU_SRAM_SLP: SRAM clock
 142:Drivers/GD32E23x_standard_peripheral/Source/gd32e23x_rcu.c ****     \param[out] none
 143:Drivers/GD32E23x_standard_peripheral/Source/gd32e23x_rcu.c ****     \retval     none
 144:Drivers/GD32E23x_standard_peripheral/Source/gd32e23x_rcu.c **** */
 145:Drivers/GD32E23x_standard_peripheral/Source/gd32e23x_rcu.c **** void rcu_periph_clock_sleep_disable(rcu_periph_sleep_enum periph)
 146:Drivers/GD32E23x_standard_peripheral/Source/gd32e23x_rcu.c **** {
 257              		.loc 1 146 1 is_stmt 1 view -0
 258              		.cfi_startproc
 259              		@ args = 0, pretend = 0, frame = 0
ARM GAS  /var/folders/rv/zq8s_02j1dj4vjvr1mm5zl2r0000gn/T//cc2hOtpo.s 			page 8


 260              		@ frame_needed = 0, uses_anonymous_args = 0
 261              		@ link register save eliminated.
 147:Drivers/GD32E23x_standard_peripheral/Source/gd32e23x_rcu.c ****     RCU_REG_VAL(periph) &= ~BIT(RCU_BIT_POS(periph));
 262              		.loc 1 147 5 view .LVU49
 263              		.loc 1 147 25 is_stmt 0 view .LVU50
 264 0000 8309     		lsrs	r3, r0, #6
 265 0002 41F2000C 		movw	ip, #4096
 266 0006 C4F2020C 		movt	ip, 16386
 267 000a 6344     		add	r3, r3, ip
 268 000c 1A68     		ldr	r2, [r3]
 269              		.loc 1 147 29 view .LVU51
 270 000e 1F21     		movs	r1, #31
 271 0010 0840     		ands	r0, r1
 272              	.LVL7:
 273              		.loc 1 147 29 view .LVU52
 274 0012 1E39     		subs	r1, r1, #30
 275 0014 8140     		lsls	r1, r1, r0
 276              		.loc 1 147 25 view .LVU53
 277 0016 8A43     		bics	r2, r1
 278 0018 1A60     		str	r2, [r3]
 148:Drivers/GD32E23x_standard_peripheral/Source/gd32e23x_rcu.c **** }
 279              		.loc 1 148 1 view .LVU54
 280              		@ sp needed
 281 001a 7047     		bx	lr
 282              		.cfi_endproc
 283              	.LFE70:
 285              		.section	.text.rcu_periph_reset_enable,"ax",%progbits
 286              		.align	1
 287              		.global	rcu_periph_reset_enable
 288              		.syntax unified
 289              		.code	16
 290              		.thumb_func
 291              		.fpu softvfp
 293              	rcu_periph_reset_enable:
 294              	.LVL8:
 295              	.LFB71:
 149:Drivers/GD32E23x_standard_peripheral/Source/gd32e23x_rcu.c **** /*!
 150:Drivers/GD32E23x_standard_peripheral/Source/gd32e23x_rcu.c ****     \brief      reset the peripherals
 151:Drivers/GD32E23x_standard_peripheral/Source/gd32e23x_rcu.c ****     \param[in]  periph_reset: RCU peripherals reset, refer to rcu_periph_reset_enum
 152:Drivers/GD32E23x_standard_peripheral/Source/gd32e23x_rcu.c ****                 only one parameter can be selected which is shown as below:
 153:Drivers/GD32E23x_standard_peripheral/Source/gd32e23x_rcu.c ****       \arg        RCU_GPIOxRST (x=A,B,C,F): reset GPIO ports
 154:Drivers/GD32E23x_standard_peripheral/Source/gd32e23x_rcu.c ****       \arg        RCU_CFGCMPRST: reset CFGCMP
 155:Drivers/GD32E23x_standard_peripheral/Source/gd32e23x_rcu.c ****       \arg        RCU_ADCRST: reset ADC
 156:Drivers/GD32E23x_standard_peripheral/Source/gd32e23x_rcu.c ****       \arg        RCU_TIMERxRST (x=0,2,5,13,14,15,16): reset TIMER
 157:Drivers/GD32E23x_standard_peripheral/Source/gd32e23x_rcu.c ****       \arg        RCU_SPIxRST (x=0,1): reset SPI
 158:Drivers/GD32E23x_standard_peripheral/Source/gd32e23x_rcu.c ****       \arg        RCU_USARTxRST (x=0,1): reset USART
 159:Drivers/GD32E23x_standard_peripheral/Source/gd32e23x_rcu.c ****       \arg        RCU_WWDGTRST: reset WWDGT
 160:Drivers/GD32E23x_standard_peripheral/Source/gd32e23x_rcu.c ****       \arg        RCU_I2CxRST (x=0,1): reset I2C
 161:Drivers/GD32E23x_standard_peripheral/Source/gd32e23x_rcu.c ****       \arg        RCU_PMURST: reset PMU
 162:Drivers/GD32E23x_standard_peripheral/Source/gd32e23x_rcu.c ****     \param[out] none
 163:Drivers/GD32E23x_standard_peripheral/Source/gd32e23x_rcu.c ****     \retval     none
 164:Drivers/GD32E23x_standard_peripheral/Source/gd32e23x_rcu.c **** */
 165:Drivers/GD32E23x_standard_peripheral/Source/gd32e23x_rcu.c **** void rcu_periph_reset_enable(rcu_periph_reset_enum periph_reset)
 166:Drivers/GD32E23x_standard_peripheral/Source/gd32e23x_rcu.c **** {
 296              		.loc 1 166 1 is_stmt 1 view -0
 297              		.cfi_startproc
 298              		@ args = 0, pretend = 0, frame = 0
ARM GAS  /var/folders/rv/zq8s_02j1dj4vjvr1mm5zl2r0000gn/T//cc2hOtpo.s 			page 9


 299              		@ frame_needed = 0, uses_anonymous_args = 0
 300              		@ link register save eliminated.
 167:Drivers/GD32E23x_standard_peripheral/Source/gd32e23x_rcu.c ****     RCU_REG_VAL(periph_reset) |= BIT(RCU_BIT_POS(periph_reset));
 301              		.loc 1 167 5 view .LVU56
 302              		.loc 1 167 31 is_stmt 0 view .LVU57
 303 0000 8309     		lsrs	r3, r0, #6
 304 0002 41F2000C 		movw	ip, #4096
 305 0006 C4F2020C 		movt	ip, 16386
 306 000a 6344     		add	r3, r3, ip
 307 000c 1A68     		ldr	r2, [r3]
 308              		.loc 1 167 34 view .LVU58
 309 000e 1F21     		movs	r1, #31
 310 0010 0840     		ands	r0, r1
 311              	.LVL9:
 312              		.loc 1 167 34 view .LVU59
 313 0012 1E39     		subs	r1, r1, #30
 314 0014 8140     		lsls	r1, r1, r0
 315              		.loc 1 167 31 view .LVU60
 316 0016 0A43     		orrs	r2, r1
 317 0018 1A60     		str	r2, [r3]
 168:Drivers/GD32E23x_standard_peripheral/Source/gd32e23x_rcu.c **** }
 318              		.loc 1 168 1 view .LVU61
 319              		@ sp needed
 320 001a 7047     		bx	lr
 321              		.cfi_endproc
 322              	.LFE71:
 324              		.section	.text.rcu_periph_reset_disable,"ax",%progbits
 325              		.align	1
 326              		.global	rcu_periph_reset_disable
 327              		.syntax unified
 328              		.code	16
 329              		.thumb_func
 330              		.fpu softvfp
 332              	rcu_periph_reset_disable:
 333              	.LVL10:
 334              	.LFB72:
 169:Drivers/GD32E23x_standard_peripheral/Source/gd32e23x_rcu.c **** 
 170:Drivers/GD32E23x_standard_peripheral/Source/gd32e23x_rcu.c **** /*!
 171:Drivers/GD32E23x_standard_peripheral/Source/gd32e23x_rcu.c ****     \brief      disable reset the peripheral
 172:Drivers/GD32E23x_standard_peripheral/Source/gd32e23x_rcu.c ****     \param[in]  periph_reset: RCU peripherals reset, refer to rcu_periph_reset_enum
 173:Drivers/GD32E23x_standard_peripheral/Source/gd32e23x_rcu.c ****                 only one parameter can be selected which is shown as below:
 174:Drivers/GD32E23x_standard_peripheral/Source/gd32e23x_rcu.c ****       \arg        RCU_GPIOxRST (x=A,B,C,F): reset GPIO ports
 175:Drivers/GD32E23x_standard_peripheral/Source/gd32e23x_rcu.c ****       \arg        RCU_CFGCMPRST: reset CFGCMP
 176:Drivers/GD32E23x_standard_peripheral/Source/gd32e23x_rcu.c ****       \arg        RCU_ADCRST: reset ADC
 177:Drivers/GD32E23x_standard_peripheral/Source/gd32e23x_rcu.c ****       \arg        RCU_TIMERxRST (x=0,2,5,13,14,15,16): reset TIMER
 178:Drivers/GD32E23x_standard_peripheral/Source/gd32e23x_rcu.c ****       \arg        RCU_SPIxRST (x=0,1): reset SPI
 179:Drivers/GD32E23x_standard_peripheral/Source/gd32e23x_rcu.c ****       \arg        RCU_USARTxRST (x=0,1): reset USART
 180:Drivers/GD32E23x_standard_peripheral/Source/gd32e23x_rcu.c ****       \arg        RCU_WWDGTRST: reset WWDGT
 181:Drivers/GD32E23x_standard_peripheral/Source/gd32e23x_rcu.c ****       \arg        RCU_I2CxRST (x=0,1): reset I2C
 182:Drivers/GD32E23x_standard_peripheral/Source/gd32e23x_rcu.c ****       \arg        RCU_PMURST: reset PMU
 183:Drivers/GD32E23x_standard_peripheral/Source/gd32e23x_rcu.c ****     \param[out] none
 184:Drivers/GD32E23x_standard_peripheral/Source/gd32e23x_rcu.c ****     \retval     none
 185:Drivers/GD32E23x_standard_peripheral/Source/gd32e23x_rcu.c **** */
 186:Drivers/GD32E23x_standard_peripheral/Source/gd32e23x_rcu.c **** void rcu_periph_reset_disable(rcu_periph_reset_enum periph_reset)
 187:Drivers/GD32E23x_standard_peripheral/Source/gd32e23x_rcu.c **** {
 335              		.loc 1 187 1 is_stmt 1 view -0
 336              		.cfi_startproc
ARM GAS  /var/folders/rv/zq8s_02j1dj4vjvr1mm5zl2r0000gn/T//cc2hOtpo.s 			page 10


 337              		@ args = 0, pretend = 0, frame = 0
 338              		@ frame_needed = 0, uses_anonymous_args = 0
 339              		@ link register save eliminated.
 188:Drivers/GD32E23x_standard_peripheral/Source/gd32e23x_rcu.c ****     RCU_REG_VAL(periph_reset) &= ~BIT(RCU_BIT_POS(periph_reset));
 340              		.loc 1 188 5 view .LVU63
 341              		.loc 1 188 31 is_stmt 0 view .LVU64
 342 0000 8309     		lsrs	r3, r0, #6
 343 0002 41F2000C 		movw	ip, #4096
 344 0006 C4F2020C 		movt	ip, 16386
 345 000a 6344     		add	r3, r3, ip
 346 000c 1A68     		ldr	r2, [r3]
 347              		.loc 1 188 35 view .LVU65
 348 000e 1F21     		movs	r1, #31
 349 0010 0840     		ands	r0, r1
 350              	.LVL11:
 351              		.loc 1 188 35 view .LVU66
 352 0012 1E39     		subs	r1, r1, #30
 353 0014 8140     		lsls	r1, r1, r0
 354              		.loc 1 188 31 view .LVU67
 355 0016 8A43     		bics	r2, r1
 356 0018 1A60     		str	r2, [r3]
 189:Drivers/GD32E23x_standard_peripheral/Source/gd32e23x_rcu.c **** }
 357              		.loc 1 189 1 view .LVU68
 358              		@ sp needed
 359 001a 7047     		bx	lr
 360              		.cfi_endproc
 361              	.LFE72:
 363              		.section	.text.rcu_bkp_reset_enable,"ax",%progbits
 364              		.align	1
 365              		.global	rcu_bkp_reset_enable
 366              		.syntax unified
 367              		.code	16
 368              		.thumb_func
 369              		.fpu softvfp
 371              	rcu_bkp_reset_enable:
 372              	.LFB73:
 190:Drivers/GD32E23x_standard_peripheral/Source/gd32e23x_rcu.c **** 
 191:Drivers/GD32E23x_standard_peripheral/Source/gd32e23x_rcu.c **** /*!
 192:Drivers/GD32E23x_standard_peripheral/Source/gd32e23x_rcu.c ****     \brief      reset the BKP
 193:Drivers/GD32E23x_standard_peripheral/Source/gd32e23x_rcu.c ****     \param[in]  none
 194:Drivers/GD32E23x_standard_peripheral/Source/gd32e23x_rcu.c ****     \param[out] none
 195:Drivers/GD32E23x_standard_peripheral/Source/gd32e23x_rcu.c ****     \retval     none
 196:Drivers/GD32E23x_standard_peripheral/Source/gd32e23x_rcu.c **** */
 197:Drivers/GD32E23x_standard_peripheral/Source/gd32e23x_rcu.c **** void rcu_bkp_reset_enable(void)
 198:Drivers/GD32E23x_standard_peripheral/Source/gd32e23x_rcu.c **** {
 373              		.loc 1 198 1 is_stmt 1 view -0
 374              		.cfi_startproc
 375              		@ args = 0, pretend = 0, frame = 0
 376              		@ frame_needed = 0, uses_anonymous_args = 0
 377              		@ link register save eliminated.
 199:Drivers/GD32E23x_standard_peripheral/Source/gd32e23x_rcu.c ****     RCU_BDCTL |= RCU_BDCTL_BKPRST;
 378              		.loc 1 199 5 view .LVU70
 379              		.loc 1 199 15 is_stmt 0 view .LVU71
 380 0000 41F22003 		movw	r3, #4128
 381 0004 C4F20203 		movt	r3, 16386
 382 0008 1968     		ldr	r1, [r3]
 383 000a 8022     		movs	r2, #128
ARM GAS  /var/folders/rv/zq8s_02j1dj4vjvr1mm5zl2r0000gn/T//cc2hOtpo.s 			page 11


 384 000c 5202     		lsls	r2, r2, #9
 385 000e 0A43     		orrs	r2, r1
 386 0010 1A60     		str	r2, [r3]
 200:Drivers/GD32E23x_standard_peripheral/Source/gd32e23x_rcu.c **** }
 387              		.loc 1 200 1 view .LVU72
 388              		@ sp needed
 389 0012 7047     		bx	lr
 390              		.cfi_endproc
 391              	.LFE73:
 393              		.section	.text.rcu_bkp_reset_disable,"ax",%progbits
 394              		.align	1
 395              		.global	rcu_bkp_reset_disable
 396              		.syntax unified
 397              		.code	16
 398              		.thumb_func
 399              		.fpu softvfp
 401              	rcu_bkp_reset_disable:
 402              	.LFB74:
 201:Drivers/GD32E23x_standard_peripheral/Source/gd32e23x_rcu.c **** 
 202:Drivers/GD32E23x_standard_peripheral/Source/gd32e23x_rcu.c **** /*!
 203:Drivers/GD32E23x_standard_peripheral/Source/gd32e23x_rcu.c ****     \brief      disable the BKP reset
 204:Drivers/GD32E23x_standard_peripheral/Source/gd32e23x_rcu.c ****     \param[in]  none
 205:Drivers/GD32E23x_standard_peripheral/Source/gd32e23x_rcu.c ****     \param[out] none
 206:Drivers/GD32E23x_standard_peripheral/Source/gd32e23x_rcu.c ****     \retval     none
 207:Drivers/GD32E23x_standard_peripheral/Source/gd32e23x_rcu.c **** */
 208:Drivers/GD32E23x_standard_peripheral/Source/gd32e23x_rcu.c **** void rcu_bkp_reset_disable(void)
 209:Drivers/GD32E23x_standard_peripheral/Source/gd32e23x_rcu.c **** {
 403              		.loc 1 209 1 is_stmt 1 view -0
 404              		.cfi_startproc
 405              		@ args = 0, pretend = 0, frame = 0
 406              		@ frame_needed = 0, uses_anonymous_args = 0
 407              		@ link register save eliminated.
 210:Drivers/GD32E23x_standard_peripheral/Source/gd32e23x_rcu.c ****     RCU_BDCTL &= ~RCU_BDCTL_BKPRST;
 408              		.loc 1 210 5 view .LVU74
 409              		.loc 1 210 15 is_stmt 0 view .LVU75
 410 0000 41F22003 		movw	r3, #4128
 411 0004 C4F20203 		movt	r3, 16386
 412 0008 1A68     		ldr	r2, [r3]
 413 000a 0249     		ldr	r1, .L13
 414 000c 0A40     		ands	r2, r1
 415 000e 1A60     		str	r2, [r3]
 211:Drivers/GD32E23x_standard_peripheral/Source/gd32e23x_rcu.c **** }
 416              		.loc 1 211 1 view .LVU76
 417              		@ sp needed
 418 0010 7047     		bx	lr
 419              	.L14:
 420 0012 C046     		.align	2
 421              	.L13:
 422 0014 FFFFFEFF 		.word	-65537
 423              		.cfi_endproc
 424              	.LFE74:
 426              		.section	.text.rcu_system_clock_source_config,"ax",%progbits
 427              		.align	1
 428              		.global	rcu_system_clock_source_config
 429              		.syntax unified
 430              		.code	16
 431              		.thumb_func
ARM GAS  /var/folders/rv/zq8s_02j1dj4vjvr1mm5zl2r0000gn/T//cc2hOtpo.s 			page 12


 432              		.fpu softvfp
 434              	rcu_system_clock_source_config:
 435              	.LVL12:
 436              	.LFB75:
 212:Drivers/GD32E23x_standard_peripheral/Source/gd32e23x_rcu.c **** 
 213:Drivers/GD32E23x_standard_peripheral/Source/gd32e23x_rcu.c **** /*!
 214:Drivers/GD32E23x_standard_peripheral/Source/gd32e23x_rcu.c ****     \brief      configure the system clock source
 215:Drivers/GD32E23x_standard_peripheral/Source/gd32e23x_rcu.c ****     \param[in]  ck_sys: system clock source select
 216:Drivers/GD32E23x_standard_peripheral/Source/gd32e23x_rcu.c ****                 only one parameter can be selected which is shown as below:
 217:Drivers/GD32E23x_standard_peripheral/Source/gd32e23x_rcu.c ****       \arg        RCU_CKSYSSRC_IRC8M: select CK_IRC8M as the CK_SYS source
 218:Drivers/GD32E23x_standard_peripheral/Source/gd32e23x_rcu.c ****       \arg        RCU_CKSYSSRC_HXTAL: select CK_HXTAL as the CK_SYS source
 219:Drivers/GD32E23x_standard_peripheral/Source/gd32e23x_rcu.c ****       \arg        RCU_CKSYSSRC_PLL: select CK_PLL as the CK_SYS source
 220:Drivers/GD32E23x_standard_peripheral/Source/gd32e23x_rcu.c ****     \param[out] none
 221:Drivers/GD32E23x_standard_peripheral/Source/gd32e23x_rcu.c ****     \retval     none
 222:Drivers/GD32E23x_standard_peripheral/Source/gd32e23x_rcu.c **** */
 223:Drivers/GD32E23x_standard_peripheral/Source/gd32e23x_rcu.c **** void rcu_system_clock_source_config(uint32_t ck_sys)
 224:Drivers/GD32E23x_standard_peripheral/Source/gd32e23x_rcu.c **** {
 437              		.loc 1 224 1 is_stmt 1 view -0
 438              		.cfi_startproc
 439              		@ args = 0, pretend = 0, frame = 0
 440              		@ frame_needed = 0, uses_anonymous_args = 0
 441              		@ link register save eliminated.
 225:Drivers/GD32E23x_standard_peripheral/Source/gd32e23x_rcu.c ****     uint32_t cksys_source = 0U;
 442              		.loc 1 225 5 view .LVU78
 226:Drivers/GD32E23x_standard_peripheral/Source/gd32e23x_rcu.c ****     cksys_source = RCU_CFG0;
 443              		.loc 1 226 5 view .LVU79
 444              		.loc 1 226 18 is_stmt 0 view .LVU80
 445 0000 41F20402 		movw	r2, #4100
 446 0004 C4F20202 		movt	r2, 16386
 447 0008 1368     		ldr	r3, [r2]
 448              	.LVL13:
 227:Drivers/GD32E23x_standard_peripheral/Source/gd32e23x_rcu.c ****     /* reset the SCS bits and set according to ck_sys */
 228:Drivers/GD32E23x_standard_peripheral/Source/gd32e23x_rcu.c ****     cksys_source &= ~RCU_CFG0_SCS;
 449              		.loc 1 228 5 is_stmt 1 view .LVU81
 450              		.loc 1 228 18 is_stmt 0 view .LVU82
 451 000a 0321     		movs	r1, #3
 452 000c 8B43     		bics	r3, r1
 453              	.LVL14:
 229:Drivers/GD32E23x_standard_peripheral/Source/gd32e23x_rcu.c ****     RCU_CFG0 = (ck_sys | cksys_source);
 454              		.loc 1 229 5 is_stmt 1 view .LVU83
 455              		.loc 1 229 24 is_stmt 0 view .LVU84
 456 000e 0343     		orrs	r3, r0
 457              	.LVL15:
 458              		.loc 1 229 14 view .LVU85
 459 0010 1360     		str	r3, [r2]
 230:Drivers/GD32E23x_standard_peripheral/Source/gd32e23x_rcu.c **** }
 460              		.loc 1 230 1 view .LVU86
 461              		@ sp needed
 462 0012 7047     		bx	lr
 463              		.cfi_endproc
 464              	.LFE75:
 466              		.section	.text.rcu_system_clock_source_get,"ax",%progbits
 467              		.align	1
 468              		.global	rcu_system_clock_source_get
 469              		.syntax unified
 470              		.code	16
 471              		.thumb_func
ARM GAS  /var/folders/rv/zq8s_02j1dj4vjvr1mm5zl2r0000gn/T//cc2hOtpo.s 			page 13


 472              		.fpu softvfp
 474              	rcu_system_clock_source_get:
 475              	.LFB76:
 231:Drivers/GD32E23x_standard_peripheral/Source/gd32e23x_rcu.c **** 
 232:Drivers/GD32E23x_standard_peripheral/Source/gd32e23x_rcu.c **** /*!
 233:Drivers/GD32E23x_standard_peripheral/Source/gd32e23x_rcu.c ****     \brief      get the system clock source
 234:Drivers/GD32E23x_standard_peripheral/Source/gd32e23x_rcu.c ****     \param[in]  none
 235:Drivers/GD32E23x_standard_peripheral/Source/gd32e23x_rcu.c ****     \param[out] none
 236:Drivers/GD32E23x_standard_peripheral/Source/gd32e23x_rcu.c ****     \retval     which clock is selected as CK_SYS source
 237:Drivers/GD32E23x_standard_peripheral/Source/gd32e23x_rcu.c ****       \arg        RCU_SCSS_IRC8M: select CK_IRC8M as the CK_SYS source
 238:Drivers/GD32E23x_standard_peripheral/Source/gd32e23x_rcu.c ****       \arg        RCU_SCSS_HXTAL: select CK_HXTAL as the CK_SYS source
 239:Drivers/GD32E23x_standard_peripheral/Source/gd32e23x_rcu.c ****       \arg        RCU_SCSS_PLL: select CK_PLL as the CK_SYS source
 240:Drivers/GD32E23x_standard_peripheral/Source/gd32e23x_rcu.c **** */
 241:Drivers/GD32E23x_standard_peripheral/Source/gd32e23x_rcu.c **** uint32_t rcu_system_clock_source_get(void)
 242:Drivers/GD32E23x_standard_peripheral/Source/gd32e23x_rcu.c **** {
 476              		.loc 1 242 1 is_stmt 1 view -0
 477              		.cfi_startproc
 478              		@ args = 0, pretend = 0, frame = 0
 479              		@ frame_needed = 0, uses_anonymous_args = 0
 480              		@ link register save eliminated.
 243:Drivers/GD32E23x_standard_peripheral/Source/gd32e23x_rcu.c ****     return (RCU_CFG0 & RCU_CFG0_SCSS);
 481              		.loc 1 243 5 view .LVU88
 482              		.loc 1 243 22 is_stmt 0 view .LVU89
 483 0000 41F20403 		movw	r3, #4100
 484 0004 C4F20203 		movt	r3, 16386
 485 0008 1B68     		ldr	r3, [r3]
 486 000a 0C20     		movs	r0, #12
 487 000c 1840     		ands	r0, r3
 244:Drivers/GD32E23x_standard_peripheral/Source/gd32e23x_rcu.c **** }
 488              		.loc 1 244 1 view .LVU90
 489              		@ sp needed
 490 000e 7047     		bx	lr
 491              		.cfi_endproc
 492              	.LFE76:
 494              		.section	.text.rcu_ahb_clock_config,"ax",%progbits
 495              		.align	1
 496              		.global	rcu_ahb_clock_config
 497              		.syntax unified
 498              		.code	16
 499              		.thumb_func
 500              		.fpu softvfp
 502              	rcu_ahb_clock_config:
 503              	.LVL16:
 504              	.LFB77:
 245:Drivers/GD32E23x_standard_peripheral/Source/gd32e23x_rcu.c **** 
 246:Drivers/GD32E23x_standard_peripheral/Source/gd32e23x_rcu.c **** /*!
 247:Drivers/GD32E23x_standard_peripheral/Source/gd32e23x_rcu.c ****     \brief      configure the AHB clock prescaler selection
 248:Drivers/GD32E23x_standard_peripheral/Source/gd32e23x_rcu.c ****     \param[in]  ck_ahb: AHB clock prescaler selection
 249:Drivers/GD32E23x_standard_peripheral/Source/gd32e23x_rcu.c ****                 only one parameter can be selected which is shown as below:
 250:Drivers/GD32E23x_standard_peripheral/Source/gd32e23x_rcu.c ****       \arg        RCU_AHB_CKSYS_DIVx, x=1, 2, 4, 8, 16, 64, 128, 256, 512
 251:Drivers/GD32E23x_standard_peripheral/Source/gd32e23x_rcu.c ****     \param[out] none
 252:Drivers/GD32E23x_standard_peripheral/Source/gd32e23x_rcu.c ****     \retval     none
 253:Drivers/GD32E23x_standard_peripheral/Source/gd32e23x_rcu.c **** */
 254:Drivers/GD32E23x_standard_peripheral/Source/gd32e23x_rcu.c **** void rcu_ahb_clock_config(uint32_t ck_ahb)
 255:Drivers/GD32E23x_standard_peripheral/Source/gd32e23x_rcu.c **** {
 505              		.loc 1 255 1 is_stmt 1 view -0
 506              		.cfi_startproc
ARM GAS  /var/folders/rv/zq8s_02j1dj4vjvr1mm5zl2r0000gn/T//cc2hOtpo.s 			page 14


 507              		@ args = 0, pretend = 0, frame = 0
 508              		@ frame_needed = 0, uses_anonymous_args = 0
 509              		@ link register save eliminated.
 256:Drivers/GD32E23x_standard_peripheral/Source/gd32e23x_rcu.c ****     uint32_t ahbpsc = 0U;
 510              		.loc 1 256 5 view .LVU92
 257:Drivers/GD32E23x_standard_peripheral/Source/gd32e23x_rcu.c ****     ahbpsc = RCU_CFG0;
 511              		.loc 1 257 5 view .LVU93
 512              		.loc 1 257 12 is_stmt 0 view .LVU94
 513 0000 41F20402 		movw	r2, #4100
 514 0004 C4F20202 		movt	r2, 16386
 515 0008 1368     		ldr	r3, [r2]
 516              	.LVL17:
 258:Drivers/GD32E23x_standard_peripheral/Source/gd32e23x_rcu.c ****     /* reset the AHBPSC bits and set according to ck_ahb */
 259:Drivers/GD32E23x_standard_peripheral/Source/gd32e23x_rcu.c ****     ahbpsc &= ~RCU_CFG0_AHBPSC;
 517              		.loc 1 259 5 is_stmt 1 view .LVU95
 518              		.loc 1 259 12 is_stmt 0 view .LVU96
 519 000a F021     		movs	r1, #240
 520 000c 8B43     		bics	r3, r1
 521              	.LVL18:
 260:Drivers/GD32E23x_standard_peripheral/Source/gd32e23x_rcu.c ****     RCU_CFG0 = (ck_ahb | ahbpsc);
 522              		.loc 1 260 5 is_stmt 1 view .LVU97
 523              		.loc 1 260 24 is_stmt 0 view .LVU98
 524 000e 0343     		orrs	r3, r0
 525              	.LVL19:
 526              		.loc 1 260 14 view .LVU99
 527 0010 1360     		str	r3, [r2]
 261:Drivers/GD32E23x_standard_peripheral/Source/gd32e23x_rcu.c **** }
 528              		.loc 1 261 1 view .LVU100
 529              		@ sp needed
 530 0012 7047     		bx	lr
 531              		.cfi_endproc
 532              	.LFE77:
 534              		.section	.text.rcu_apb1_clock_config,"ax",%progbits
 535              		.align	1
 536              		.global	rcu_apb1_clock_config
 537              		.syntax unified
 538              		.code	16
 539              		.thumb_func
 540              		.fpu softvfp
 542              	rcu_apb1_clock_config:
 543              	.LVL20:
 544              	.LFB78:
 262:Drivers/GD32E23x_standard_peripheral/Source/gd32e23x_rcu.c **** 
 263:Drivers/GD32E23x_standard_peripheral/Source/gd32e23x_rcu.c **** /*!
 264:Drivers/GD32E23x_standard_peripheral/Source/gd32e23x_rcu.c ****     \brief      configure the APB1 clock prescaler selection
 265:Drivers/GD32E23x_standard_peripheral/Source/gd32e23x_rcu.c ****     \param[in]  ck_apb1: APB1 clock prescaler selection
 266:Drivers/GD32E23x_standard_peripheral/Source/gd32e23x_rcu.c ****                 only one parameter can be selected which is shown as below:
 267:Drivers/GD32E23x_standard_peripheral/Source/gd32e23x_rcu.c ****       \arg        RCU_APB1_CKAHB_DIV1: select CK_AHB as CK_APB1
 268:Drivers/GD32E23x_standard_peripheral/Source/gd32e23x_rcu.c ****       \arg        RCU_APB1_CKAHB_DIV2: select CK_AHB/2 as CK_APB1
 269:Drivers/GD32E23x_standard_peripheral/Source/gd32e23x_rcu.c ****       \arg        RCU_APB1_CKAHB_DIV4: select CK_AHB/4 as CK_APB1
 270:Drivers/GD32E23x_standard_peripheral/Source/gd32e23x_rcu.c ****       \arg        RCU_APB1_CKAHB_DIV8: select CK_AHB/8 as CK_APB1
 271:Drivers/GD32E23x_standard_peripheral/Source/gd32e23x_rcu.c ****       \arg        RCU_APB1_CKAHB_DIV16: select CK_AHB/16 as CK_APB1
 272:Drivers/GD32E23x_standard_peripheral/Source/gd32e23x_rcu.c ****     \param[out] none
 273:Drivers/GD32E23x_standard_peripheral/Source/gd32e23x_rcu.c ****     \retval     none
 274:Drivers/GD32E23x_standard_peripheral/Source/gd32e23x_rcu.c **** */
 275:Drivers/GD32E23x_standard_peripheral/Source/gd32e23x_rcu.c **** void rcu_apb1_clock_config(uint32_t ck_apb1)
 276:Drivers/GD32E23x_standard_peripheral/Source/gd32e23x_rcu.c **** {
ARM GAS  /var/folders/rv/zq8s_02j1dj4vjvr1mm5zl2r0000gn/T//cc2hOtpo.s 			page 15


 545              		.loc 1 276 1 is_stmt 1 view -0
 546              		.cfi_startproc
 547              		@ args = 0, pretend = 0, frame = 0
 548              		@ frame_needed = 0, uses_anonymous_args = 0
 549              		@ link register save eliminated.
 277:Drivers/GD32E23x_standard_peripheral/Source/gd32e23x_rcu.c ****     uint32_t apb1psc = 0U;
 550              		.loc 1 277 5 view .LVU102
 278:Drivers/GD32E23x_standard_peripheral/Source/gd32e23x_rcu.c ****     apb1psc = RCU_CFG0;
 551              		.loc 1 278 5 view .LVU103
 552              		.loc 1 278 13 is_stmt 0 view .LVU104
 553 0000 41F20402 		movw	r2, #4100
 554 0004 C4F20202 		movt	r2, 16386
 555 0008 1368     		ldr	r3, [r2]
 556              	.LVL21:
 279:Drivers/GD32E23x_standard_peripheral/Source/gd32e23x_rcu.c ****     /* reset the APB1PSC and set according to ck_apb1 */
 280:Drivers/GD32E23x_standard_peripheral/Source/gd32e23x_rcu.c ****     apb1psc &= ~RCU_CFG0_APB1PSC;
 557              		.loc 1 280 5 is_stmt 1 view .LVU105
 558              		.loc 1 280 13 is_stmt 0 view .LVU106
 559 000a 0249     		ldr	r1, .L19
 560 000c 0B40     		ands	r3, r1
 561              	.LVL22:
 281:Drivers/GD32E23x_standard_peripheral/Source/gd32e23x_rcu.c ****     RCU_CFG0 = (ck_apb1 | apb1psc);
 562              		.loc 1 281 5 is_stmt 1 view .LVU107
 563              		.loc 1 281 25 is_stmt 0 view .LVU108
 564 000e 0343     		orrs	r3, r0
 565              	.LVL23:
 566              		.loc 1 281 14 view .LVU109
 567 0010 1360     		str	r3, [r2]
 282:Drivers/GD32E23x_standard_peripheral/Source/gd32e23x_rcu.c **** }
 568              		.loc 1 282 1 view .LVU110
 569              		@ sp needed
 570 0012 7047     		bx	lr
 571              	.L20:
 572              		.align	2
 573              	.L19:
 574 0014 FFF8FFFF 		.word	-1793
 575              		.cfi_endproc
 576              	.LFE78:
 578              		.section	.text.rcu_apb2_clock_config,"ax",%progbits
 579              		.align	1
 580              		.global	rcu_apb2_clock_config
 581              		.syntax unified
 582              		.code	16
 583              		.thumb_func
 584              		.fpu softvfp
 586              	rcu_apb2_clock_config:
 587              	.LVL24:
 588              	.LFB79:
 283:Drivers/GD32E23x_standard_peripheral/Source/gd32e23x_rcu.c **** 
 284:Drivers/GD32E23x_standard_peripheral/Source/gd32e23x_rcu.c **** /*!
 285:Drivers/GD32E23x_standard_peripheral/Source/gd32e23x_rcu.c ****     \brief      configure the APB2 clock prescaler selection
 286:Drivers/GD32E23x_standard_peripheral/Source/gd32e23x_rcu.c ****     \param[in]  ck_apb2: APB2 clock prescaler selection
 287:Drivers/GD32E23x_standard_peripheral/Source/gd32e23x_rcu.c ****                 only one parameter can be selected which is shown as below:
 288:Drivers/GD32E23x_standard_peripheral/Source/gd32e23x_rcu.c ****       \arg        RCU_APB2_CKAHB_DIV1: select CK_AHB as CK_APB2
 289:Drivers/GD32E23x_standard_peripheral/Source/gd32e23x_rcu.c ****       \arg        RCU_APB2_CKAHB_DIV2: select CK_AHB/2 as CK_APB2
 290:Drivers/GD32E23x_standard_peripheral/Source/gd32e23x_rcu.c ****       \arg        RCU_APB2_CKAHB_DIV4: select CK_AHB/4 as CK_APB2
 291:Drivers/GD32E23x_standard_peripheral/Source/gd32e23x_rcu.c ****       \arg        RCU_APB2_CKAHB_DIV8: select CK_AHB/8 as CK_APB2
ARM GAS  /var/folders/rv/zq8s_02j1dj4vjvr1mm5zl2r0000gn/T//cc2hOtpo.s 			page 16


 292:Drivers/GD32E23x_standard_peripheral/Source/gd32e23x_rcu.c ****       \arg        RCU_APB2_CKAHB_DIV16: select CK_AHB/16 as CK_APB2
 293:Drivers/GD32E23x_standard_peripheral/Source/gd32e23x_rcu.c ****     \param[out] none
 294:Drivers/GD32E23x_standard_peripheral/Source/gd32e23x_rcu.c ****     \retval     none
 295:Drivers/GD32E23x_standard_peripheral/Source/gd32e23x_rcu.c **** */
 296:Drivers/GD32E23x_standard_peripheral/Source/gd32e23x_rcu.c **** void rcu_apb2_clock_config(uint32_t ck_apb2)
 297:Drivers/GD32E23x_standard_peripheral/Source/gd32e23x_rcu.c **** {
 589              		.loc 1 297 1 is_stmt 1 view -0
 590              		.cfi_startproc
 591              		@ args = 0, pretend = 0, frame = 0
 592              		@ frame_needed = 0, uses_anonymous_args = 0
 593              		@ link register save eliminated.
 298:Drivers/GD32E23x_standard_peripheral/Source/gd32e23x_rcu.c ****     uint32_t apb2psc = 0U;
 594              		.loc 1 298 5 view .LVU112
 299:Drivers/GD32E23x_standard_peripheral/Source/gd32e23x_rcu.c ****     apb2psc = RCU_CFG0;
 595              		.loc 1 299 5 view .LVU113
 596              		.loc 1 299 13 is_stmt 0 view .LVU114
 597 0000 41F20402 		movw	r2, #4100
 598 0004 C4F20202 		movt	r2, 16386
 599 0008 1368     		ldr	r3, [r2]
 600              	.LVL25:
 300:Drivers/GD32E23x_standard_peripheral/Source/gd32e23x_rcu.c ****     /* reset the APB2PSC and set according to ck_apb2 */
 301:Drivers/GD32E23x_standard_peripheral/Source/gd32e23x_rcu.c ****     apb2psc &= ~RCU_CFG0_APB2PSC;
 601              		.loc 1 301 5 is_stmt 1 view .LVU115
 602              		.loc 1 301 13 is_stmt 0 view .LVU116
 603 000a 0249     		ldr	r1, .L22
 604 000c 0B40     		ands	r3, r1
 605              	.LVL26:
 302:Drivers/GD32E23x_standard_peripheral/Source/gd32e23x_rcu.c ****     RCU_CFG0 = (ck_apb2 | apb2psc);
 606              		.loc 1 302 5 is_stmt 1 view .LVU117
 607              		.loc 1 302 25 is_stmt 0 view .LVU118
 608 000e 0343     		orrs	r3, r0
 609              	.LVL27:
 610              		.loc 1 302 14 view .LVU119
 611 0010 1360     		str	r3, [r2]
 303:Drivers/GD32E23x_standard_peripheral/Source/gd32e23x_rcu.c **** }
 612              		.loc 1 303 1 view .LVU120
 613              		@ sp needed
 614 0012 7047     		bx	lr
 615              	.L23:
 616              		.align	2
 617              	.L22:
 618 0014 FFC7FFFF 		.word	-14337
 619              		.cfi_endproc
 620              	.LFE79:
 622              		.section	.text.rcu_adc_clock_config,"ax",%progbits
 623              		.align	1
 624              		.global	rcu_adc_clock_config
 625              		.syntax unified
 626              		.code	16
 627              		.thumb_func
 628              		.fpu softvfp
 630              	rcu_adc_clock_config:
 631              	.LVL28:
 632              	.LFB80:
 304:Drivers/GD32E23x_standard_peripheral/Source/gd32e23x_rcu.c **** 
 305:Drivers/GD32E23x_standard_peripheral/Source/gd32e23x_rcu.c **** /*!
 306:Drivers/GD32E23x_standard_peripheral/Source/gd32e23x_rcu.c ****     \brief      configure the ADC clock prescaler selection
ARM GAS  /var/folders/rv/zq8s_02j1dj4vjvr1mm5zl2r0000gn/T//cc2hOtpo.s 			page 17


 307:Drivers/GD32E23x_standard_peripheral/Source/gd32e23x_rcu.c ****     \param[in]  ck_adc: ADC clock prescaler selection, refer to rcu_adc_clock_enum
 308:Drivers/GD32E23x_standard_peripheral/Source/gd32e23x_rcu.c ****                 only one parameter can be selected which is shown as below:
 309:Drivers/GD32E23x_standard_peripheral/Source/gd32e23x_rcu.c ****       \arg        RCU_ADCCK_IRC28M_DIV2: select CK_IRC28M/2 as CK_ADC
 310:Drivers/GD32E23x_standard_peripheral/Source/gd32e23x_rcu.c ****       \arg        RCU_ADCCK_IRC28M: select CK_IRC28M as CK_ADC
 311:Drivers/GD32E23x_standard_peripheral/Source/gd32e23x_rcu.c ****       \arg        RCU_ADCCK_APB2_DIV2: select CK_APB2/2 as CK_ADC
 312:Drivers/GD32E23x_standard_peripheral/Source/gd32e23x_rcu.c ****       \arg        RCU_ADCCK_AHB_DIV3: select CK_AHB/3 as CK_ADC
 313:Drivers/GD32E23x_standard_peripheral/Source/gd32e23x_rcu.c ****       \arg        RCU_ADCCK_APB2_DIV4: select CK_APB2/4 as CK_ADC
 314:Drivers/GD32E23x_standard_peripheral/Source/gd32e23x_rcu.c ****       \arg        RCU_ADCCK_AHB_DIV5: select CK_AHB/5 as CK_ADC
 315:Drivers/GD32E23x_standard_peripheral/Source/gd32e23x_rcu.c ****       \arg        RCU_ADCCK_APB2_DIV6: select CK_APB2/6 as CK_ADC
 316:Drivers/GD32E23x_standard_peripheral/Source/gd32e23x_rcu.c ****       \arg        RCU_ADCCK_AHB_DIV7: select CK_AHB/7 as CK_ADC
 317:Drivers/GD32E23x_standard_peripheral/Source/gd32e23x_rcu.c ****       \arg        RCU_ADCCK_APB2_DIV8: select CK_APB2/8 as CK_ADC
 318:Drivers/GD32E23x_standard_peripheral/Source/gd32e23x_rcu.c ****       \arg        RCU_ADCCK_AHB_DIV9: select CK_AHB/9 as CK_ADC
 319:Drivers/GD32E23x_standard_peripheral/Source/gd32e23x_rcu.c ****     \param[out] none
 320:Drivers/GD32E23x_standard_peripheral/Source/gd32e23x_rcu.c ****     \retval     none
 321:Drivers/GD32E23x_standard_peripheral/Source/gd32e23x_rcu.c **** */
 322:Drivers/GD32E23x_standard_peripheral/Source/gd32e23x_rcu.c **** void rcu_adc_clock_config(rcu_adc_clock_enum ck_adc)
 323:Drivers/GD32E23x_standard_peripheral/Source/gd32e23x_rcu.c **** {
 633              		.loc 1 323 1 is_stmt 1 view -0
 634              		.cfi_startproc
 635              		@ args = 0, pretend = 0, frame = 0
 636              		@ frame_needed = 0, uses_anonymous_args = 0
 637              		@ link register save eliminated.
 324:Drivers/GD32E23x_standard_peripheral/Source/gd32e23x_rcu.c ****     /* reset the ADCPSC, ADCSEL, IRC28MDIV bits */
 325:Drivers/GD32E23x_standard_peripheral/Source/gd32e23x_rcu.c ****     RCU_CFG0 &= ~RCU_CFG0_ADCPSC;
 638              		.loc 1 325 5 view .LVU122
 639              		.loc 1 325 14 is_stmt 0 view .LVU123
 640 0000 41F20403 		movw	r3, #4100
 641 0004 C4F20203 		movt	r3, 16386
 642 0008 1A68     		ldr	r2, [r3]
 643 000a 6A49     		ldr	r1, .L37
 644 000c 0A40     		ands	r2, r1
 645 000e 1A60     		str	r2, [r3]
 326:Drivers/GD32E23x_standard_peripheral/Source/gd32e23x_rcu.c ****     RCU_CFG2 &= ~(RCU_CFG2_ADCSEL | RCU_CFG2_IRC28MDIV | RCU_CFG2_ADCPSC2);
 646              		.loc 1 326 5 is_stmt 1 view .LVU124
 647              		.loc 1 326 14 is_stmt 0 view .LVU125
 648 0010 41F23003 		movw	r3, #4144
 649 0014 C4F20203 		movt	r3, 16386
 650 0018 1A68     		ldr	r2, [r3]
 651 001a 4FF6FF61 		movw	r1, #65279
 652 001e C7F6FE71 		movt	r1, 32766
 653 0022 0A40     		ands	r2, r1
 654 0024 1A60     		str	r2, [r3]
 327:Drivers/GD32E23x_standard_peripheral/Source/gd32e23x_rcu.c **** 
 328:Drivers/GD32E23x_standard_peripheral/Source/gd32e23x_rcu.c ****     /* set the ADC clock according to ck_adc */
 329:Drivers/GD32E23x_standard_peripheral/Source/gd32e23x_rcu.c ****     switch(ck_adc){
 655              		.loc 1 329 5 is_stmt 1 view .LVU126
 656 0026 0928     		cmp	r0, #9
 657 0028 0FD8     		bhi	.L24
 658 002a 8000     		lsls	r0, r0, #2
 659              	.LVL29:
 660              		.loc 1 329 5 is_stmt 0 view .LVU127
 661 002c 624B     		ldr	r3, .L37+4
 662 002e 1B58     		ldr	r3, [r3, r0]
 663 0030 9F46     		mov	pc, r3
 664              		.section	.rodata.rcu_adc_clock_config,"a",%progbits
 665              		.align	2
 666              	.L27:
ARM GAS  /var/folders/rv/zq8s_02j1dj4vjvr1mm5zl2r0000gn/T//cc2hOtpo.s 			page 18


 667 0000 32000000 		.word	.L36
 668 0004 4C000000 		.word	.L35
 669 0008 68000000 		.word	.L34
 670 000c 88000000 		.word	.L33
 671 0010 B2000000 		.word	.L32
 672 0014 D8000000 		.word	.L31
 673 0018 08010000 		.word	.L30
 674 001c 2E010000 		.word	.L29
 675 0020 5E010000 		.word	.L28
 676 0024 84010000 		.word	.L26
 677              		.section	.text.rcu_adc_clock_config
 678              	.L36:
 330:Drivers/GD32E23x_standard_peripheral/Source/gd32e23x_rcu.c ****     case RCU_ADCCK_IRC28M_DIV2:
 331:Drivers/GD32E23x_standard_peripheral/Source/gd32e23x_rcu.c ****         RCU_CFG2 &= ~RCU_CFG2_IRC28MDIV;
 679              		.loc 1 331 9 is_stmt 1 view .LVU128
 680              		.loc 1 331 18 is_stmt 0 view .LVU129
 681 0032 41F23003 		movw	r3, #4144
 682 0036 C4F20203 		movt	r3, 16386
 683 003a 1A68     		ldr	r2, [r3]
 684 003c 5F49     		ldr	r1, .L37+8
 685 003e 0A40     		ands	r2, r1
 686 0040 1A60     		str	r2, [r3]
 332:Drivers/GD32E23x_standard_peripheral/Source/gd32e23x_rcu.c ****         RCU_CFG2 &= ~RCU_CFG2_ADCSEL;
 687              		.loc 1 332 9 is_stmt 1 view .LVU130
 688              		.loc 1 332 18 is_stmt 0 view .LVU131
 689 0042 1A68     		ldr	r2, [r3]
 690 0044 5E49     		ldr	r1, .L37+12
 691 0046 0A40     		ands	r2, r1
 692 0048 1A60     		str	r2, [r3]
 333:Drivers/GD32E23x_standard_peripheral/Source/gd32e23x_rcu.c ****         break;
 693              		.loc 1 333 9 is_stmt 1 view .LVU132
 694              	.L24:
 334:Drivers/GD32E23x_standard_peripheral/Source/gd32e23x_rcu.c ****     case RCU_ADCCK_IRC28M:
 335:Drivers/GD32E23x_standard_peripheral/Source/gd32e23x_rcu.c ****         RCU_CFG2 |= RCU_CFG2_IRC28MDIV;
 336:Drivers/GD32E23x_standard_peripheral/Source/gd32e23x_rcu.c ****         RCU_CFG2 &= ~RCU_CFG2_ADCSEL;
 337:Drivers/GD32E23x_standard_peripheral/Source/gd32e23x_rcu.c ****         break;
 338:Drivers/GD32E23x_standard_peripheral/Source/gd32e23x_rcu.c ****     case RCU_ADCCK_APB2_DIV2:
 339:Drivers/GD32E23x_standard_peripheral/Source/gd32e23x_rcu.c ****         RCU_CFG0 |= RCU_ADC_CKAPB2_DIV2;
 340:Drivers/GD32E23x_standard_peripheral/Source/gd32e23x_rcu.c ****         RCU_CFG2 |= RCU_CFG2_ADCSEL;
 341:Drivers/GD32E23x_standard_peripheral/Source/gd32e23x_rcu.c ****         break;
 342:Drivers/GD32E23x_standard_peripheral/Source/gd32e23x_rcu.c ****     case RCU_ADCCK_AHB_DIV3:
 343:Drivers/GD32E23x_standard_peripheral/Source/gd32e23x_rcu.c ****         RCU_CFG0 |= RCU_ADC_CKAPB2_DIV2;
 344:Drivers/GD32E23x_standard_peripheral/Source/gd32e23x_rcu.c ****         RCU_CFG2 |= RCU_CFG2_ADCPSC2;
 345:Drivers/GD32E23x_standard_peripheral/Source/gd32e23x_rcu.c ****         RCU_CFG2 |= RCU_CFG2_ADCSEL;
 346:Drivers/GD32E23x_standard_peripheral/Source/gd32e23x_rcu.c ****         break;
 347:Drivers/GD32E23x_standard_peripheral/Source/gd32e23x_rcu.c ****     case RCU_ADCCK_APB2_DIV4:
 348:Drivers/GD32E23x_standard_peripheral/Source/gd32e23x_rcu.c ****         RCU_CFG0 |= RCU_ADC_CKAPB2_DIV4;
 349:Drivers/GD32E23x_standard_peripheral/Source/gd32e23x_rcu.c ****         RCU_CFG2 |= RCU_CFG2_ADCSEL;
 350:Drivers/GD32E23x_standard_peripheral/Source/gd32e23x_rcu.c ****         break;
 351:Drivers/GD32E23x_standard_peripheral/Source/gd32e23x_rcu.c ****     case RCU_ADCCK_AHB_DIV5: 
 352:Drivers/GD32E23x_standard_peripheral/Source/gd32e23x_rcu.c ****         RCU_CFG0 |= RCU_ADC_CKAPB2_DIV4;
 353:Drivers/GD32E23x_standard_peripheral/Source/gd32e23x_rcu.c ****         RCU_CFG2 |= RCU_CFG2_ADCPSC2;
 354:Drivers/GD32E23x_standard_peripheral/Source/gd32e23x_rcu.c ****         RCU_CFG2 |= RCU_CFG2_ADCSEL;
 355:Drivers/GD32E23x_standard_peripheral/Source/gd32e23x_rcu.c ****         break;
 356:Drivers/GD32E23x_standard_peripheral/Source/gd32e23x_rcu.c ****     case RCU_ADCCK_APB2_DIV6: 
 357:Drivers/GD32E23x_standard_peripheral/Source/gd32e23x_rcu.c ****         RCU_CFG0 |= RCU_ADC_CKAPB2_DIV6;
 358:Drivers/GD32E23x_standard_peripheral/Source/gd32e23x_rcu.c ****         RCU_CFG2 |= RCU_CFG2_ADCSEL;
ARM GAS  /var/folders/rv/zq8s_02j1dj4vjvr1mm5zl2r0000gn/T//cc2hOtpo.s 			page 19


 359:Drivers/GD32E23x_standard_peripheral/Source/gd32e23x_rcu.c ****         break;
 360:Drivers/GD32E23x_standard_peripheral/Source/gd32e23x_rcu.c ****     case RCU_ADCCK_AHB_DIV7: 
 361:Drivers/GD32E23x_standard_peripheral/Source/gd32e23x_rcu.c ****         RCU_CFG0 |= RCU_ADC_CKAPB2_DIV6;
 362:Drivers/GD32E23x_standard_peripheral/Source/gd32e23x_rcu.c ****         RCU_CFG2 |= RCU_CFG2_ADCPSC2;
 363:Drivers/GD32E23x_standard_peripheral/Source/gd32e23x_rcu.c ****         RCU_CFG2 |= RCU_CFG2_ADCSEL;
 364:Drivers/GD32E23x_standard_peripheral/Source/gd32e23x_rcu.c ****         break;
 365:Drivers/GD32E23x_standard_peripheral/Source/gd32e23x_rcu.c ****     case RCU_ADCCK_APB2_DIV8: 
 366:Drivers/GD32E23x_standard_peripheral/Source/gd32e23x_rcu.c ****         RCU_CFG0 |= RCU_ADC_CKAPB2_DIV8;
 367:Drivers/GD32E23x_standard_peripheral/Source/gd32e23x_rcu.c ****         RCU_CFG2 |= RCU_CFG2_ADCSEL;
 368:Drivers/GD32E23x_standard_peripheral/Source/gd32e23x_rcu.c ****         break;
 369:Drivers/GD32E23x_standard_peripheral/Source/gd32e23x_rcu.c ****     case RCU_ADCCK_AHB_DIV9: 
 370:Drivers/GD32E23x_standard_peripheral/Source/gd32e23x_rcu.c ****         RCU_CFG0 |= RCU_ADC_CKAPB2_DIV8;
 371:Drivers/GD32E23x_standard_peripheral/Source/gd32e23x_rcu.c ****         RCU_CFG2 |= RCU_CFG2_ADCPSC2;
 372:Drivers/GD32E23x_standard_peripheral/Source/gd32e23x_rcu.c ****         RCU_CFG2 |= RCU_CFG2_ADCSEL;
 373:Drivers/GD32E23x_standard_peripheral/Source/gd32e23x_rcu.c ****         break;
 374:Drivers/GD32E23x_standard_peripheral/Source/gd32e23x_rcu.c ****     default:
 375:Drivers/GD32E23x_standard_peripheral/Source/gd32e23x_rcu.c ****         break;
 376:Drivers/GD32E23x_standard_peripheral/Source/gd32e23x_rcu.c ****     }
 377:Drivers/GD32E23x_standard_peripheral/Source/gd32e23x_rcu.c **** }
 695              		.loc 1 377 1 is_stmt 0 view .LVU133
 696              		@ sp needed
 697 004a 7047     		bx	lr
 698              	.L35:
 335:Drivers/GD32E23x_standard_peripheral/Source/gd32e23x_rcu.c ****         RCU_CFG2 &= ~RCU_CFG2_ADCSEL;
 699              		.loc 1 335 9 is_stmt 1 view .LVU134
 335:Drivers/GD32E23x_standard_peripheral/Source/gd32e23x_rcu.c ****         RCU_CFG2 &= ~RCU_CFG2_ADCSEL;
 700              		.loc 1 335 18 is_stmt 0 view .LVU135
 701 004c 41F23003 		movw	r3, #4144
 702 0050 C4F20203 		movt	r3, 16386
 703 0054 1968     		ldr	r1, [r3]
 704 0056 8022     		movs	r2, #128
 705 0058 5202     		lsls	r2, r2, #9
 706 005a 0A43     		orrs	r2, r1
 707 005c 1A60     		str	r2, [r3]
 336:Drivers/GD32E23x_standard_peripheral/Source/gd32e23x_rcu.c ****         break;
 708              		.loc 1 336 9 is_stmt 1 view .LVU136
 336:Drivers/GD32E23x_standard_peripheral/Source/gd32e23x_rcu.c ****         break;
 709              		.loc 1 336 18 is_stmt 0 view .LVU137
 710 005e 1A68     		ldr	r2, [r3]
 711 0060 5749     		ldr	r1, .L37+12
 712 0062 0A40     		ands	r2, r1
 713 0064 1A60     		str	r2, [r3]
 337:Drivers/GD32E23x_standard_peripheral/Source/gd32e23x_rcu.c ****     case RCU_ADCCK_APB2_DIV2:
 714              		.loc 1 337 9 is_stmt 1 view .LVU138
 715 0066 F0E7     		b	.L24
 716              	.L34:
 339:Drivers/GD32E23x_standard_peripheral/Source/gd32e23x_rcu.c ****         RCU_CFG2 |= RCU_CFG2_ADCSEL;
 717              		.loc 1 339 9 view .LVU139
 339:Drivers/GD32E23x_standard_peripheral/Source/gd32e23x_rcu.c ****         RCU_CFG2 |= RCU_CFG2_ADCSEL;
 718              		.loc 1 339 18 is_stmt 0 view .LVU140
 719 0068 41F20403 		movw	r3, #4100
 720 006c C4F20203 		movt	r3, 16386
 721 0070 1A68     		ldr	r2, [r3]
 722 0072 1A60     		str	r2, [r3]
 340:Drivers/GD32E23x_standard_peripheral/Source/gd32e23x_rcu.c ****         break;
 723              		.loc 1 340 9 is_stmt 1 view .LVU141
 340:Drivers/GD32E23x_standard_peripheral/Source/gd32e23x_rcu.c ****         break;
ARM GAS  /var/folders/rv/zq8s_02j1dj4vjvr1mm5zl2r0000gn/T//cc2hOtpo.s 			page 20


 724              		.loc 1 340 18 is_stmt 0 view .LVU142
 725 0074 41F23003 		movw	r3, #4144
 726 0078 C4F20203 		movt	r3, 16386
 727 007c 1A68     		ldr	r2, [r3]
 728 007e 40F20011 		movw	r1, #256
 729 0082 0A43     		orrs	r2, r1
 730 0084 1A60     		str	r2, [r3]
 341:Drivers/GD32E23x_standard_peripheral/Source/gd32e23x_rcu.c ****     case RCU_ADCCK_AHB_DIV3:
 731              		.loc 1 341 9 is_stmt 1 view .LVU143
 732 0086 E0E7     		b	.L24
 733              	.L33:
 343:Drivers/GD32E23x_standard_peripheral/Source/gd32e23x_rcu.c ****         RCU_CFG2 |= RCU_CFG2_ADCPSC2;
 734              		.loc 1 343 9 view .LVU144
 343:Drivers/GD32E23x_standard_peripheral/Source/gd32e23x_rcu.c ****         RCU_CFG2 |= RCU_CFG2_ADCPSC2;
 735              		.loc 1 343 18 is_stmt 0 view .LVU145
 736 0088 41F20403 		movw	r3, #4100
 737 008c C4F20203 		movt	r3, 16386
 738 0090 1A68     		ldr	r2, [r3]
 739 0092 1A60     		str	r2, [r3]
 344:Drivers/GD32E23x_standard_peripheral/Source/gd32e23x_rcu.c ****         RCU_CFG2 |= RCU_CFG2_ADCSEL;
 740              		.loc 1 344 9 is_stmt 1 view .LVU146
 344:Drivers/GD32E23x_standard_peripheral/Source/gd32e23x_rcu.c ****         RCU_CFG2 |= RCU_CFG2_ADCSEL;
 741              		.loc 1 344 18 is_stmt 0 view .LVU147
 742 0094 41F23003 		movw	r3, #4144
 743 0098 C4F20203 		movt	r3, 16386
 744 009c 1968     		ldr	r1, [r3]
 745 009e 8022     		movs	r2, #128
 746 00a0 1206     		lsls	r2, r2, #24
 747 00a2 0A43     		orrs	r2, r1
 748 00a4 1A60     		str	r2, [r3]
 345:Drivers/GD32E23x_standard_peripheral/Source/gd32e23x_rcu.c ****         break;
 749              		.loc 1 345 9 is_stmt 1 view .LVU148
 345:Drivers/GD32E23x_standard_peripheral/Source/gd32e23x_rcu.c ****         break;
 750              		.loc 1 345 18 is_stmt 0 view .LVU149
 751 00a6 1A68     		ldr	r2, [r3]
 752 00a8 40F20011 		movw	r1, #256
 753 00ac 0A43     		orrs	r2, r1
 754 00ae 1A60     		str	r2, [r3]
 346:Drivers/GD32E23x_standard_peripheral/Source/gd32e23x_rcu.c ****     case RCU_ADCCK_APB2_DIV4:
 755              		.loc 1 346 9 is_stmt 1 view .LVU150
 756 00b0 CBE7     		b	.L24
 757              	.L32:
 348:Drivers/GD32E23x_standard_peripheral/Source/gd32e23x_rcu.c ****         RCU_CFG2 |= RCU_CFG2_ADCSEL;
 758              		.loc 1 348 9 view .LVU151
 348:Drivers/GD32E23x_standard_peripheral/Source/gd32e23x_rcu.c ****         RCU_CFG2 |= RCU_CFG2_ADCSEL;
 759              		.loc 1 348 18 is_stmt 0 view .LVU152
 760 00b2 41F20403 		movw	r3, #4100
 761 00b6 C4F20203 		movt	r3, 16386
 762 00ba 1A68     		ldr	r2, [r3]
 763 00bc 44F20001 		movw	r1, #16384
 764 00c0 0A43     		orrs	r2, r1
 765 00c2 1A60     		str	r2, [r3]
 349:Drivers/GD32E23x_standard_peripheral/Source/gd32e23x_rcu.c ****         break;
 766              		.loc 1 349 9 is_stmt 1 view .LVU153
 349:Drivers/GD32E23x_standard_peripheral/Source/gd32e23x_rcu.c ****         break;
 767              		.loc 1 349 18 is_stmt 0 view .LVU154
 768 00c4 41F23003 		movw	r3, #4144
ARM GAS  /var/folders/rv/zq8s_02j1dj4vjvr1mm5zl2r0000gn/T//cc2hOtpo.s 			page 21


 769 00c8 C4F20203 		movt	r3, 16386
 770 00cc 1A68     		ldr	r2, [r3]
 771 00ce 40F20011 		movw	r1, #256
 772 00d2 0A43     		orrs	r2, r1
 773 00d4 1A60     		str	r2, [r3]
 350:Drivers/GD32E23x_standard_peripheral/Source/gd32e23x_rcu.c ****     case RCU_ADCCK_AHB_DIV5: 
 774              		.loc 1 350 9 is_stmt 1 view .LVU155
 775 00d6 B8E7     		b	.L24
 776              	.L31:
 352:Drivers/GD32E23x_standard_peripheral/Source/gd32e23x_rcu.c ****         RCU_CFG2 |= RCU_CFG2_ADCPSC2;
 777              		.loc 1 352 9 view .LVU156
 352:Drivers/GD32E23x_standard_peripheral/Source/gd32e23x_rcu.c ****         RCU_CFG2 |= RCU_CFG2_ADCPSC2;
 778              		.loc 1 352 18 is_stmt 0 view .LVU157
 779 00d8 41F20403 		movw	r3, #4100
 780 00dc C4F20203 		movt	r3, 16386
 781 00e0 1A68     		ldr	r2, [r3]
 782 00e2 44F20001 		movw	r1, #16384
 783 00e6 0A43     		orrs	r2, r1
 784 00e8 1A60     		str	r2, [r3]
 353:Drivers/GD32E23x_standard_peripheral/Source/gd32e23x_rcu.c ****         RCU_CFG2 |= RCU_CFG2_ADCSEL;
 785              		.loc 1 353 9 is_stmt 1 view .LVU158
 353:Drivers/GD32E23x_standard_peripheral/Source/gd32e23x_rcu.c ****         RCU_CFG2 |= RCU_CFG2_ADCSEL;
 786              		.loc 1 353 18 is_stmt 0 view .LVU159
 787 00ea 41F23003 		movw	r3, #4144
 788 00ee C4F20203 		movt	r3, 16386
 789 00f2 1968     		ldr	r1, [r3]
 790 00f4 8022     		movs	r2, #128
 791 00f6 1206     		lsls	r2, r2, #24
 792 00f8 0A43     		orrs	r2, r1
 793 00fa 1A60     		str	r2, [r3]
 354:Drivers/GD32E23x_standard_peripheral/Source/gd32e23x_rcu.c ****         break;
 794              		.loc 1 354 9 is_stmt 1 view .LVU160
 354:Drivers/GD32E23x_standard_peripheral/Source/gd32e23x_rcu.c ****         break;
 795              		.loc 1 354 18 is_stmt 0 view .LVU161
 796 00fc 1A68     		ldr	r2, [r3]
 797 00fe 40F20011 		movw	r1, #256
 798 0102 0A43     		orrs	r2, r1
 799 0104 1A60     		str	r2, [r3]
 355:Drivers/GD32E23x_standard_peripheral/Source/gd32e23x_rcu.c ****     case RCU_ADCCK_APB2_DIV6: 
 800              		.loc 1 355 9 is_stmt 1 view .LVU162
 801 0106 A0E7     		b	.L24
 802              	.L30:
 357:Drivers/GD32E23x_standard_peripheral/Source/gd32e23x_rcu.c ****         RCU_CFG2 |= RCU_CFG2_ADCSEL;
 803              		.loc 1 357 9 view .LVU163
 357:Drivers/GD32E23x_standard_peripheral/Source/gd32e23x_rcu.c ****         RCU_CFG2 |= RCU_CFG2_ADCSEL;
 804              		.loc 1 357 18 is_stmt 0 view .LVU164
 805 0108 41F20403 		movw	r3, #4100
 806 010c C4F20203 		movt	r3, 16386
 807 0110 1A68     		ldr	r2, [r3]
 808 0112 48F20001 		movw	r1, #32768
 809 0116 0A43     		orrs	r2, r1
 810 0118 1A60     		str	r2, [r3]
 358:Drivers/GD32E23x_standard_peripheral/Source/gd32e23x_rcu.c ****         break;
 811              		.loc 1 358 9 is_stmt 1 view .LVU165
 358:Drivers/GD32E23x_standard_peripheral/Source/gd32e23x_rcu.c ****         break;
 812              		.loc 1 358 18 is_stmt 0 view .LVU166
 813 011a 41F23003 		movw	r3, #4144
ARM GAS  /var/folders/rv/zq8s_02j1dj4vjvr1mm5zl2r0000gn/T//cc2hOtpo.s 			page 22


 814 011e C4F20203 		movt	r3, 16386
 815 0122 1A68     		ldr	r2, [r3]
 816 0124 40F20011 		movw	r1, #256
 817 0128 0A43     		orrs	r2, r1
 818 012a 1A60     		str	r2, [r3]
 359:Drivers/GD32E23x_standard_peripheral/Source/gd32e23x_rcu.c ****     case RCU_ADCCK_AHB_DIV7: 
 819              		.loc 1 359 9 is_stmt 1 view .LVU167
 820 012c 8DE7     		b	.L24
 821              	.L29:
 361:Drivers/GD32E23x_standard_peripheral/Source/gd32e23x_rcu.c ****         RCU_CFG2 |= RCU_CFG2_ADCPSC2;
 822              		.loc 1 361 9 view .LVU168
 361:Drivers/GD32E23x_standard_peripheral/Source/gd32e23x_rcu.c ****         RCU_CFG2 |= RCU_CFG2_ADCPSC2;
 823              		.loc 1 361 18 is_stmt 0 view .LVU169
 824 012e 41F20403 		movw	r3, #4100
 825 0132 C4F20203 		movt	r3, 16386
 826 0136 1A68     		ldr	r2, [r3]
 827 0138 48F20001 		movw	r1, #32768
 828 013c 0A43     		orrs	r2, r1
 829 013e 1A60     		str	r2, [r3]
 362:Drivers/GD32E23x_standard_peripheral/Source/gd32e23x_rcu.c ****         RCU_CFG2 |= RCU_CFG2_ADCSEL;
 830              		.loc 1 362 9 is_stmt 1 view .LVU170
 362:Drivers/GD32E23x_standard_peripheral/Source/gd32e23x_rcu.c ****         RCU_CFG2 |= RCU_CFG2_ADCSEL;
 831              		.loc 1 362 18 is_stmt 0 view .LVU171
 832 0140 41F23003 		movw	r3, #4144
 833 0144 C4F20203 		movt	r3, 16386
 834 0148 1968     		ldr	r1, [r3]
 835 014a 8022     		movs	r2, #128
 836 014c 1206     		lsls	r2, r2, #24
 837 014e 0A43     		orrs	r2, r1
 838 0150 1A60     		str	r2, [r3]
 363:Drivers/GD32E23x_standard_peripheral/Source/gd32e23x_rcu.c ****         break;
 839              		.loc 1 363 9 is_stmt 1 view .LVU172
 363:Drivers/GD32E23x_standard_peripheral/Source/gd32e23x_rcu.c ****         break;
 840              		.loc 1 363 18 is_stmt 0 view .LVU173
 841 0152 1A68     		ldr	r2, [r3]
 842 0154 40F20011 		movw	r1, #256
 843 0158 0A43     		orrs	r2, r1
 844 015a 1A60     		str	r2, [r3]
 364:Drivers/GD32E23x_standard_peripheral/Source/gd32e23x_rcu.c ****     case RCU_ADCCK_APB2_DIV8: 
 845              		.loc 1 364 9 is_stmt 1 view .LVU174
 846 015c 75E7     		b	.L24
 847              	.L28:
 366:Drivers/GD32E23x_standard_peripheral/Source/gd32e23x_rcu.c ****         RCU_CFG2 |= RCU_CFG2_ADCSEL;
 848              		.loc 1 366 9 view .LVU175
 366:Drivers/GD32E23x_standard_peripheral/Source/gd32e23x_rcu.c ****         RCU_CFG2 |= RCU_CFG2_ADCSEL;
 849              		.loc 1 366 18 is_stmt 0 view .LVU176
 850 015e 41F20403 		movw	r3, #4100
 851 0162 C4F20203 		movt	r3, 16386
 852 0166 1A68     		ldr	r2, [r3]
 853 0168 4CF20001 		movw	r1, #49152
 854 016c 0A43     		orrs	r2, r1
 855 016e 1A60     		str	r2, [r3]
 367:Drivers/GD32E23x_standard_peripheral/Source/gd32e23x_rcu.c ****         break;
 856              		.loc 1 367 9 is_stmt 1 view .LVU177
 367:Drivers/GD32E23x_standard_peripheral/Source/gd32e23x_rcu.c ****         break;
 857              		.loc 1 367 18 is_stmt 0 view .LVU178
 858 0170 41F23003 		movw	r3, #4144
ARM GAS  /var/folders/rv/zq8s_02j1dj4vjvr1mm5zl2r0000gn/T//cc2hOtpo.s 			page 23


 859 0174 C4F20203 		movt	r3, 16386
 860 0178 1A68     		ldr	r2, [r3]
 861 017a 40F20011 		movw	r1, #256
 862 017e 0A43     		orrs	r2, r1
 863 0180 1A60     		str	r2, [r3]
 368:Drivers/GD32E23x_standard_peripheral/Source/gd32e23x_rcu.c ****     case RCU_ADCCK_AHB_DIV9: 
 864              		.loc 1 368 9 is_stmt 1 view .LVU179
 865 0182 62E7     		b	.L24
 866              	.L26:
 370:Drivers/GD32E23x_standard_peripheral/Source/gd32e23x_rcu.c ****         RCU_CFG2 |= RCU_CFG2_ADCPSC2;
 867              		.loc 1 370 9 view .LVU180
 370:Drivers/GD32E23x_standard_peripheral/Source/gd32e23x_rcu.c ****         RCU_CFG2 |= RCU_CFG2_ADCPSC2;
 868              		.loc 1 370 18 is_stmt 0 view .LVU181
 869 0184 41F20403 		movw	r3, #4100
 870 0188 C4F20203 		movt	r3, 16386
 871 018c 1A68     		ldr	r2, [r3]
 872 018e 4CF20001 		movw	r1, #49152
 873 0192 0A43     		orrs	r2, r1
 874 0194 1A60     		str	r2, [r3]
 371:Drivers/GD32E23x_standard_peripheral/Source/gd32e23x_rcu.c ****         RCU_CFG2 |= RCU_CFG2_ADCSEL;
 875              		.loc 1 371 9 is_stmt 1 view .LVU182
 371:Drivers/GD32E23x_standard_peripheral/Source/gd32e23x_rcu.c ****         RCU_CFG2 |= RCU_CFG2_ADCSEL;
 876              		.loc 1 371 18 is_stmt 0 view .LVU183
 877 0196 41F23003 		movw	r3, #4144
 878 019a C4F20203 		movt	r3, 16386
 879 019e 1968     		ldr	r1, [r3]
 880 01a0 8022     		movs	r2, #128
 881 01a2 1206     		lsls	r2, r2, #24
 882 01a4 0A43     		orrs	r2, r1
 883 01a6 1A60     		str	r2, [r3]
 372:Drivers/GD32E23x_standard_peripheral/Source/gd32e23x_rcu.c ****         break;
 884              		.loc 1 372 9 is_stmt 1 view .LVU184
 372:Drivers/GD32E23x_standard_peripheral/Source/gd32e23x_rcu.c ****         break;
 885              		.loc 1 372 18 is_stmt 0 view .LVU185
 886 01a8 1A68     		ldr	r2, [r3]
 887 01aa 40F20011 		movw	r1, #256
 888 01ae 0A43     		orrs	r2, r1
 889 01b0 1A60     		str	r2, [r3]
 373:Drivers/GD32E23x_standard_peripheral/Source/gd32e23x_rcu.c ****     default:
 890              		.loc 1 373 9 is_stmt 1 view .LVU186
 891              		.loc 1 377 1 is_stmt 0 view .LVU187
 892 01b2 4AE7     		b	.L24
 893              	.L38:
 894              		.align	2
 895              	.L37:
 896 01b4 FF3FFFFF 		.word	-49153
 897 01b8 00000000 		.word	.L27
 898 01bc FFFFFEFF 		.word	-65537
 899 01c0 FFFEFFFF 		.word	-257
 900              		.cfi_endproc
 901              	.LFE80:
 903              		.section	.text.rcu_ckout_config,"ax",%progbits
 904              		.align	1
 905              		.global	rcu_ckout_config
 906              		.syntax unified
 907              		.code	16
 908              		.thumb_func
ARM GAS  /var/folders/rv/zq8s_02j1dj4vjvr1mm5zl2r0000gn/T//cc2hOtpo.s 			page 24


 909              		.fpu softvfp
 911              	rcu_ckout_config:
 912              	.LVL30:
 913              	.LFB81:
 378:Drivers/GD32E23x_standard_peripheral/Source/gd32e23x_rcu.c **** 
 379:Drivers/GD32E23x_standard_peripheral/Source/gd32e23x_rcu.c **** /*!
 380:Drivers/GD32E23x_standard_peripheral/Source/gd32e23x_rcu.c ****     \brief      configure the CK_OUT clock source and divider
 381:Drivers/GD32E23x_standard_peripheral/Source/gd32e23x_rcu.c ****     \param[in]  ckout_src: CK_OUT clock source selection
 382:Drivers/GD32E23x_standard_peripheral/Source/gd32e23x_rcu.c ****                 only one parameter can be selected which is shown as below:
 383:Drivers/GD32E23x_standard_peripheral/Source/gd32e23x_rcu.c ****       \arg        RCU_CKOUTSRC_NONE: no clock selected
 384:Drivers/GD32E23x_standard_peripheral/Source/gd32e23x_rcu.c ****       \arg        RCU_CKOUTSRC_IRC28M: IRC28M selected
 385:Drivers/GD32E23x_standard_peripheral/Source/gd32e23x_rcu.c ****       \arg        RCU_CKOUTSRC_IRC40K: IRC40K selected
 386:Drivers/GD32E23x_standard_peripheral/Source/gd32e23x_rcu.c ****       \arg        RCU_CKOUTSRC_LXTAL: LXTAL selected
 387:Drivers/GD32E23x_standard_peripheral/Source/gd32e23x_rcu.c ****       \arg        RCU_CKOUTSRC_CKSYS: CKSYS selected
 388:Drivers/GD32E23x_standard_peripheral/Source/gd32e23x_rcu.c ****       \arg        RCU_CKOUTSRC_IRC8M: IRC8M selected
 389:Drivers/GD32E23x_standard_peripheral/Source/gd32e23x_rcu.c ****       \arg        RCU_CKOUTSRC_HXTAL: HXTAL selected
 390:Drivers/GD32E23x_standard_peripheral/Source/gd32e23x_rcu.c ****       \arg        RCU_CKOUTSRC_CKPLL_DIV1: CK_PLL selected
 391:Drivers/GD32E23x_standard_peripheral/Source/gd32e23x_rcu.c ****       \arg        RCU_CKOUTSRC_CKPLL_DIV2: CK_PLL/2 selected
 392:Drivers/GD32E23x_standard_peripheral/Source/gd32e23x_rcu.c ****     \param[in]  ckout_div: CK_OUT divider 
 393:Drivers/GD32E23x_standard_peripheral/Source/gd32e23x_rcu.c ****       \arg        RCU_CKOUT_DIVx(x=1,2,4,8,16,32,64,128): CK_OUT is divided by x
 394:Drivers/GD32E23x_standard_peripheral/Source/gd32e23x_rcu.c ****     \param[out] none
 395:Drivers/GD32E23x_standard_peripheral/Source/gd32e23x_rcu.c ****     \retval     none
 396:Drivers/GD32E23x_standard_peripheral/Source/gd32e23x_rcu.c **** */
 397:Drivers/GD32E23x_standard_peripheral/Source/gd32e23x_rcu.c **** void rcu_ckout_config(uint32_t ckout_src, uint32_t ckout_div)
 398:Drivers/GD32E23x_standard_peripheral/Source/gd32e23x_rcu.c **** {
 914              		.loc 1 398 1 is_stmt 1 view -0
 915              		.cfi_startproc
 916              		@ args = 0, pretend = 0, frame = 0
 917              		@ frame_needed = 0, uses_anonymous_args = 0
 918              		.loc 1 398 1 is_stmt 0 view .LVU189
 919 0000 10B5     		push	{r4, lr}
 920              	.LCFI0:
 921              		.cfi_def_cfa_offset 8
 922              		.cfi_offset 4, -8
 923              		.cfi_offset 14, -4
 399:Drivers/GD32E23x_standard_peripheral/Source/gd32e23x_rcu.c ****     uint32_t ckout = 0U;
 924              		.loc 1 399 5 is_stmt 1 view .LVU190
 925              	.LVL31:
 400:Drivers/GD32E23x_standard_peripheral/Source/gd32e23x_rcu.c ****     ckout = RCU_CFG0;
 926              		.loc 1 400 5 view .LVU191
 927              		.loc 1 400 11 is_stmt 0 view .LVU192
 928 0002 41F20402 		movw	r2, #4100
 929 0006 C4F20202 		movt	r2, 16386
 930 000a 1368     		ldr	r3, [r2]
 931              	.LVL32:
 401:Drivers/GD32E23x_standard_peripheral/Source/gd32e23x_rcu.c ****     /* reset the CKOUTSEL, CKOUTDIV and PLLDV bits and set according to ckout_src and ckout_div */
 402:Drivers/GD32E23x_standard_peripheral/Source/gd32e23x_rcu.c ****     ckout &= ~(RCU_CFG0_CKOUTSEL | RCU_CFG0_CKOUTDIV | RCU_CFG0_PLLDV);
 932              		.loc 1 402 5 is_stmt 1 view .LVU193
 933              		.loc 1 402 11 is_stmt 0 view .LVU194
 934 000c 024C     		ldr	r4, .L40
 935 000e 2340     		ands	r3, r4
 936              	.LVL33:
 403:Drivers/GD32E23x_standard_peripheral/Source/gd32e23x_rcu.c ****     RCU_CFG0 = (ckout | ckout_src | ckout_div);
 937              		.loc 1 403 5 is_stmt 1 view .LVU195
 938              		.loc 1 403 23 is_stmt 0 view .LVU196
 939 0010 0343     		orrs	r3, r0
 940              	.LVL34:
ARM GAS  /var/folders/rv/zq8s_02j1dj4vjvr1mm5zl2r0000gn/T//cc2hOtpo.s 			page 25


 941              		.loc 1 403 35 view .LVU197
 942 0012 0B43     		orrs	r3, r1
 943              		.loc 1 403 14 view .LVU198
 944 0014 1360     		str	r3, [r2]
 404:Drivers/GD32E23x_standard_peripheral/Source/gd32e23x_rcu.c **** }
 945              		.loc 1 404 1 view .LVU199
 946              		@ sp needed
 947 0016 10BD     		pop	{r4, pc}
 948              	.L41:
 949              		.align	2
 950              	.L40:
 951 0018 FFFFFF08 		.word	150994943
 952              		.cfi_endproc
 953              	.LFE81:
 955              		.section	.text.rcu_pll_config,"ax",%progbits
 956              		.align	1
 957              		.global	rcu_pll_config
 958              		.syntax unified
 959              		.code	16
 960              		.thumb_func
 961              		.fpu softvfp
 963              	rcu_pll_config:
 964              	.LVL35:
 965              	.LFB82:
 405:Drivers/GD32E23x_standard_peripheral/Source/gd32e23x_rcu.c **** 
 406:Drivers/GD32E23x_standard_peripheral/Source/gd32e23x_rcu.c **** /*!
 407:Drivers/GD32E23x_standard_peripheral/Source/gd32e23x_rcu.c ****     \brief      configure the PLL clock source selection and PLL multiply factor
 408:Drivers/GD32E23x_standard_peripheral/Source/gd32e23x_rcu.c ****     \param[in]  pll_src: PLL clock source selection
 409:Drivers/GD32E23x_standard_peripheral/Source/gd32e23x_rcu.c ****                 only one parameter can be selected which is shown as below:
 410:Drivers/GD32E23x_standard_peripheral/Source/gd32e23x_rcu.c ****       \arg        RCU_PLLSRC_IRC8M_DIV2: select CK_IRC8M/2 as PLL source clock
 411:Drivers/GD32E23x_standard_peripheral/Source/gd32e23x_rcu.c ****       \arg        RCU_PLLSRC_HXTAL: select HXTAL as PLL source clock
 412:Drivers/GD32E23x_standard_peripheral/Source/gd32e23x_rcu.c ****     \param[in]  pll_mul: PLL multiply factor
 413:Drivers/GD32E23x_standard_peripheral/Source/gd32e23x_rcu.c ****                 only one parameter can be selected which is shown as below:
 414:Drivers/GD32E23x_standard_peripheral/Source/gd32e23x_rcu.c ****       \arg        RCU_PLL_MULx(x=2..32): PLL source clock * x
 415:Drivers/GD32E23x_standard_peripheral/Source/gd32e23x_rcu.c ****     \param[out] none
 416:Drivers/GD32E23x_standard_peripheral/Source/gd32e23x_rcu.c ****     \retval     none
 417:Drivers/GD32E23x_standard_peripheral/Source/gd32e23x_rcu.c **** */
 418:Drivers/GD32E23x_standard_peripheral/Source/gd32e23x_rcu.c **** void rcu_pll_config(uint32_t pll_src, uint32_t pll_mul)
 419:Drivers/GD32E23x_standard_peripheral/Source/gd32e23x_rcu.c **** {
 966              		.loc 1 419 1 is_stmt 1 view -0
 967              		.cfi_startproc
 968              		@ args = 0, pretend = 0, frame = 0
 969              		@ frame_needed = 0, uses_anonymous_args = 0
 970              		.loc 1 419 1 is_stmt 0 view .LVU201
 971 0000 30B5     		push	{r4, r5, lr}
 972              	.LCFI1:
 973              		.cfi_def_cfa_offset 12
 974              		.cfi_offset 4, -12
 975              		.cfi_offset 5, -8
 976              		.cfi_offset 14, -4
 420:Drivers/GD32E23x_standard_peripheral/Source/gd32e23x_rcu.c ****     RCU_CFG0 &= ~(RCU_CFG0_PLLSEL | RCU_CFG0_PLLMF);
 977              		.loc 1 420 5 is_stmt 1 view .LVU202
 978              		.loc 1 420 14 is_stmt 0 view .LVU203
 979 0002 41F20403 		movw	r3, #4100
 980 0006 C4F20203 		movt	r3, 16386
 981 000a 1C68     		ldr	r4, [r3]
 982 000c 4FF6FF75 		movw	r5, #65535
ARM GAS  /var/folders/rv/zq8s_02j1dj4vjvr1mm5zl2r0000gn/T//cc2hOtpo.s 			page 26


 983 0010 CFF2C275 		movt	r5, 63426
 984 0014 2C40     		ands	r4, r5
 985 0016 1C60     		str	r4, [r3]
 421:Drivers/GD32E23x_standard_peripheral/Source/gd32e23x_rcu.c ****     RCU_CFG0 |= (pll_src | pll_mul);
 986              		.loc 1 421 5 is_stmt 1 view .LVU204
 987              		.loc 1 421 14 is_stmt 0 view .LVU205
 988 0018 1A68     		ldr	r2, [r3]
 989              		.loc 1 421 26 view .LVU206
 990 001a 0843     		orrs	r0, r1
 991              	.LVL36:
 992              		.loc 1 421 14 view .LVU207
 993 001c 0243     		orrs	r2, r0
 994 001e 1A60     		str	r2, [r3]
 422:Drivers/GD32E23x_standard_peripheral/Source/gd32e23x_rcu.c **** }
 995              		.loc 1 422 1 view .LVU208
 996              		@ sp needed
 997 0020 30BD     		pop	{r4, r5, pc}
 998              		.cfi_endproc
 999              	.LFE82:
 1001              		.section	.text.rcu_usart_clock_config,"ax",%progbits
 1002              		.align	1
 1003              		.global	rcu_usart_clock_config
 1004              		.syntax unified
 1005              		.code	16
 1006              		.thumb_func
 1007              		.fpu softvfp
 1009              	rcu_usart_clock_config:
 1010              	.LVL37:
 1011              	.LFB83:
 423:Drivers/GD32E23x_standard_peripheral/Source/gd32e23x_rcu.c **** 
 424:Drivers/GD32E23x_standard_peripheral/Source/gd32e23x_rcu.c **** /*!
 425:Drivers/GD32E23x_standard_peripheral/Source/gd32e23x_rcu.c ****     \brief      configure the USART clock source selection
 426:Drivers/GD32E23x_standard_peripheral/Source/gd32e23x_rcu.c ****     \param[in]  ck_usart: USART clock source selection
 427:Drivers/GD32E23x_standard_peripheral/Source/gd32e23x_rcu.c ****                 only one parameter can be selected which is shown as below:
 428:Drivers/GD32E23x_standard_peripheral/Source/gd32e23x_rcu.c ****       \arg        RCU_USART0SRC_CKAPB2: CK_USART0 select CK_APB2
 429:Drivers/GD32E23x_standard_peripheral/Source/gd32e23x_rcu.c ****       \arg        RCU_USART0SRC_CKSYS: CK_USART0 select CK_SYS
 430:Drivers/GD32E23x_standard_peripheral/Source/gd32e23x_rcu.c ****       \arg        RCU_USART0SRC_LXTAL: CK_USART0 select CK_LXTAL
 431:Drivers/GD32E23x_standard_peripheral/Source/gd32e23x_rcu.c ****       \arg        RCU_USART0SRC_IRC8M: CK_USART0 select CK_IRC8M
 432:Drivers/GD32E23x_standard_peripheral/Source/gd32e23x_rcu.c ****     \param[out] none
 433:Drivers/GD32E23x_standard_peripheral/Source/gd32e23x_rcu.c ****     \retval     none
 434:Drivers/GD32E23x_standard_peripheral/Source/gd32e23x_rcu.c **** */
 435:Drivers/GD32E23x_standard_peripheral/Source/gd32e23x_rcu.c **** void rcu_usart_clock_config(uint32_t ck_usart)
 436:Drivers/GD32E23x_standard_peripheral/Source/gd32e23x_rcu.c **** {
 1012              		.loc 1 436 1 is_stmt 1 view -0
 1013              		.cfi_startproc
 1014              		@ args = 0, pretend = 0, frame = 0
 1015              		@ frame_needed = 0, uses_anonymous_args = 0
 1016              		@ link register save eliminated.
 437:Drivers/GD32E23x_standard_peripheral/Source/gd32e23x_rcu.c ****     /* reset the USART0SEL bits and set according to ck_usart */
 438:Drivers/GD32E23x_standard_peripheral/Source/gd32e23x_rcu.c ****     RCU_CFG2 &= ~RCU_CFG2_USART0SEL;
 1017              		.loc 1 438 5 view .LVU210
 1018              		.loc 1 438 14 is_stmt 0 view .LVU211
 1019 0000 41F23003 		movw	r3, #4144
 1020 0004 C4F20203 		movt	r3, 16386
 1021 0008 1968     		ldr	r1, [r3]
 1022 000a 0322     		movs	r2, #3
 1023 000c 9143     		bics	r1, r2
ARM GAS  /var/folders/rv/zq8s_02j1dj4vjvr1mm5zl2r0000gn/T//cc2hOtpo.s 			page 27


 1024 000e 1960     		str	r1, [r3]
 439:Drivers/GD32E23x_standard_peripheral/Source/gd32e23x_rcu.c ****     RCU_CFG2 |= ck_usart;
 1025              		.loc 1 439 5 is_stmt 1 view .LVU212
 1026              		.loc 1 439 14 is_stmt 0 view .LVU213
 1027 0010 1A68     		ldr	r2, [r3]
 1028 0012 0243     		orrs	r2, r0
 1029 0014 1A60     		str	r2, [r3]
 440:Drivers/GD32E23x_standard_peripheral/Source/gd32e23x_rcu.c **** }
 1030              		.loc 1 440 1 view .LVU214
 1031              		@ sp needed
 1032 0016 7047     		bx	lr
 1033              		.cfi_endproc
 1034              	.LFE83:
 1036              		.section	.text.rcu_rtc_clock_config,"ax",%progbits
 1037              		.align	1
 1038              		.global	rcu_rtc_clock_config
 1039              		.syntax unified
 1040              		.code	16
 1041              		.thumb_func
 1042              		.fpu softvfp
 1044              	rcu_rtc_clock_config:
 1045              	.LVL38:
 1046              	.LFB84:
 441:Drivers/GD32E23x_standard_peripheral/Source/gd32e23x_rcu.c **** 
 442:Drivers/GD32E23x_standard_peripheral/Source/gd32e23x_rcu.c **** /*!
 443:Drivers/GD32E23x_standard_peripheral/Source/gd32e23x_rcu.c ****     \brief      configure the RTC clock source selection
 444:Drivers/GD32E23x_standard_peripheral/Source/gd32e23x_rcu.c ****     \param[in]  rtc_clock_source: RTC clock source selection
 445:Drivers/GD32E23x_standard_peripheral/Source/gd32e23x_rcu.c ****                 only one parameter can be selected which is shown as below:
 446:Drivers/GD32E23x_standard_peripheral/Source/gd32e23x_rcu.c ****       \arg        RCU_RTCSRC_NONE: no clock selected
 447:Drivers/GD32E23x_standard_peripheral/Source/gd32e23x_rcu.c ****       \arg        RCU_RTCSRC_LXTAL: CK_LXTAL selected as RTC source clock
 448:Drivers/GD32E23x_standard_peripheral/Source/gd32e23x_rcu.c ****       \arg        RCU_RTCSRC_IRC40K: CK_IRC40K selected as RTC source clock
 449:Drivers/GD32E23x_standard_peripheral/Source/gd32e23x_rcu.c ****       \arg        RCU_RTCSRC_HXTAL_DIV32: CK_HXTAL/32 selected as RTC source clock
 450:Drivers/GD32E23x_standard_peripheral/Source/gd32e23x_rcu.c ****     \param[out] none
 451:Drivers/GD32E23x_standard_peripheral/Source/gd32e23x_rcu.c ****     \retval     none
 452:Drivers/GD32E23x_standard_peripheral/Source/gd32e23x_rcu.c **** */
 453:Drivers/GD32E23x_standard_peripheral/Source/gd32e23x_rcu.c **** void rcu_rtc_clock_config(uint32_t rtc_clock_source)
 454:Drivers/GD32E23x_standard_peripheral/Source/gd32e23x_rcu.c **** {
 1047              		.loc 1 454 1 is_stmt 1 view -0
 1048              		.cfi_startproc
 1049              		@ args = 0, pretend = 0, frame = 0
 1050              		@ frame_needed = 0, uses_anonymous_args = 0
 1051              		@ link register save eliminated.
 455:Drivers/GD32E23x_standard_peripheral/Source/gd32e23x_rcu.c ****     /* reset the RTCSRC bits and set according to rtc_clock_source */
 456:Drivers/GD32E23x_standard_peripheral/Source/gd32e23x_rcu.c ****     RCU_BDCTL &= ~RCU_BDCTL_RTCSRC;
 1052              		.loc 1 456 5 view .LVU216
 1053              		.loc 1 456 15 is_stmt 0 view .LVU217
 1054 0000 41F22003 		movw	r3, #4128
 1055 0004 C4F20203 		movt	r3, 16386
 1056 0008 1968     		ldr	r1, [r3]
 1057 000a 034A     		ldr	r2, .L45
 1058 000c 1140     		ands	r1, r2
 1059 000e 1960     		str	r1, [r3]
 457:Drivers/GD32E23x_standard_peripheral/Source/gd32e23x_rcu.c ****     RCU_BDCTL |= rtc_clock_source;
 1060              		.loc 1 457 5 is_stmt 1 view .LVU218
 1061              		.loc 1 457 15 is_stmt 0 view .LVU219
 1062 0010 1A68     		ldr	r2, [r3]
 1063 0012 0243     		orrs	r2, r0
ARM GAS  /var/folders/rv/zq8s_02j1dj4vjvr1mm5zl2r0000gn/T//cc2hOtpo.s 			page 28


 1064 0014 1A60     		str	r2, [r3]
 458:Drivers/GD32E23x_standard_peripheral/Source/gd32e23x_rcu.c **** }
 1065              		.loc 1 458 1 view .LVU220
 1066              		@ sp needed
 1067 0016 7047     		bx	lr
 1068              	.L46:
 1069              		.align	2
 1070              	.L45:
 1071 0018 FFFCFFFF 		.word	-769
 1072              		.cfi_endproc
 1073              	.LFE84:
 1075              		.section	.text.rcu_hxtal_prediv_config,"ax",%progbits
 1076              		.align	1
 1077              		.global	rcu_hxtal_prediv_config
 1078              		.syntax unified
 1079              		.code	16
 1080              		.thumb_func
 1081              		.fpu softvfp
 1083              	rcu_hxtal_prediv_config:
 1084              	.LVL39:
 1085              	.LFB85:
 459:Drivers/GD32E23x_standard_peripheral/Source/gd32e23x_rcu.c **** 
 460:Drivers/GD32E23x_standard_peripheral/Source/gd32e23x_rcu.c **** /*!
 461:Drivers/GD32E23x_standard_peripheral/Source/gd32e23x_rcu.c ****     \brief      configure the HXTAL divider used as input of PLL
 462:Drivers/GD32E23x_standard_peripheral/Source/gd32e23x_rcu.c ****     \param[in]  hxtal_prediv: HXTAL divider used as input of PLL
 463:Drivers/GD32E23x_standard_peripheral/Source/gd32e23x_rcu.c ****                 only one parameter can be selected which is shown as below:
 464:Drivers/GD32E23x_standard_peripheral/Source/gd32e23x_rcu.c ****       \arg        RCU_PLL_PREDVx(x=1..16): HXTAL divided x used as input of PLL
 465:Drivers/GD32E23x_standard_peripheral/Source/gd32e23x_rcu.c ****     \param[out] none
 466:Drivers/GD32E23x_standard_peripheral/Source/gd32e23x_rcu.c ****     \retval     none
 467:Drivers/GD32E23x_standard_peripheral/Source/gd32e23x_rcu.c **** */
 468:Drivers/GD32E23x_standard_peripheral/Source/gd32e23x_rcu.c **** void rcu_hxtal_prediv_config(uint32_t hxtal_prediv)
 469:Drivers/GD32E23x_standard_peripheral/Source/gd32e23x_rcu.c **** {
 1086              		.loc 1 469 1 is_stmt 1 view -0
 1087              		.cfi_startproc
 1088              		@ args = 0, pretend = 0, frame = 0
 1089              		@ frame_needed = 0, uses_anonymous_args = 0
 1090              		@ link register save eliminated.
 470:Drivers/GD32E23x_standard_peripheral/Source/gd32e23x_rcu.c ****     uint32_t prediv = 0U;
 1091              		.loc 1 470 5 view .LVU222
 471:Drivers/GD32E23x_standard_peripheral/Source/gd32e23x_rcu.c ****     prediv = RCU_CFG1;
 1092              		.loc 1 471 5 view .LVU223
 1093              		.loc 1 471 12 is_stmt 0 view .LVU224
 1094 0000 41F22C02 		movw	r2, #4140
 1095 0004 C4F20202 		movt	r2, 16386
 1096 0008 1368     		ldr	r3, [r2]
 1097              	.LVL40:
 472:Drivers/GD32E23x_standard_peripheral/Source/gd32e23x_rcu.c ****     /* reset the PREDV bits and set according to hxtal_prediv */
 473:Drivers/GD32E23x_standard_peripheral/Source/gd32e23x_rcu.c ****     prediv &= ~RCU_CFG1_PREDV;
 1098              		.loc 1 473 5 is_stmt 1 view .LVU225
 1099              		.loc 1 473 12 is_stmt 0 view .LVU226
 1100 000a 0F21     		movs	r1, #15
 1101 000c 8B43     		bics	r3, r1
 1102              	.LVL41:
 474:Drivers/GD32E23x_standard_peripheral/Source/gd32e23x_rcu.c ****     RCU_CFG1 = (prediv | hxtal_prediv);
 1103              		.loc 1 474 5 is_stmt 1 view .LVU227
 1104              		.loc 1 474 24 is_stmt 0 view .LVU228
 1105 000e 0343     		orrs	r3, r0
ARM GAS  /var/folders/rv/zq8s_02j1dj4vjvr1mm5zl2r0000gn/T//cc2hOtpo.s 			page 29


 1106              	.LVL42:
 1107              		.loc 1 474 14 view .LVU229
 1108 0010 1360     		str	r3, [r2]
 475:Drivers/GD32E23x_standard_peripheral/Source/gd32e23x_rcu.c **** }
 1109              		.loc 1 475 1 view .LVU230
 1110              		@ sp needed
 1111 0012 7047     		bx	lr
 1112              		.cfi_endproc
 1113              	.LFE85:
 1115              		.section	.text.rcu_lxtal_drive_capability_config,"ax",%progbits
 1116              		.align	1
 1117              		.global	rcu_lxtal_drive_capability_config
 1118              		.syntax unified
 1119              		.code	16
 1120              		.thumb_func
 1121              		.fpu softvfp
 1123              	rcu_lxtal_drive_capability_config:
 1124              	.LVL43:
 1125              	.LFB86:
 476:Drivers/GD32E23x_standard_peripheral/Source/gd32e23x_rcu.c **** 
 477:Drivers/GD32E23x_standard_peripheral/Source/gd32e23x_rcu.c **** /*!
 478:Drivers/GD32E23x_standard_peripheral/Source/gd32e23x_rcu.c ****     \brief      configure the LXTAL drive capability
 479:Drivers/GD32E23x_standard_peripheral/Source/gd32e23x_rcu.c ****     \param[in]  lxtal_dricap: drive capability of LXTAL
 480:Drivers/GD32E23x_standard_peripheral/Source/gd32e23x_rcu.c ****                 only one parameter can be selected which is shown as below:
 481:Drivers/GD32E23x_standard_peripheral/Source/gd32e23x_rcu.c ****       \arg        RCU_LXTAL_LOWDRI: lower driving capability
 482:Drivers/GD32E23x_standard_peripheral/Source/gd32e23x_rcu.c ****       \arg        RCU_LXTAL_MED_LOWDRI: medium low driving capability
 483:Drivers/GD32E23x_standard_peripheral/Source/gd32e23x_rcu.c ****       \arg        RCU_LXTAL_MED_HIGHDRI: medium high driving capability
 484:Drivers/GD32E23x_standard_peripheral/Source/gd32e23x_rcu.c ****       \arg        RCU_LXTAL_HIGHDRI: higher driving capability
 485:Drivers/GD32E23x_standard_peripheral/Source/gd32e23x_rcu.c ****     \param[out] none
 486:Drivers/GD32E23x_standard_peripheral/Source/gd32e23x_rcu.c ****     \retval     none
 487:Drivers/GD32E23x_standard_peripheral/Source/gd32e23x_rcu.c **** */
 488:Drivers/GD32E23x_standard_peripheral/Source/gd32e23x_rcu.c **** void rcu_lxtal_drive_capability_config(uint32_t lxtal_dricap)
 489:Drivers/GD32E23x_standard_peripheral/Source/gd32e23x_rcu.c **** {
 1126              		.loc 1 489 1 is_stmt 1 view -0
 1127              		.cfi_startproc
 1128              		@ args = 0, pretend = 0, frame = 0
 1129              		@ frame_needed = 0, uses_anonymous_args = 0
 1130              		@ link register save eliminated.
 490:Drivers/GD32E23x_standard_peripheral/Source/gd32e23x_rcu.c ****     /* reset the LXTALDRI bits and set according to lxtal_dricap */
 491:Drivers/GD32E23x_standard_peripheral/Source/gd32e23x_rcu.c ****     RCU_BDCTL &= ~RCU_BDCTL_LXTALDRI;
 1131              		.loc 1 491 5 view .LVU232
 1132              		.loc 1 491 15 is_stmt 0 view .LVU233
 1133 0000 41F22003 		movw	r3, #4128
 1134 0004 C4F20203 		movt	r3, 16386
 1135 0008 1968     		ldr	r1, [r3]
 1136 000a 1822     		movs	r2, #24
 1137 000c 9143     		bics	r1, r2
 1138 000e 1960     		str	r1, [r3]
 492:Drivers/GD32E23x_standard_peripheral/Source/gd32e23x_rcu.c ****     RCU_BDCTL |= lxtal_dricap;
 1139              		.loc 1 492 5 is_stmt 1 view .LVU234
 1140              		.loc 1 492 15 is_stmt 0 view .LVU235
 1141 0010 1A68     		ldr	r2, [r3]
 1142 0012 0243     		orrs	r2, r0
 1143 0014 1A60     		str	r2, [r3]
 493:Drivers/GD32E23x_standard_peripheral/Source/gd32e23x_rcu.c **** }
 1144              		.loc 1 493 1 view .LVU236
 1145              		@ sp needed
ARM GAS  /var/folders/rv/zq8s_02j1dj4vjvr1mm5zl2r0000gn/T//cc2hOtpo.s 			page 30


 1146 0016 7047     		bx	lr
 1147              		.cfi_endproc
 1148              	.LFE86:
 1150              		.section	.text.rcu_flag_get,"ax",%progbits
 1151              		.align	1
 1152              		.global	rcu_flag_get
 1153              		.syntax unified
 1154              		.code	16
 1155              		.thumb_func
 1156              		.fpu softvfp
 1158              	rcu_flag_get:
 1159              	.LVL44:
 1160              	.LFB87:
 494:Drivers/GD32E23x_standard_peripheral/Source/gd32e23x_rcu.c **** 
 495:Drivers/GD32E23x_standard_peripheral/Source/gd32e23x_rcu.c **** /*!
 496:Drivers/GD32E23x_standard_peripheral/Source/gd32e23x_rcu.c ****     \brief      get the clock stabilization and periphral reset flags
 497:Drivers/GD32E23x_standard_peripheral/Source/gd32e23x_rcu.c ****     \param[in]  flag: the clock stabilization and periphral reset flags, refer to rcu_flag_enum
 498:Drivers/GD32E23x_standard_peripheral/Source/gd32e23x_rcu.c ****                 only one parameter can be selected which is shown as below:
 499:Drivers/GD32E23x_standard_peripheral/Source/gd32e23x_rcu.c ****       \arg        RCU_FLAG_IRC40KSTB: IRC40K stabilization flag
 500:Drivers/GD32E23x_standard_peripheral/Source/gd32e23x_rcu.c ****       \arg        RCU_FLAG_LXTALSTB: LXTAL stabilization flag
 501:Drivers/GD32E23x_standard_peripheral/Source/gd32e23x_rcu.c ****       \arg        RCU_FLAG_IRC8MSTB: IRC8M stabilization flag
 502:Drivers/GD32E23x_standard_peripheral/Source/gd32e23x_rcu.c ****       \arg        RCU_FLAG_HXTALSTB: HXTAL stabilization flag
 503:Drivers/GD32E23x_standard_peripheral/Source/gd32e23x_rcu.c ****       \arg        RCU_FLAG_PLLSTB: PLL stabilization flag
 504:Drivers/GD32E23x_standard_peripheral/Source/gd32e23x_rcu.c ****       \arg        RCU_FLAG_IRC28MSTB: IRC28M stabilization flag
 505:Drivers/GD32E23x_standard_peripheral/Source/gd32e23x_rcu.c ****       \arg        RCU_FLAG_V12RST: V12 domain power reset flag
 506:Drivers/GD32E23x_standard_peripheral/Source/gd32e23x_rcu.c ****       \arg        RCU_FLAG_OBLRST: option byte loader reset flag
 507:Drivers/GD32E23x_standard_peripheral/Source/gd32e23x_rcu.c ****       \arg        RCU_FLAG_EPRST: external pin reset flag
 508:Drivers/GD32E23x_standard_peripheral/Source/gd32e23x_rcu.c ****       \arg        RCU_FLAG_PORRST: power reset flag
 509:Drivers/GD32E23x_standard_peripheral/Source/gd32e23x_rcu.c ****       \arg        RCU_FLAG_SWRST: software reset flag
 510:Drivers/GD32E23x_standard_peripheral/Source/gd32e23x_rcu.c ****       \arg        RCU_FLAG_FWDGTRST: free watchdog timer reset flag
 511:Drivers/GD32E23x_standard_peripheral/Source/gd32e23x_rcu.c ****       \arg        RCU_FLAG_WWDGTRST: window watchdog timer reset flag
 512:Drivers/GD32E23x_standard_peripheral/Source/gd32e23x_rcu.c ****       \arg        RCU_FLAG_LPRST: low-power reset flag
 513:Drivers/GD32E23x_standard_peripheral/Source/gd32e23x_rcu.c ****     \param[out] none
 514:Drivers/GD32E23x_standard_peripheral/Source/gd32e23x_rcu.c ****     \retval     FlagStatus: SET or RESET
 515:Drivers/GD32E23x_standard_peripheral/Source/gd32e23x_rcu.c **** */
 516:Drivers/GD32E23x_standard_peripheral/Source/gd32e23x_rcu.c **** FlagStatus rcu_flag_get(rcu_flag_enum flag)
 517:Drivers/GD32E23x_standard_peripheral/Source/gd32e23x_rcu.c **** {
 1161              		.loc 1 517 1 is_stmt 1 view -0
 1162              		.cfi_startproc
 1163              		@ args = 0, pretend = 0, frame = 0
 1164              		@ frame_needed = 0, uses_anonymous_args = 0
 1165              		@ link register save eliminated.
 518:Drivers/GD32E23x_standard_peripheral/Source/gd32e23x_rcu.c ****     if(RESET != (RCU_REG_VAL(flag) & BIT(RCU_BIT_POS(flag)))){
 1166              		.loc 1 518 5 view .LVU238
 1167              		.loc 1 518 18 is_stmt 0 view .LVU239
 1168 0000 8309     		lsrs	r3, r0, #6
 1169 0002 41F2000C 		movw	ip, #4096
 1170 0006 C4F2020C 		movt	ip, 16386
 1171 000a 6344     		add	r3, r3, ip
 1172 000c 1B68     		ldr	r3, [r3]
 1173              		.loc 1 518 38 view .LVU240
 1174 000e 1F22     		movs	r2, #31
 1175 0010 1040     		ands	r0, r2
 1176              	.LVL45:
 1177              		.loc 1 518 14 view .LVU241
 1178 0012 C340     		lsrs	r3, r3, r0
 1179              		.loc 1 518 7 view .LVU242
ARM GAS  /var/folders/rv/zq8s_02j1dj4vjvr1mm5zl2r0000gn/T//cc2hOtpo.s 			page 31


 1180 0014 DB07     		lsls	r3, r3, #31
 1181 0016 01D5     		bpl	.L51
 519:Drivers/GD32E23x_standard_peripheral/Source/gd32e23x_rcu.c ****         return SET;
 1182              		.loc 1 519 16 view .LVU243
 1183 0018 0120     		movs	r0, #1
 1184              	.L50:
 520:Drivers/GD32E23x_standard_peripheral/Source/gd32e23x_rcu.c ****     }else{
 521:Drivers/GD32E23x_standard_peripheral/Source/gd32e23x_rcu.c ****         return RESET;
 522:Drivers/GD32E23x_standard_peripheral/Source/gd32e23x_rcu.c ****     }
 523:Drivers/GD32E23x_standard_peripheral/Source/gd32e23x_rcu.c **** }
 1185              		.loc 1 523 1 view .LVU244
 1186              		@ sp needed
 1187 001a 7047     		bx	lr
 1188              	.L51:
 521:Drivers/GD32E23x_standard_peripheral/Source/gd32e23x_rcu.c ****     }
 1189              		.loc 1 521 16 view .LVU245
 1190 001c 0020     		movs	r0, #0
 1191 001e FCE7     		b	.L50
 1192              		.cfi_endproc
 1193              	.LFE87:
 1195              		.section	.text.rcu_all_reset_flag_clear,"ax",%progbits
 1196              		.align	1
 1197              		.global	rcu_all_reset_flag_clear
 1198              		.syntax unified
 1199              		.code	16
 1200              		.thumb_func
 1201              		.fpu softvfp
 1203              	rcu_all_reset_flag_clear:
 1204              	.LFB88:
 524:Drivers/GD32E23x_standard_peripheral/Source/gd32e23x_rcu.c **** 
 525:Drivers/GD32E23x_standard_peripheral/Source/gd32e23x_rcu.c **** /*!
 526:Drivers/GD32E23x_standard_peripheral/Source/gd32e23x_rcu.c ****     \brief      clear the reset flag
 527:Drivers/GD32E23x_standard_peripheral/Source/gd32e23x_rcu.c ****     \param[in]  none
 528:Drivers/GD32E23x_standard_peripheral/Source/gd32e23x_rcu.c ****     \param[out] none
 529:Drivers/GD32E23x_standard_peripheral/Source/gd32e23x_rcu.c ****     \retval     none
 530:Drivers/GD32E23x_standard_peripheral/Source/gd32e23x_rcu.c **** */
 531:Drivers/GD32E23x_standard_peripheral/Source/gd32e23x_rcu.c **** void rcu_all_reset_flag_clear(void)
 532:Drivers/GD32E23x_standard_peripheral/Source/gd32e23x_rcu.c **** {
 1205              		.loc 1 532 1 is_stmt 1 view -0
 1206              		.cfi_startproc
 1207              		@ args = 0, pretend = 0, frame = 0
 1208              		@ frame_needed = 0, uses_anonymous_args = 0
 1209              		@ link register save eliminated.
 533:Drivers/GD32E23x_standard_peripheral/Source/gd32e23x_rcu.c ****     RCU_RSTSCK |= RCU_RSTSCK_RSTFC;
 1210              		.loc 1 533 5 view .LVU247
 1211              		.loc 1 533 16 is_stmt 0 view .LVU248
 1212 0000 41F22403 		movw	r3, #4132
 1213 0004 C4F20203 		movt	r3, 16386
 1214 0008 1968     		ldr	r1, [r3]
 1215 000a 8022     		movs	r2, #128
 1216 000c 5204     		lsls	r2, r2, #17
 1217 000e 0A43     		orrs	r2, r1
 1218 0010 1A60     		str	r2, [r3]
 534:Drivers/GD32E23x_standard_peripheral/Source/gd32e23x_rcu.c **** }
 1219              		.loc 1 534 1 view .LVU249
 1220              		@ sp needed
 1221 0012 7047     		bx	lr
ARM GAS  /var/folders/rv/zq8s_02j1dj4vjvr1mm5zl2r0000gn/T//cc2hOtpo.s 			page 32


 1222              		.cfi_endproc
 1223              	.LFE88:
 1225              		.section	.text.rcu_interrupt_flag_get,"ax",%progbits
 1226              		.align	1
 1227              		.global	rcu_interrupt_flag_get
 1228              		.syntax unified
 1229              		.code	16
 1230              		.thumb_func
 1231              		.fpu softvfp
 1233              	rcu_interrupt_flag_get:
 1234              	.LVL46:
 1235              	.LFB89:
 535:Drivers/GD32E23x_standard_peripheral/Source/gd32e23x_rcu.c **** 
 536:Drivers/GD32E23x_standard_peripheral/Source/gd32e23x_rcu.c **** /*!
 537:Drivers/GD32E23x_standard_peripheral/Source/gd32e23x_rcu.c ****     \brief      get the clock stabilization interrupt and ckm flags
 538:Drivers/GD32E23x_standard_peripheral/Source/gd32e23x_rcu.c ****     \param[in]  int_flag: interrupt and ckm flags, refer to rcu_int_flag_enum
 539:Drivers/GD32E23x_standard_peripheral/Source/gd32e23x_rcu.c ****                 only one parameter can be selected which is shown as below:
 540:Drivers/GD32E23x_standard_peripheral/Source/gd32e23x_rcu.c ****       \arg        RCU_INT_FLAG_IRC40KSTB: IRC40K stabilization interrupt flag
 541:Drivers/GD32E23x_standard_peripheral/Source/gd32e23x_rcu.c ****       \arg        RCU_INT_FLAG_LXTALSTB: LXTAL stabilization interrupt flag
 542:Drivers/GD32E23x_standard_peripheral/Source/gd32e23x_rcu.c ****       \arg        RCU_INT_FLAG_IRC8MSTB: IRC8M stabilization interrupt flag
 543:Drivers/GD32E23x_standard_peripheral/Source/gd32e23x_rcu.c ****       \arg        RCU_INT_FLAG_HXTALSTB: HXTAL stabilization interrupt flag
 544:Drivers/GD32E23x_standard_peripheral/Source/gd32e23x_rcu.c ****       \arg        RCU_INT_FLAG_PLLSTB: PLL stabilization interrupt flag
 545:Drivers/GD32E23x_standard_peripheral/Source/gd32e23x_rcu.c ****       \arg        RCU_INT_FLAG_IRC28MSTB: IRC28M stabilization interrupt flag
 546:Drivers/GD32E23x_standard_peripheral/Source/gd32e23x_rcu.c ****       \arg        RCU_INT_FLAG_CKM: HXTAL clock stuck interrupt flag
 547:Drivers/GD32E23x_standard_peripheral/Source/gd32e23x_rcu.c ****     \param[out] none
 548:Drivers/GD32E23x_standard_peripheral/Source/gd32e23x_rcu.c ****     \retval     FlagStatus: SET or RESET
 549:Drivers/GD32E23x_standard_peripheral/Source/gd32e23x_rcu.c **** */
 550:Drivers/GD32E23x_standard_peripheral/Source/gd32e23x_rcu.c **** FlagStatus rcu_interrupt_flag_get(rcu_int_flag_enum int_flag)
 551:Drivers/GD32E23x_standard_peripheral/Source/gd32e23x_rcu.c **** {
 1236              		.loc 1 551 1 is_stmt 1 view -0
 1237              		.cfi_startproc
 1238              		@ args = 0, pretend = 0, frame = 0
 1239              		@ frame_needed = 0, uses_anonymous_args = 0
 1240              		@ link register save eliminated.
 552:Drivers/GD32E23x_standard_peripheral/Source/gd32e23x_rcu.c ****     if(RESET != (RCU_REG_VAL(int_flag) & BIT(RCU_BIT_POS(int_flag)))){
 1241              		.loc 1 552 5 view .LVU251
 1242              		.loc 1 552 18 is_stmt 0 view .LVU252
 1243 0000 8309     		lsrs	r3, r0, #6
 1244 0002 41F2000C 		movw	ip, #4096
 1245 0006 C4F2020C 		movt	ip, 16386
 1246 000a 6344     		add	r3, r3, ip
 1247 000c 1B68     		ldr	r3, [r3]
 1248              		.loc 1 552 42 view .LVU253
 1249 000e 1F22     		movs	r2, #31
 1250 0010 1040     		ands	r0, r2
 1251              	.LVL47:
 1252              		.loc 1 552 14 view .LVU254
 1253 0012 C340     		lsrs	r3, r3, r0
 1254              		.loc 1 552 7 view .LVU255
 1255 0014 DB07     		lsls	r3, r3, #31
 1256 0016 01D5     		bpl	.L55
 553:Drivers/GD32E23x_standard_peripheral/Source/gd32e23x_rcu.c ****         return SET;
 1257              		.loc 1 553 16 view .LVU256
 1258 0018 0120     		movs	r0, #1
 1259              	.L54:
 554:Drivers/GD32E23x_standard_peripheral/Source/gd32e23x_rcu.c ****     }else{
 555:Drivers/GD32E23x_standard_peripheral/Source/gd32e23x_rcu.c ****         return RESET;
ARM GAS  /var/folders/rv/zq8s_02j1dj4vjvr1mm5zl2r0000gn/T//cc2hOtpo.s 			page 33


 556:Drivers/GD32E23x_standard_peripheral/Source/gd32e23x_rcu.c ****     }
 557:Drivers/GD32E23x_standard_peripheral/Source/gd32e23x_rcu.c **** }
 1260              		.loc 1 557 1 view .LVU257
 1261              		@ sp needed
 1262 001a 7047     		bx	lr
 1263              	.L55:
 555:Drivers/GD32E23x_standard_peripheral/Source/gd32e23x_rcu.c ****     }
 1264              		.loc 1 555 16 view .LVU258
 1265 001c 0020     		movs	r0, #0
 1266 001e FCE7     		b	.L54
 1267              		.cfi_endproc
 1268              	.LFE89:
 1270              		.section	.text.rcu_interrupt_flag_clear,"ax",%progbits
 1271              		.align	1
 1272              		.global	rcu_interrupt_flag_clear
 1273              		.syntax unified
 1274              		.code	16
 1275              		.thumb_func
 1276              		.fpu softvfp
 1278              	rcu_interrupt_flag_clear:
 1279              	.LVL48:
 1280              	.LFB90:
 558:Drivers/GD32E23x_standard_peripheral/Source/gd32e23x_rcu.c **** 
 559:Drivers/GD32E23x_standard_peripheral/Source/gd32e23x_rcu.c **** /*!
 560:Drivers/GD32E23x_standard_peripheral/Source/gd32e23x_rcu.c ****     \brief      clear the interrupt flags
 561:Drivers/GD32E23x_standard_peripheral/Source/gd32e23x_rcu.c ****     \param[in]  int_flag_clear: clock stabilization and stuck interrupt flags clear, refer to rcu_i
 562:Drivers/GD32E23x_standard_peripheral/Source/gd32e23x_rcu.c ****                 only one parameter can be selected which is shown as below:
 563:Drivers/GD32E23x_standard_peripheral/Source/gd32e23x_rcu.c ****       \arg        RCU_INT_FLAG_IRC40KSTB_CLR: IRC40K stabilization interrupt flag clear
 564:Drivers/GD32E23x_standard_peripheral/Source/gd32e23x_rcu.c ****       \arg        RCU_INT_FLAG_LXTALSTB_CLR: LXTAL stabilization interrupt flag clear
 565:Drivers/GD32E23x_standard_peripheral/Source/gd32e23x_rcu.c ****       \arg        RCU_INT_FLAG_IRC8MSTB_CLR: IRC8M stabilization interrupt flag clear
 566:Drivers/GD32E23x_standard_peripheral/Source/gd32e23x_rcu.c ****       \arg        RCU_INT_FLAG_HXTALSTB_CLR: HXTAL stabilization interrupt flag clear
 567:Drivers/GD32E23x_standard_peripheral/Source/gd32e23x_rcu.c ****       \arg        RCU_INT_FLAG_PLLSTB_CLR: PLL stabilization interrupt flag clear
 568:Drivers/GD32E23x_standard_peripheral/Source/gd32e23x_rcu.c ****       \arg        RCU_INT_FLAG_IRC28MSTB_CLR: IRC28M stabilization interrupt flag clear
 569:Drivers/GD32E23x_standard_peripheral/Source/gd32e23x_rcu.c ****       \arg        RCU_INT_FLAG_CKM_CLR: clock stuck interrupt flag clear
 570:Drivers/GD32E23x_standard_peripheral/Source/gd32e23x_rcu.c ****     \param[out] none
 571:Drivers/GD32E23x_standard_peripheral/Source/gd32e23x_rcu.c ****     \retval     none
 572:Drivers/GD32E23x_standard_peripheral/Source/gd32e23x_rcu.c **** */
 573:Drivers/GD32E23x_standard_peripheral/Source/gd32e23x_rcu.c **** void rcu_interrupt_flag_clear(rcu_int_flag_clear_enum int_flag_clear)
 574:Drivers/GD32E23x_standard_peripheral/Source/gd32e23x_rcu.c **** {
 1281              		.loc 1 574 1 is_stmt 1 view -0
 1282              		.cfi_startproc
 1283              		@ args = 0, pretend = 0, frame = 0
 1284              		@ frame_needed = 0, uses_anonymous_args = 0
 1285              		@ link register save eliminated.
 575:Drivers/GD32E23x_standard_peripheral/Source/gd32e23x_rcu.c ****     RCU_REG_VAL(int_flag_clear) |= BIT(RCU_BIT_POS(int_flag_clear));
 1286              		.loc 1 575 5 view .LVU260
 1287              		.loc 1 575 33 is_stmt 0 view .LVU261
 1288 0000 8309     		lsrs	r3, r0, #6
 1289 0002 41F2000C 		movw	ip, #4096
 1290 0006 C4F2020C 		movt	ip, 16386
 1291 000a 6344     		add	r3, r3, ip
 1292 000c 1A68     		ldr	r2, [r3]
 1293              		.loc 1 575 36 view .LVU262
 1294 000e 1F21     		movs	r1, #31
 1295 0010 0840     		ands	r0, r1
 1296              	.LVL49:
 1297              		.loc 1 575 36 view .LVU263
ARM GAS  /var/folders/rv/zq8s_02j1dj4vjvr1mm5zl2r0000gn/T//cc2hOtpo.s 			page 34


 1298 0012 1E39     		subs	r1, r1, #30
 1299 0014 8140     		lsls	r1, r1, r0
 1300              		.loc 1 575 33 view .LVU264
 1301 0016 0A43     		orrs	r2, r1
 1302 0018 1A60     		str	r2, [r3]
 576:Drivers/GD32E23x_standard_peripheral/Source/gd32e23x_rcu.c **** }
 1303              		.loc 1 576 1 view .LVU265
 1304              		@ sp needed
 1305 001a 7047     		bx	lr
 1306              		.cfi_endproc
 1307              	.LFE90:
 1309              		.section	.text.rcu_interrupt_enable,"ax",%progbits
 1310              		.align	1
 1311              		.global	rcu_interrupt_enable
 1312              		.syntax unified
 1313              		.code	16
 1314              		.thumb_func
 1315              		.fpu softvfp
 1317              	rcu_interrupt_enable:
 1318              	.LVL50:
 1319              	.LFB91:
 577:Drivers/GD32E23x_standard_peripheral/Source/gd32e23x_rcu.c **** 
 578:Drivers/GD32E23x_standard_peripheral/Source/gd32e23x_rcu.c **** /*!
 579:Drivers/GD32E23x_standard_peripheral/Source/gd32e23x_rcu.c ****     \brief      enable the stabilization interrupt
 580:Drivers/GD32E23x_standard_peripheral/Source/gd32e23x_rcu.c ****     \param[in]  stab_int: clock stabilization interrupt, refer to rcu_int_enum
 581:Drivers/GD32E23x_standard_peripheral/Source/gd32e23x_rcu.c ****                 only one parameter can be selected which is shown as below:
 582:Drivers/GD32E23x_standard_peripheral/Source/gd32e23x_rcu.c ****       \arg        RCU_INT_IRC40KSTB: IRC40K stabilization interrupt enable
 583:Drivers/GD32E23x_standard_peripheral/Source/gd32e23x_rcu.c ****       \arg        RCU_INT_LXTALSTB: LXTAL stabilization interrupt enable
 584:Drivers/GD32E23x_standard_peripheral/Source/gd32e23x_rcu.c ****       \arg        RCU_INT_IRC8MSTB: IRC8M stabilization interrupt enable
 585:Drivers/GD32E23x_standard_peripheral/Source/gd32e23x_rcu.c ****       \arg        RCU_INT_HXTALSTB: HXTAL stabilization interrupt enable
 586:Drivers/GD32E23x_standard_peripheral/Source/gd32e23x_rcu.c ****       \arg        RCU_INT_PLLSTB: PLL stabilization interrupt enable
 587:Drivers/GD32E23x_standard_peripheral/Source/gd32e23x_rcu.c ****       \arg        RCU_INT_IRC28MSTB: IRC28M stabilization interrupt enable
 588:Drivers/GD32E23x_standard_peripheral/Source/gd32e23x_rcu.c ****     \param[out] none
 589:Drivers/GD32E23x_standard_peripheral/Source/gd32e23x_rcu.c ****     \retval     none
 590:Drivers/GD32E23x_standard_peripheral/Source/gd32e23x_rcu.c **** */
 591:Drivers/GD32E23x_standard_peripheral/Source/gd32e23x_rcu.c **** void rcu_interrupt_enable(rcu_int_enum stab_int)
 592:Drivers/GD32E23x_standard_peripheral/Source/gd32e23x_rcu.c **** {
 1320              		.loc 1 592 1 is_stmt 1 view -0
 1321              		.cfi_startproc
 1322              		@ args = 0, pretend = 0, frame = 0
 1323              		@ frame_needed = 0, uses_anonymous_args = 0
 1324              		@ link register save eliminated.
 593:Drivers/GD32E23x_standard_peripheral/Source/gd32e23x_rcu.c ****     RCU_REG_VAL(stab_int) |= BIT(RCU_BIT_POS(stab_int));
 1325              		.loc 1 593 5 view .LVU267
 1326              		.loc 1 593 27 is_stmt 0 view .LVU268
 1327 0000 8309     		lsrs	r3, r0, #6
 1328 0002 41F2000C 		movw	ip, #4096
 1329 0006 C4F2020C 		movt	ip, 16386
 1330 000a 6344     		add	r3, r3, ip
 1331 000c 1A68     		ldr	r2, [r3]
 1332              		.loc 1 593 30 view .LVU269
 1333 000e 1F21     		movs	r1, #31
 1334 0010 0840     		ands	r0, r1
 1335              	.LVL51:
 1336              		.loc 1 593 30 view .LVU270
 1337 0012 1E39     		subs	r1, r1, #30
 1338 0014 8140     		lsls	r1, r1, r0
ARM GAS  /var/folders/rv/zq8s_02j1dj4vjvr1mm5zl2r0000gn/T//cc2hOtpo.s 			page 35


 1339              		.loc 1 593 27 view .LVU271
 1340 0016 0A43     		orrs	r2, r1
 1341 0018 1A60     		str	r2, [r3]
 594:Drivers/GD32E23x_standard_peripheral/Source/gd32e23x_rcu.c **** }
 1342              		.loc 1 594 1 view .LVU272
 1343              		@ sp needed
 1344 001a 7047     		bx	lr
 1345              		.cfi_endproc
 1346              	.LFE91:
 1348              		.section	.text.rcu_interrupt_disable,"ax",%progbits
 1349              		.align	1
 1350              		.global	rcu_interrupt_disable
 1351              		.syntax unified
 1352              		.code	16
 1353              		.thumb_func
 1354              		.fpu softvfp
 1356              	rcu_interrupt_disable:
 1357              	.LVL52:
 1358              	.LFB92:
 595:Drivers/GD32E23x_standard_peripheral/Source/gd32e23x_rcu.c **** 
 596:Drivers/GD32E23x_standard_peripheral/Source/gd32e23x_rcu.c **** 
 597:Drivers/GD32E23x_standard_peripheral/Source/gd32e23x_rcu.c **** /*!
 598:Drivers/GD32E23x_standard_peripheral/Source/gd32e23x_rcu.c ****     \brief      disable the stabilization interrupt
 599:Drivers/GD32E23x_standard_peripheral/Source/gd32e23x_rcu.c ****     \param[in]  stab_int: clock stabilization interrupt, refer to rcu_int_enum
 600:Drivers/GD32E23x_standard_peripheral/Source/gd32e23x_rcu.c ****                 only one parameter can be selected which is shown as below:
 601:Drivers/GD32E23x_standard_peripheral/Source/gd32e23x_rcu.c ****       \arg        RCU_INT_IRC40KSTB: IRC40K stabilization interrupt disable
 602:Drivers/GD32E23x_standard_peripheral/Source/gd32e23x_rcu.c ****       \arg        RCU_INT_LXTALSTB: LXTAL stabilization interrupt disable
 603:Drivers/GD32E23x_standard_peripheral/Source/gd32e23x_rcu.c ****       \arg        RCU_INT_IRC8MSTB: IRC8M stabilization interrupt disable
 604:Drivers/GD32E23x_standard_peripheral/Source/gd32e23x_rcu.c ****       \arg        RCU_INT_HXTALSTB: HXTAL stabilization interrupt disable
 605:Drivers/GD32E23x_standard_peripheral/Source/gd32e23x_rcu.c ****       \arg        RCU_INT_PLLSTB: PLL stabilization interrupt disable
 606:Drivers/GD32E23x_standard_peripheral/Source/gd32e23x_rcu.c ****       \arg        RCU_INT_IRC28MSTB: IRC28M stabilization interrupt disable
 607:Drivers/GD32E23x_standard_peripheral/Source/gd32e23x_rcu.c ****     \param[out] none
 608:Drivers/GD32E23x_standard_peripheral/Source/gd32e23x_rcu.c ****     \retval     none
 609:Drivers/GD32E23x_standard_peripheral/Source/gd32e23x_rcu.c **** */
 610:Drivers/GD32E23x_standard_peripheral/Source/gd32e23x_rcu.c **** void rcu_interrupt_disable(rcu_int_enum stab_int)
 611:Drivers/GD32E23x_standard_peripheral/Source/gd32e23x_rcu.c **** {
 1359              		.loc 1 611 1 is_stmt 1 view -0
 1360              		.cfi_startproc
 1361              		@ args = 0, pretend = 0, frame = 0
 1362              		@ frame_needed = 0, uses_anonymous_args = 0
 1363              		@ link register save eliminated.
 612:Drivers/GD32E23x_standard_peripheral/Source/gd32e23x_rcu.c ****     RCU_REG_VAL(stab_int) &= ~BIT(RCU_BIT_POS(stab_int));
 1364              		.loc 1 612 5 view .LVU274
 1365              		.loc 1 612 27 is_stmt 0 view .LVU275
 1366 0000 8309     		lsrs	r3, r0, #6
 1367 0002 41F2000C 		movw	ip, #4096
 1368 0006 C4F2020C 		movt	ip, 16386
 1369 000a 6344     		add	r3, r3, ip
 1370 000c 1A68     		ldr	r2, [r3]
 1371              		.loc 1 612 31 view .LVU276
 1372 000e 1F21     		movs	r1, #31
 1373 0010 0840     		ands	r0, r1
 1374              	.LVL53:
 1375              		.loc 1 612 31 view .LVU277
 1376 0012 1E39     		subs	r1, r1, #30
 1377 0014 8140     		lsls	r1, r1, r0
 1378              		.loc 1 612 27 view .LVU278
ARM GAS  /var/folders/rv/zq8s_02j1dj4vjvr1mm5zl2r0000gn/T//cc2hOtpo.s 			page 36


 1379 0016 8A43     		bics	r2, r1
 1380 0018 1A60     		str	r2, [r3]
 613:Drivers/GD32E23x_standard_peripheral/Source/gd32e23x_rcu.c **** }
 1381              		.loc 1 613 1 view .LVU279
 1382              		@ sp needed
 1383 001a 7047     		bx	lr
 1384              		.cfi_endproc
 1385              	.LFE92:
 1387              		.section	.text.rcu_osci_stab_wait,"ax",%progbits
 1388              		.align	1
 1389              		.global	rcu_osci_stab_wait
 1390              		.syntax unified
 1391              		.code	16
 1392              		.thumb_func
 1393              		.fpu softvfp
 1395              	rcu_osci_stab_wait:
 1396              	.LVL54:
 1397              	.LFB93:
 614:Drivers/GD32E23x_standard_peripheral/Source/gd32e23x_rcu.c **** 
 615:Drivers/GD32E23x_standard_peripheral/Source/gd32e23x_rcu.c **** /*!
 616:Drivers/GD32E23x_standard_peripheral/Source/gd32e23x_rcu.c ****     \brief      wait until oscillator stabilization flags is SET
 617:Drivers/GD32E23x_standard_peripheral/Source/gd32e23x_rcu.c ****     \param[in]  osci: oscillator types, refer to rcu_osci_type_enum
 618:Drivers/GD32E23x_standard_peripheral/Source/gd32e23x_rcu.c ****                 only one parameter can be selected which is shown as below:
 619:Drivers/GD32E23x_standard_peripheral/Source/gd32e23x_rcu.c ****       \arg        RCU_HXTAL: HXTAL
 620:Drivers/GD32E23x_standard_peripheral/Source/gd32e23x_rcu.c ****       \arg        RCU_LXTAL: LXTAL
 621:Drivers/GD32E23x_standard_peripheral/Source/gd32e23x_rcu.c ****       \arg        RCU_IRC8M: IRC8M
 622:Drivers/GD32E23x_standard_peripheral/Source/gd32e23x_rcu.c ****       \arg        RCU_IRC28M: IRC28M
 623:Drivers/GD32E23x_standard_peripheral/Source/gd32e23x_rcu.c ****       \arg        RCU_IRC40K: IRC40K
 624:Drivers/GD32E23x_standard_peripheral/Source/gd32e23x_rcu.c ****       \arg        RCU_PLL_CK: PLL
 625:Drivers/GD32E23x_standard_peripheral/Source/gd32e23x_rcu.c ****     \param[out] none
 626:Drivers/GD32E23x_standard_peripheral/Source/gd32e23x_rcu.c ****     \retval     ErrStatus: SUCCESS or ERROR
 627:Drivers/GD32E23x_standard_peripheral/Source/gd32e23x_rcu.c **** */
 628:Drivers/GD32E23x_standard_peripheral/Source/gd32e23x_rcu.c **** ErrStatus rcu_osci_stab_wait(rcu_osci_type_enum osci)
 629:Drivers/GD32E23x_standard_peripheral/Source/gd32e23x_rcu.c **** {
 1398              		.loc 1 629 1 is_stmt 1 view -0
 1399              		.cfi_startproc
 1400              		@ args = 0, pretend = 0, frame = 0
 1401              		@ frame_needed = 0, uses_anonymous_args = 0
 1402              		.loc 1 629 1 is_stmt 0 view .LVU281
 1403 0000 10B5     		push	{r4, lr}
 1404              	.LCFI2:
 1405              		.cfi_def_cfa_offset 8
 1406              		.cfi_offset 4, -8
 1407              		.cfi_offset 14, -4
 630:Drivers/GD32E23x_standard_peripheral/Source/gd32e23x_rcu.c ****     uint32_t stb_cnt = 0U;
 1408              		.loc 1 630 5 is_stmt 1 view .LVU282
 1409              	.LVL55:
 631:Drivers/GD32E23x_standard_peripheral/Source/gd32e23x_rcu.c ****     ErrStatus reval = ERROR;
 1410              		.loc 1 631 5 view .LVU283
 632:Drivers/GD32E23x_standard_peripheral/Source/gd32e23x_rcu.c ****     FlagStatus osci_stat = RESET;
 1411              		.loc 1 632 5 view .LVU284
 633:Drivers/GD32E23x_standard_peripheral/Source/gd32e23x_rcu.c ****     switch(osci){
 1412              		.loc 1 633 5 view .LVU285
 1413 0002 40F60003 		movw	r3, #2048
 1414 0006 9842     		cmp	r0, r3
 1415 0008 3ED0     		beq	.L80
 1416 000a 0CD8     		bhi	.L61
ARM GAS  /var/folders/rv/zq8s_02j1dj4vjvr1mm5zl2r0000gn/T//cc2hOtpo.s 			page 37


 1417 000c 1028     		cmp	r0, #16
 1418 000e 27D0     		beq	.L81
 1419 0010 1828     		cmp	r0, #24
 1420 0012 02D1     		bne	.L92
 1421 0014 0020     		movs	r0, #0
 1422              	.LVL56:
 1423              		.loc 1 633 5 is_stmt 0 view .LVU286
 1424 0016 0024     		movs	r4, #0
 1425 0018 79E0     		b	.L63
 1426              	.LVL57:
 1427              	.L92:
 1428              		.loc 1 633 5 view .LVU287
 1429 001a 10B9     		cbnz	r0, .L93
 1430 001c 0020     		movs	r0, #0
 1431              	.LVL58:
 1432              		.loc 1 633 5 view .LVU288
 1433 001e 0024     		movs	r4, #0
 1434 0020 39E0     		b	.L64
 1435              	.LVL59:
 1436              	.L93:
 1437              		.loc 1 633 5 view .LVU289
 1438 0022 0020     		movs	r0, #0
 1439              	.LVL60:
 1440              	.L65:
 634:Drivers/GD32E23x_standard_peripheral/Source/gd32e23x_rcu.c ****     case RCU_HXTAL:
 635:Drivers/GD32E23x_standard_peripheral/Source/gd32e23x_rcu.c ****          /* wait until HXTAL is stabilization and osci_stat is not more than timeout */
 636:Drivers/GD32E23x_standard_peripheral/Source/gd32e23x_rcu.c ****         while((RESET == osci_stat) && (HXTAL_STARTUP_TIMEOUT != stb_cnt)){
 637:Drivers/GD32E23x_standard_peripheral/Source/gd32e23x_rcu.c ****             osci_stat = rcu_flag_get(RCU_FLAG_HXTALSTB);
 638:Drivers/GD32E23x_standard_peripheral/Source/gd32e23x_rcu.c ****             stb_cnt++;
 639:Drivers/GD32E23x_standard_peripheral/Source/gd32e23x_rcu.c ****         }
 640:Drivers/GD32E23x_standard_peripheral/Source/gd32e23x_rcu.c ****         /* check whether flag is set or not */
 641:Drivers/GD32E23x_standard_peripheral/Source/gd32e23x_rcu.c ****         if(RESET != rcu_flag_get(RCU_FLAG_HXTALSTB)){
 642:Drivers/GD32E23x_standard_peripheral/Source/gd32e23x_rcu.c ****             reval = SUCCESS;
 643:Drivers/GD32E23x_standard_peripheral/Source/gd32e23x_rcu.c ****         }
 644:Drivers/GD32E23x_standard_peripheral/Source/gd32e23x_rcu.c ****         break;
 645:Drivers/GD32E23x_standard_peripheral/Source/gd32e23x_rcu.c ****         
 646:Drivers/GD32E23x_standard_peripheral/Source/gd32e23x_rcu.c ****     /* wait LXTAL stable */
 647:Drivers/GD32E23x_standard_peripheral/Source/gd32e23x_rcu.c ****     case RCU_LXTAL:
 648:Drivers/GD32E23x_standard_peripheral/Source/gd32e23x_rcu.c ****         while((RESET == osci_stat) && (LXTAL_STARTUP_TIMEOUT != stb_cnt)){
 649:Drivers/GD32E23x_standard_peripheral/Source/gd32e23x_rcu.c ****             osci_stat = rcu_flag_get(RCU_FLAG_LXTALSTB);
 650:Drivers/GD32E23x_standard_peripheral/Source/gd32e23x_rcu.c ****             stb_cnt++;
 651:Drivers/GD32E23x_standard_peripheral/Source/gd32e23x_rcu.c ****         }
 652:Drivers/GD32E23x_standard_peripheral/Source/gd32e23x_rcu.c ****         /* check whether flag is set or not */
 653:Drivers/GD32E23x_standard_peripheral/Source/gd32e23x_rcu.c ****         if(RESET != rcu_flag_get(RCU_FLAG_LXTALSTB)){
 654:Drivers/GD32E23x_standard_peripheral/Source/gd32e23x_rcu.c ****             reval = SUCCESS;
 655:Drivers/GD32E23x_standard_peripheral/Source/gd32e23x_rcu.c ****         }
 656:Drivers/GD32E23x_standard_peripheral/Source/gd32e23x_rcu.c ****         break;
 657:Drivers/GD32E23x_standard_peripheral/Source/gd32e23x_rcu.c **** 
 658:Drivers/GD32E23x_standard_peripheral/Source/gd32e23x_rcu.c ****     /* wait IRC8M stable */
 659:Drivers/GD32E23x_standard_peripheral/Source/gd32e23x_rcu.c ****     case RCU_IRC8M:
 660:Drivers/GD32E23x_standard_peripheral/Source/gd32e23x_rcu.c ****         while((RESET == osci_stat) && (IRC8M_STARTUP_TIMEOUT != stb_cnt)){
 661:Drivers/GD32E23x_standard_peripheral/Source/gd32e23x_rcu.c ****             osci_stat = rcu_flag_get(RCU_FLAG_IRC8MSTB);
 662:Drivers/GD32E23x_standard_peripheral/Source/gd32e23x_rcu.c ****             stb_cnt++;
 663:Drivers/GD32E23x_standard_peripheral/Source/gd32e23x_rcu.c ****         }
 664:Drivers/GD32E23x_standard_peripheral/Source/gd32e23x_rcu.c ****         /* check whether flag is set or not */
 665:Drivers/GD32E23x_standard_peripheral/Source/gd32e23x_rcu.c ****         if(RESET != rcu_flag_get(RCU_FLAG_IRC8MSTB)){
 666:Drivers/GD32E23x_standard_peripheral/Source/gd32e23x_rcu.c ****             reval = SUCCESS;
ARM GAS  /var/folders/rv/zq8s_02j1dj4vjvr1mm5zl2r0000gn/T//cc2hOtpo.s 			page 38


 667:Drivers/GD32E23x_standard_peripheral/Source/gd32e23x_rcu.c ****         }
 668:Drivers/GD32E23x_standard_peripheral/Source/gd32e23x_rcu.c ****         break;
 669:Drivers/GD32E23x_standard_peripheral/Source/gd32e23x_rcu.c **** 
 670:Drivers/GD32E23x_standard_peripheral/Source/gd32e23x_rcu.c ****     /* wait IRC28M stable */
 671:Drivers/GD32E23x_standard_peripheral/Source/gd32e23x_rcu.c ****     case RCU_IRC28M:
 672:Drivers/GD32E23x_standard_peripheral/Source/gd32e23x_rcu.c ****         while((RESET == osci_stat) && (OSC_STARTUP_TIMEOUT != stb_cnt)){
 673:Drivers/GD32E23x_standard_peripheral/Source/gd32e23x_rcu.c ****             osci_stat = rcu_flag_get(RCU_FLAG_IRC28MSTB);
 674:Drivers/GD32E23x_standard_peripheral/Source/gd32e23x_rcu.c ****             stb_cnt++;
 675:Drivers/GD32E23x_standard_peripheral/Source/gd32e23x_rcu.c ****         }
 676:Drivers/GD32E23x_standard_peripheral/Source/gd32e23x_rcu.c ****         /* check whether flag is set or not */
 677:Drivers/GD32E23x_standard_peripheral/Source/gd32e23x_rcu.c ****         if(RESET != rcu_flag_get(RCU_FLAG_IRC28MSTB)){
 678:Drivers/GD32E23x_standard_peripheral/Source/gd32e23x_rcu.c ****             reval = SUCCESS;
 679:Drivers/GD32E23x_standard_peripheral/Source/gd32e23x_rcu.c ****         }
 680:Drivers/GD32E23x_standard_peripheral/Source/gd32e23x_rcu.c ****         break;
 681:Drivers/GD32E23x_standard_peripheral/Source/gd32e23x_rcu.c ****         
 682:Drivers/GD32E23x_standard_peripheral/Source/gd32e23x_rcu.c ****     /* wait IRC40K stable */
 683:Drivers/GD32E23x_standard_peripheral/Source/gd32e23x_rcu.c ****     case RCU_IRC40K:
 684:Drivers/GD32E23x_standard_peripheral/Source/gd32e23x_rcu.c ****         while((RESET == osci_stat) && (OSC_STARTUP_TIMEOUT != stb_cnt)){
 685:Drivers/GD32E23x_standard_peripheral/Source/gd32e23x_rcu.c ****             osci_stat = rcu_flag_get(RCU_FLAG_IRC40KSTB);
 686:Drivers/GD32E23x_standard_peripheral/Source/gd32e23x_rcu.c ****             stb_cnt++;
 687:Drivers/GD32E23x_standard_peripheral/Source/gd32e23x_rcu.c ****         }
 688:Drivers/GD32E23x_standard_peripheral/Source/gd32e23x_rcu.c ****         /* check whether flag is set or not */
 689:Drivers/GD32E23x_standard_peripheral/Source/gd32e23x_rcu.c ****         if(RESET != rcu_flag_get(RCU_FLAG_IRC40KSTB)){
 690:Drivers/GD32E23x_standard_peripheral/Source/gd32e23x_rcu.c ****             reval = SUCCESS;
 691:Drivers/GD32E23x_standard_peripheral/Source/gd32e23x_rcu.c ****         }
 692:Drivers/GD32E23x_standard_peripheral/Source/gd32e23x_rcu.c ****         break;
 693:Drivers/GD32E23x_standard_peripheral/Source/gd32e23x_rcu.c **** 
 694:Drivers/GD32E23x_standard_peripheral/Source/gd32e23x_rcu.c ****     /* wait PLL stable */
 695:Drivers/GD32E23x_standard_peripheral/Source/gd32e23x_rcu.c ****     case RCU_PLL_CK:
 696:Drivers/GD32E23x_standard_peripheral/Source/gd32e23x_rcu.c ****         while((RESET == osci_stat) && (OSC_STARTUP_TIMEOUT != stb_cnt)){
 697:Drivers/GD32E23x_standard_peripheral/Source/gd32e23x_rcu.c ****             osci_stat = rcu_flag_get(RCU_FLAG_PLLSTB);
 698:Drivers/GD32E23x_standard_peripheral/Source/gd32e23x_rcu.c ****             stb_cnt++;
 699:Drivers/GD32E23x_standard_peripheral/Source/gd32e23x_rcu.c ****         }
 700:Drivers/GD32E23x_standard_peripheral/Source/gd32e23x_rcu.c ****         /* check whether flag is set or not */
 701:Drivers/GD32E23x_standard_peripheral/Source/gd32e23x_rcu.c ****         if(RESET != rcu_flag_get(RCU_FLAG_PLLSTB)){
 702:Drivers/GD32E23x_standard_peripheral/Source/gd32e23x_rcu.c ****             reval = SUCCESS;
 703:Drivers/GD32E23x_standard_peripheral/Source/gd32e23x_rcu.c ****         }
 704:Drivers/GD32E23x_standard_peripheral/Source/gd32e23x_rcu.c ****         break;
 705:Drivers/GD32E23x_standard_peripheral/Source/gd32e23x_rcu.c ****    
 706:Drivers/GD32E23x_standard_peripheral/Source/gd32e23x_rcu.c ****     default:
 707:Drivers/GD32E23x_standard_peripheral/Source/gd32e23x_rcu.c ****         break;
 708:Drivers/GD32E23x_standard_peripheral/Source/gd32e23x_rcu.c ****     }
 709:Drivers/GD32E23x_standard_peripheral/Source/gd32e23x_rcu.c ****     /* return value */
 710:Drivers/GD32E23x_standard_peripheral/Source/gd32e23x_rcu.c ****     return reval;
 1441              		.loc 1 710 5 is_stmt 1 view .LVU290
 711:Drivers/GD32E23x_standard_peripheral/Source/gd32e23x_rcu.c **** }
 1442              		.loc 1 711 1 is_stmt 0 view .LVU291
 1443              		@ sp needed
 1444 0024 10BD     		pop	{r4, pc}
 1445              	.LVL61:
 1446              	.L61:
 633:Drivers/GD32E23x_standard_peripheral/Source/gd32e23x_rcu.c ****     switch(osci){
 1447              		.loc 1 633 5 view .LVU292
 1448 0026 40F60013 		movw	r3, #2304
 1449 002a 9842     		cmp	r0, r3
 1450 002c 68D0     		beq	.L84
 1451 002e 40F60053 		movw	r3, #3328
ARM GAS  /var/folders/rv/zq8s_02j1dj4vjvr1mm5zl2r0000gn/T//cc2hOtpo.s 			page 39


 1452 0032 9842     		cmp	r0, r3
 1453 0034 02D1     		bne	.L94
 1454 0036 0020     		movs	r0, #0
 1455              	.LVL62:
 633:Drivers/GD32E23x_standard_peripheral/Source/gd32e23x_rcu.c ****     switch(osci){
 1456              		.loc 1 633 5 view .LVU293
 1457 0038 0024     		movs	r4, #0
 1458 003a 3DE0     		b	.L67
 1459              	.LVL63:
 1460              	.L94:
 633:Drivers/GD32E23x_standard_peripheral/Source/gd32e23x_rcu.c ****     switch(osci){
 1461              		.loc 1 633 5 view .LVU294
 1462 003c 0020     		movs	r0, #0
 1463              	.LVL64:
 633:Drivers/GD32E23x_standard_peripheral/Source/gd32e23x_rcu.c ****     switch(osci){
 1464              		.loc 1 633 5 view .LVU295
 1465 003e F1E7     		b	.L65
 1466              	.LVL65:
 1467              	.L69:
 637:Drivers/GD32E23x_standard_peripheral/Source/gd32e23x_rcu.c ****             stb_cnt++;
 1468              		.loc 1 637 13 is_stmt 1 view .LVU296
 637:Drivers/GD32E23x_standard_peripheral/Source/gd32e23x_rcu.c ****             stb_cnt++;
 1469              		.loc 1 637 25 is_stmt 0 view .LVU297
 1470 0040 1120     		movs	r0, #17
 1471              	.LVL66:
 637:Drivers/GD32E23x_standard_peripheral/Source/gd32e23x_rcu.c ****             stb_cnt++;
 1472              		.loc 1 637 25 view .LVU298
 1473 0042 FFF7FEFF 		bl	rcu_flag_get
 1474              	.LVL67:
 638:Drivers/GD32E23x_standard_peripheral/Source/gd32e23x_rcu.c ****         }
 1475              		.loc 1 638 13 is_stmt 1 view .LVU299
 638:Drivers/GD32E23x_standard_peripheral/Source/gd32e23x_rcu.c ****         }
 1476              		.loc 1 638 20 is_stmt 0 view .LVU300
 1477 0046 0134     		adds	r4, r4, #1
 1478              	.LVL68:
 1479              	.L62:
 636:Drivers/GD32E23x_standard_peripheral/Source/gd32e23x_rcu.c ****             osci_stat = rcu_flag_get(RCU_FLAG_HXTALSTB);
 1480              		.loc 1 636 14 is_stmt 1 view .LVU301
 1481 0048 18B9     		cbnz	r0, .L68
 636:Drivers/GD32E23x_standard_peripheral/Source/gd32e23x_rcu.c ****             osci_stat = rcu_flag_get(RCU_FLAG_HXTALSTB);
 1482              		.loc 1 636 36 is_stmt 0 discriminator 1 view .LVU302
 1483 004a 4FF6FF73 		movw	r3, #65535
 1484 004e 9C42     		cmp	r4, r3
 1485 0050 F6D1     		bne	.L69
 1486              	.L68:
 641:Drivers/GD32E23x_standard_peripheral/Source/gd32e23x_rcu.c ****             reval = SUCCESS;
 1487              		.loc 1 641 9 is_stmt 1 view .LVU303
 641:Drivers/GD32E23x_standard_peripheral/Source/gd32e23x_rcu.c ****             reval = SUCCESS;
 1488              		.loc 1 641 21 is_stmt 0 view .LVU304
 1489 0052 1120     		movs	r0, #17
 1490              	.LVL69:
 641:Drivers/GD32E23x_standard_peripheral/Source/gd32e23x_rcu.c ****             reval = SUCCESS;
 1491              		.loc 1 641 21 view .LVU305
 1492 0054 FFF7FEFF 		bl	rcu_flag_get
 1493              	.LVL70:
 641:Drivers/GD32E23x_standard_peripheral/Source/gd32e23x_rcu.c ****             reval = SUCCESS;
 1494              		.loc 1 641 11 view .LVU306
ARM GAS  /var/folders/rv/zq8s_02j1dj4vjvr1mm5zl2r0000gn/T//cc2hOtpo.s 			page 40


 1495 0058 0028     		cmp	r0, #0
 1496 005a E3D0     		beq	.L65
 642:Drivers/GD32E23x_standard_peripheral/Source/gd32e23x_rcu.c ****         }
 1497              		.loc 1 642 19 view .LVU307
 1498 005c 0120     		movs	r0, #1
 1499 005e E1E7     		b	.L65
 1500              	.LVL71:
 1501              	.L81:
 633:Drivers/GD32E23x_standard_peripheral/Source/gd32e23x_rcu.c ****     case RCU_HXTAL:
 1502              		.loc 1 633 5 view .LVU308
 1503 0060 0020     		movs	r0, #0
 1504              	.LVL72:
 633:Drivers/GD32E23x_standard_peripheral/Source/gd32e23x_rcu.c ****     case RCU_HXTAL:
 1505              		.loc 1 633 5 view .LVU309
 1506 0062 0024     		movs	r4, #0
 1507 0064 F0E7     		b	.L62
 1508              	.LVL73:
 1509              	.L71:
 649:Drivers/GD32E23x_standard_peripheral/Source/gd32e23x_rcu.c ****             stb_cnt++;
 1510              		.loc 1 649 13 is_stmt 1 view .LVU310
 649:Drivers/GD32E23x_standard_peripheral/Source/gd32e23x_rcu.c ****             stb_cnt++;
 1511              		.loc 1 649 25 is_stmt 0 view .LVU311
 1512 0066 40F60100 		movw	r0, #2049
 1513              	.LVL74:
 649:Drivers/GD32E23x_standard_peripheral/Source/gd32e23x_rcu.c ****             stb_cnt++;
 1514              		.loc 1 649 25 view .LVU312
 1515 006a FFF7FEFF 		bl	rcu_flag_get
 1516              	.LVL75:
 650:Drivers/GD32E23x_standard_peripheral/Source/gd32e23x_rcu.c ****         }
 1517              		.loc 1 650 13 is_stmt 1 view .LVU313
 650:Drivers/GD32E23x_standard_peripheral/Source/gd32e23x_rcu.c ****         }
 1518              		.loc 1 650 20 is_stmt 0 view .LVU314
 1519 006e 0134     		adds	r4, r4, #1
 1520              	.LVL76:
 1521              	.L60:
 648:Drivers/GD32E23x_standard_peripheral/Source/gd32e23x_rcu.c ****             osci_stat = rcu_flag_get(RCU_FLAG_LXTALSTB);
 1522              		.loc 1 648 14 is_stmt 1 view .LVU315
 1523 0070 10B9     		cbnz	r0, .L70
 648:Drivers/GD32E23x_standard_peripheral/Source/gd32e23x_rcu.c ****             osci_stat = rcu_flag_get(RCU_FLAG_LXTALSTB);
 1524              		.loc 1 648 36 is_stmt 0 discriminator 1 view .LVU316
 1525 0072 2E4B     		ldr	r3, .L95
 1526 0074 9C42     		cmp	r4, r3
 1527 0076 F6D1     		bne	.L71
 1528              	.L70:
 653:Drivers/GD32E23x_standard_peripheral/Source/gd32e23x_rcu.c ****             reval = SUCCESS;
 1529              		.loc 1 653 9 is_stmt 1 view .LVU317
 653:Drivers/GD32E23x_standard_peripheral/Source/gd32e23x_rcu.c ****             reval = SUCCESS;
 1530              		.loc 1 653 21 is_stmt 0 view .LVU318
 1531 0078 40F60100 		movw	r0, #2049
 1532              	.LVL77:
 653:Drivers/GD32E23x_standard_peripheral/Source/gd32e23x_rcu.c ****             reval = SUCCESS;
 1533              		.loc 1 653 21 view .LVU319
 1534 007c FFF7FEFF 		bl	rcu_flag_get
 1535              	.LVL78:
 653:Drivers/GD32E23x_standard_peripheral/Source/gd32e23x_rcu.c ****             reval = SUCCESS;
 1536              		.loc 1 653 11 view .LVU320
 1537 0080 0028     		cmp	r0, #0
ARM GAS  /var/folders/rv/zq8s_02j1dj4vjvr1mm5zl2r0000gn/T//cc2hOtpo.s 			page 41


 1538 0082 CFD0     		beq	.L65
 654:Drivers/GD32E23x_standard_peripheral/Source/gd32e23x_rcu.c ****         }
 1539              		.loc 1 654 19 view .LVU321
 1540 0084 0120     		movs	r0, #1
 1541 0086 CDE7     		b	.L65
 1542              	.LVL79:
 1543              	.L80:
 633:Drivers/GD32E23x_standard_peripheral/Source/gd32e23x_rcu.c ****     case RCU_HXTAL:
 1544              		.loc 1 633 5 view .LVU322
 1545 0088 0020     		movs	r0, #0
 1546              	.LVL80:
 633:Drivers/GD32E23x_standard_peripheral/Source/gd32e23x_rcu.c ****     case RCU_HXTAL:
 1547              		.loc 1 633 5 view .LVU323
 1548 008a 0024     		movs	r4, #0
 1549 008c F0E7     		b	.L60
 1550              	.LVL81:
 1551              	.L73:
 661:Drivers/GD32E23x_standard_peripheral/Source/gd32e23x_rcu.c ****             stb_cnt++;
 1552              		.loc 1 661 13 is_stmt 1 view .LVU324
 661:Drivers/GD32E23x_standard_peripheral/Source/gd32e23x_rcu.c ****             stb_cnt++;
 1553              		.loc 1 661 25 is_stmt 0 view .LVU325
 1554 008e 0120     		movs	r0, #1
 1555              	.LVL82:
 661:Drivers/GD32E23x_standard_peripheral/Source/gd32e23x_rcu.c ****             stb_cnt++;
 1556              		.loc 1 661 25 view .LVU326
 1557 0090 FFF7FEFF 		bl	rcu_flag_get
 1558              	.LVL83:
 662:Drivers/GD32E23x_standard_peripheral/Source/gd32e23x_rcu.c ****         }
 1559              		.loc 1 662 13 is_stmt 1 view .LVU327
 662:Drivers/GD32E23x_standard_peripheral/Source/gd32e23x_rcu.c ****         }
 1560              		.loc 1 662 20 is_stmt 0 view .LVU328
 1561 0094 0134     		adds	r4, r4, #1
 1562              	.LVL84:
 1563              	.L64:
 660:Drivers/GD32E23x_standard_peripheral/Source/gd32e23x_rcu.c ****             osci_stat = rcu_flag_get(RCU_FLAG_IRC8MSTB);
 1564              		.loc 1 660 14 is_stmt 1 view .LVU329
 1565 0096 18B9     		cbnz	r0, .L72
 660:Drivers/GD32E23x_standard_peripheral/Source/gd32e23x_rcu.c ****             osci_stat = rcu_flag_get(RCU_FLAG_IRC8MSTB);
 1566              		.loc 1 660 36 is_stmt 0 discriminator 1 view .LVU330
 1567 0098 40F20053 		movw	r3, #1280
 1568 009c 9C42     		cmp	r4, r3
 1569 009e F6D1     		bne	.L73
 1570              	.L72:
 665:Drivers/GD32E23x_standard_peripheral/Source/gd32e23x_rcu.c ****             reval = SUCCESS;
 1571              		.loc 1 665 9 is_stmt 1 view .LVU331
 665:Drivers/GD32E23x_standard_peripheral/Source/gd32e23x_rcu.c ****             reval = SUCCESS;
 1572              		.loc 1 665 21 is_stmt 0 view .LVU332
 1573 00a0 0120     		movs	r0, #1
 1574              	.LVL85:
 665:Drivers/GD32E23x_standard_peripheral/Source/gd32e23x_rcu.c ****             reval = SUCCESS;
 1575              		.loc 1 665 21 view .LVU333
 1576 00a2 FFF7FEFF 		bl	rcu_flag_get
 1577              	.LVL86:
 665:Drivers/GD32E23x_standard_peripheral/Source/gd32e23x_rcu.c ****             reval = SUCCESS;
 1578              		.loc 1 665 11 view .LVU334
 1579 00a6 0028     		cmp	r0, #0
 1580 00a8 BCD0     		beq	.L65
ARM GAS  /var/folders/rv/zq8s_02j1dj4vjvr1mm5zl2r0000gn/T//cc2hOtpo.s 			page 42


 666:Drivers/GD32E23x_standard_peripheral/Source/gd32e23x_rcu.c ****         }
 1581              		.loc 1 666 19 view .LVU335
 1582 00aa 0120     		movs	r0, #1
 1583 00ac BAE7     		b	.L65
 1584              	.LVL87:
 1585              	.L75:
 673:Drivers/GD32E23x_standard_peripheral/Source/gd32e23x_rcu.c ****             stb_cnt++;
 1586              		.loc 1 673 13 is_stmt 1 view .LVU336
 673:Drivers/GD32E23x_standard_peripheral/Source/gd32e23x_rcu.c ****             stb_cnt++;
 1587              		.loc 1 673 25 is_stmt 0 view .LVU337
 1588 00ae 40F60150 		movw	r0, #3329
 1589              	.LVL88:
 673:Drivers/GD32E23x_standard_peripheral/Source/gd32e23x_rcu.c ****             stb_cnt++;
 1590              		.loc 1 673 25 view .LVU338
 1591 00b2 FFF7FEFF 		bl	rcu_flag_get
 1592              	.LVL89:
 674:Drivers/GD32E23x_standard_peripheral/Source/gd32e23x_rcu.c ****         }
 1593              		.loc 1 674 13 is_stmt 1 view .LVU339
 674:Drivers/GD32E23x_standard_peripheral/Source/gd32e23x_rcu.c ****         }
 1594              		.loc 1 674 20 is_stmt 0 view .LVU340
 1595 00b6 0134     		adds	r4, r4, #1
 1596              	.LVL90:
 1597              	.L67:
 672:Drivers/GD32E23x_standard_peripheral/Source/gd32e23x_rcu.c ****             osci_stat = rcu_flag_get(RCU_FLAG_IRC28MSTB);
 1598              		.loc 1 672 14 is_stmt 1 view .LVU341
 1599 00b8 28B9     		cbnz	r0, .L74
 672:Drivers/GD32E23x_standard_peripheral/Source/gd32e23x_rcu.c ****             osci_stat = rcu_flag_get(RCU_FLAG_IRC28MSTB);
 1600              		.loc 1 672 36 is_stmt 0 discriminator 1 view .LVU342
 1601 00ba 4FF6FF73 		movw	r3, #65535
 1602 00be C0F20F03 		movt	r3, 15
 1603 00c2 9C42     		cmp	r4, r3
 1604 00c4 F3D1     		bne	.L75
 1605              	.L74:
 677:Drivers/GD32E23x_standard_peripheral/Source/gd32e23x_rcu.c ****             reval = SUCCESS;
 1606              		.loc 1 677 9 is_stmt 1 view .LVU343
 677:Drivers/GD32E23x_standard_peripheral/Source/gd32e23x_rcu.c ****             reval = SUCCESS;
 1607              		.loc 1 677 21 is_stmt 0 view .LVU344
 1608 00c6 40F60150 		movw	r0, #3329
 1609              	.LVL91:
 677:Drivers/GD32E23x_standard_peripheral/Source/gd32e23x_rcu.c ****             reval = SUCCESS;
 1610              		.loc 1 677 21 view .LVU345
 1611 00ca FFF7FEFF 		bl	rcu_flag_get
 1612              	.LVL92:
 677:Drivers/GD32E23x_standard_peripheral/Source/gd32e23x_rcu.c ****             reval = SUCCESS;
 1613              		.loc 1 677 11 view .LVU346
 1614 00ce 0028     		cmp	r0, #0
 1615 00d0 A8D0     		beq	.L65
 678:Drivers/GD32E23x_standard_peripheral/Source/gd32e23x_rcu.c ****         }
 1616              		.loc 1 678 19 view .LVU347
 1617 00d2 0120     		movs	r0, #1
 1618 00d4 A6E7     		b	.L65
 1619              	.LVL93:
 1620              	.L77:
 685:Drivers/GD32E23x_standard_peripheral/Source/gd32e23x_rcu.c ****             stb_cnt++;
 1621              		.loc 1 685 13 is_stmt 1 view .LVU348
 685:Drivers/GD32E23x_standard_peripheral/Source/gd32e23x_rcu.c ****             stb_cnt++;
 1622              		.loc 1 685 25 is_stmt 0 view .LVU349
ARM GAS  /var/folders/rv/zq8s_02j1dj4vjvr1mm5zl2r0000gn/T//cc2hOtpo.s 			page 43


 1623 00d6 40F60110 		movw	r0, #2305
 1624              	.LVL94:
 685:Drivers/GD32E23x_standard_peripheral/Source/gd32e23x_rcu.c ****             stb_cnt++;
 1625              		.loc 1 685 25 view .LVU350
 1626 00da FFF7FEFF 		bl	rcu_flag_get
 1627              	.LVL95:
 686:Drivers/GD32E23x_standard_peripheral/Source/gd32e23x_rcu.c ****         }
 1628              		.loc 1 686 13 is_stmt 1 view .LVU351
 686:Drivers/GD32E23x_standard_peripheral/Source/gd32e23x_rcu.c ****         }
 1629              		.loc 1 686 20 is_stmt 0 view .LVU352
 1630 00de 0134     		adds	r4, r4, #1
 1631              	.LVL96:
 1632              	.L66:
 684:Drivers/GD32E23x_standard_peripheral/Source/gd32e23x_rcu.c ****             osci_stat = rcu_flag_get(RCU_FLAG_IRC40KSTB);
 1633              		.loc 1 684 14 is_stmt 1 view .LVU353
 1634 00e0 28B9     		cbnz	r0, .L76
 684:Drivers/GD32E23x_standard_peripheral/Source/gd32e23x_rcu.c ****             osci_stat = rcu_flag_get(RCU_FLAG_IRC40KSTB);
 1635              		.loc 1 684 36 is_stmt 0 discriminator 1 view .LVU354
 1636 00e2 4FF6FF73 		movw	r3, #65535
 1637 00e6 C0F20F03 		movt	r3, 15
 1638 00ea 9C42     		cmp	r4, r3
 1639 00ec F3D1     		bne	.L77
 1640              	.L76:
 689:Drivers/GD32E23x_standard_peripheral/Source/gd32e23x_rcu.c ****             reval = SUCCESS;
 1641              		.loc 1 689 9 is_stmt 1 view .LVU355
 689:Drivers/GD32E23x_standard_peripheral/Source/gd32e23x_rcu.c ****             reval = SUCCESS;
 1642              		.loc 1 689 21 is_stmt 0 view .LVU356
 1643 00ee 40F60110 		movw	r0, #2305
 1644              	.LVL97:
 689:Drivers/GD32E23x_standard_peripheral/Source/gd32e23x_rcu.c ****             reval = SUCCESS;
 1645              		.loc 1 689 21 view .LVU357
 1646 00f2 FFF7FEFF 		bl	rcu_flag_get
 1647              	.LVL98:
 689:Drivers/GD32E23x_standard_peripheral/Source/gd32e23x_rcu.c ****             reval = SUCCESS;
 1648              		.loc 1 689 11 view .LVU358
 1649 00f6 0028     		cmp	r0, #0
 1650 00f8 00D193E7 		bne	.LCB1347;b	.L65	@long jump
 1651              	.LCB1347:
 690:Drivers/GD32E23x_standard_peripheral/Source/gd32e23x_rcu.c ****         }
 1652              		.loc 1 690 19 view .LVU359
 1653 00fc 0120     		movs	r0, #1
 1654 00fe 91E7     		b	.L65
 1655              	.LVL99:
 1656              	.L84:
 633:Drivers/GD32E23x_standard_peripheral/Source/gd32e23x_rcu.c ****     case RCU_HXTAL:
 1657              		.loc 1 633 5 view .LVU360
 1658 0100 0020     		movs	r0, #0
 1659              	.LVL100:
 633:Drivers/GD32E23x_standard_peripheral/Source/gd32e23x_rcu.c ****     case RCU_HXTAL:
 1660              		.loc 1 633 5 view .LVU361
 1661 0102 0024     		movs	r4, #0
 1662 0104 ECE7     		b	.L66
 1663              	.LVL101:
 1664              	.L79:
 697:Drivers/GD32E23x_standard_peripheral/Source/gd32e23x_rcu.c ****             stb_cnt++;
 1665              		.loc 1 697 13 is_stmt 1 view .LVU362
 697:Drivers/GD32E23x_standard_peripheral/Source/gd32e23x_rcu.c ****             stb_cnt++;
ARM GAS  /var/folders/rv/zq8s_02j1dj4vjvr1mm5zl2r0000gn/T//cc2hOtpo.s 			page 44


 1666              		.loc 1 697 25 is_stmt 0 view .LVU363
 1667 0106 1920     		movs	r0, #25
 1668              	.LVL102:
 697:Drivers/GD32E23x_standard_peripheral/Source/gd32e23x_rcu.c ****             stb_cnt++;
 1669              		.loc 1 697 25 view .LVU364
 1670 0108 FFF7FEFF 		bl	rcu_flag_get
 1671              	.LVL103:
 698:Drivers/GD32E23x_standard_peripheral/Source/gd32e23x_rcu.c ****         }
 1672              		.loc 1 698 13 is_stmt 1 view .LVU365
 698:Drivers/GD32E23x_standard_peripheral/Source/gd32e23x_rcu.c ****         }
 1673              		.loc 1 698 20 is_stmt 0 view .LVU366
 1674 010c 0134     		adds	r4, r4, #1
 1675              	.LVL104:
 1676              	.L63:
 696:Drivers/GD32E23x_standard_peripheral/Source/gd32e23x_rcu.c ****             osci_stat = rcu_flag_get(RCU_FLAG_PLLSTB);
 1677              		.loc 1 696 14 is_stmt 1 view .LVU367
 1678 010e 28B9     		cbnz	r0, .L78
 696:Drivers/GD32E23x_standard_peripheral/Source/gd32e23x_rcu.c ****             osci_stat = rcu_flag_get(RCU_FLAG_PLLSTB);
 1679              		.loc 1 696 36 is_stmt 0 discriminator 1 view .LVU368
 1680 0110 4FF6FF73 		movw	r3, #65535
 1681 0114 C0F20F03 		movt	r3, 15
 1682 0118 9C42     		cmp	r4, r3
 1683 011a F4D1     		bne	.L79
 1684              	.L78:
 701:Drivers/GD32E23x_standard_peripheral/Source/gd32e23x_rcu.c ****             reval = SUCCESS;
 1685              		.loc 1 701 9 is_stmt 1 view .LVU369
 701:Drivers/GD32E23x_standard_peripheral/Source/gd32e23x_rcu.c ****             reval = SUCCESS;
 1686              		.loc 1 701 21 is_stmt 0 view .LVU370
 1687 011c 1920     		movs	r0, #25
 1688              	.LVL105:
 701:Drivers/GD32E23x_standard_peripheral/Source/gd32e23x_rcu.c ****             reval = SUCCESS;
 1689              		.loc 1 701 21 view .LVU371
 1690 011e FFF7FEFF 		bl	rcu_flag_get
 1691              	.LVL106:
 701:Drivers/GD32E23x_standard_peripheral/Source/gd32e23x_rcu.c ****             reval = SUCCESS;
 1692              		.loc 1 701 11 view .LVU372
 1693 0122 0028     		cmp	r0, #0
 1694 0124 00D17DE7 		bne	.LCB1395;b	.L65	@long jump
 1695              	.LCB1395:
 702:Drivers/GD32E23x_standard_peripheral/Source/gd32e23x_rcu.c ****         }
 1696              		.loc 1 702 19 view .LVU373
 1697 0128 0120     		movs	r0, #1
 1698 012a 7BE7     		b	.L65
 1699              	.L96:
 1700              		.align	2
 1701              	.L95:
 1702 012c FFFFFF03 		.word	67108863
 1703              		.cfi_endproc
 1704              	.LFE93:
 1706              		.section	.text.rcu_osci_on,"ax",%progbits
 1707              		.align	1
 1708              		.global	rcu_osci_on
 1709              		.syntax unified
 1710              		.code	16
 1711              		.thumb_func
 1712              		.fpu softvfp
 1714              	rcu_osci_on:
ARM GAS  /var/folders/rv/zq8s_02j1dj4vjvr1mm5zl2r0000gn/T//cc2hOtpo.s 			page 45


 1715              	.LVL107:
 1716              	.LFB94:
 712:Drivers/GD32E23x_standard_peripheral/Source/gd32e23x_rcu.c **** 
 713:Drivers/GD32E23x_standard_peripheral/Source/gd32e23x_rcu.c **** /*!
 714:Drivers/GD32E23x_standard_peripheral/Source/gd32e23x_rcu.c ****     \brief      turn on the oscillator
 715:Drivers/GD32E23x_standard_peripheral/Source/gd32e23x_rcu.c ****     \param[in]  osci: oscillator types, refer to rcu_osci_type_enum
 716:Drivers/GD32E23x_standard_peripheral/Source/gd32e23x_rcu.c ****                 only one parameter can be selected which is shown as below:
 717:Drivers/GD32E23x_standard_peripheral/Source/gd32e23x_rcu.c ****       \arg        RCU_HXTAL: HXTAL
 718:Drivers/GD32E23x_standard_peripheral/Source/gd32e23x_rcu.c ****       \arg        RCU_LXTAL: LXTAL
 719:Drivers/GD32E23x_standard_peripheral/Source/gd32e23x_rcu.c ****       \arg        RCU_IRC8M: IRC8M
 720:Drivers/GD32E23x_standard_peripheral/Source/gd32e23x_rcu.c ****       \arg        RCU_IRC28M: IRC28M
 721:Drivers/GD32E23x_standard_peripheral/Source/gd32e23x_rcu.c ****       \arg        RCU_IRC40K: IRC40K
 722:Drivers/GD32E23x_standard_peripheral/Source/gd32e23x_rcu.c ****       \arg        RCU_PLL_CK: PLL
 723:Drivers/GD32E23x_standard_peripheral/Source/gd32e23x_rcu.c ****     \param[out] none
 724:Drivers/GD32E23x_standard_peripheral/Source/gd32e23x_rcu.c ****     \retval     none
 725:Drivers/GD32E23x_standard_peripheral/Source/gd32e23x_rcu.c **** */
 726:Drivers/GD32E23x_standard_peripheral/Source/gd32e23x_rcu.c **** void rcu_osci_on(rcu_osci_type_enum osci)
 727:Drivers/GD32E23x_standard_peripheral/Source/gd32e23x_rcu.c **** {
 1717              		.loc 1 727 1 is_stmt 1 view -0
 1718              		.cfi_startproc
 1719              		@ args = 0, pretend = 0, frame = 0
 1720              		@ frame_needed = 0, uses_anonymous_args = 0
 1721              		@ link register save eliminated.
 728:Drivers/GD32E23x_standard_peripheral/Source/gd32e23x_rcu.c ****     RCU_REG_VAL(osci) |= BIT(RCU_BIT_POS(osci));
 1722              		.loc 1 728 5 view .LVU375
 1723              		.loc 1 728 23 is_stmt 0 view .LVU376
 1724 0000 8309     		lsrs	r3, r0, #6
 1725 0002 41F2000C 		movw	ip, #4096
 1726 0006 C4F2020C 		movt	ip, 16386
 1727 000a 6344     		add	r3, r3, ip
 1728 000c 1A68     		ldr	r2, [r3]
 1729              		.loc 1 728 26 view .LVU377
 1730 000e 1F21     		movs	r1, #31
 1731 0010 0840     		ands	r0, r1
 1732              	.LVL108:
 1733              		.loc 1 728 26 view .LVU378
 1734 0012 1E39     		subs	r1, r1, #30
 1735 0014 8140     		lsls	r1, r1, r0
 1736              		.loc 1 728 23 view .LVU379
 1737 0016 0A43     		orrs	r2, r1
 1738 0018 1A60     		str	r2, [r3]
 729:Drivers/GD32E23x_standard_peripheral/Source/gd32e23x_rcu.c **** }
 1739              		.loc 1 729 1 view .LVU380
 1740              		@ sp needed
 1741 001a 7047     		bx	lr
 1742              		.cfi_endproc
 1743              	.LFE94:
 1745              		.section	.text.rcu_osci_off,"ax",%progbits
 1746              		.align	1
 1747              		.global	rcu_osci_off
 1748              		.syntax unified
 1749              		.code	16
 1750              		.thumb_func
 1751              		.fpu softvfp
 1753              	rcu_osci_off:
 1754              	.LVL109:
 1755              	.LFB95:
ARM GAS  /var/folders/rv/zq8s_02j1dj4vjvr1mm5zl2r0000gn/T//cc2hOtpo.s 			page 46


 730:Drivers/GD32E23x_standard_peripheral/Source/gd32e23x_rcu.c **** 
 731:Drivers/GD32E23x_standard_peripheral/Source/gd32e23x_rcu.c **** /*!
 732:Drivers/GD32E23x_standard_peripheral/Source/gd32e23x_rcu.c ****     \brief      turn off the oscillator
 733:Drivers/GD32E23x_standard_peripheral/Source/gd32e23x_rcu.c ****     \param[in]  osci: oscillator types, refer to rcu_osci_type_enum
 734:Drivers/GD32E23x_standard_peripheral/Source/gd32e23x_rcu.c ****                 only one parameter can be selected which is shown as below:
 735:Drivers/GD32E23x_standard_peripheral/Source/gd32e23x_rcu.c ****       \arg        RCU_HXTAL: HXTAL
 736:Drivers/GD32E23x_standard_peripheral/Source/gd32e23x_rcu.c ****       \arg        RCU_LXTAL: LXTAL
 737:Drivers/GD32E23x_standard_peripheral/Source/gd32e23x_rcu.c ****       \arg        RCU_IRC8M: IRC8M
 738:Drivers/GD32E23x_standard_peripheral/Source/gd32e23x_rcu.c ****       \arg        RCU_IRC28M: IRC28M
 739:Drivers/GD32E23x_standard_peripheral/Source/gd32e23x_rcu.c ****       \arg        RCU_IRC40K: IRC40K
 740:Drivers/GD32E23x_standard_peripheral/Source/gd32e23x_rcu.c ****       \arg        RCU_PLL_CK: PLL
 741:Drivers/GD32E23x_standard_peripheral/Source/gd32e23x_rcu.c ****     \param[out] none
 742:Drivers/GD32E23x_standard_peripheral/Source/gd32e23x_rcu.c ****     \retval     none
 743:Drivers/GD32E23x_standard_peripheral/Source/gd32e23x_rcu.c **** */
 744:Drivers/GD32E23x_standard_peripheral/Source/gd32e23x_rcu.c **** void rcu_osci_off(rcu_osci_type_enum osci)
 745:Drivers/GD32E23x_standard_peripheral/Source/gd32e23x_rcu.c **** {
 1756              		.loc 1 745 1 is_stmt 1 view -0
 1757              		.cfi_startproc
 1758              		@ args = 0, pretend = 0, frame = 0
 1759              		@ frame_needed = 0, uses_anonymous_args = 0
 1760              		@ link register save eliminated.
 746:Drivers/GD32E23x_standard_peripheral/Source/gd32e23x_rcu.c ****     RCU_REG_VAL(osci) &= ~BIT(RCU_BIT_POS(osci));
 1761              		.loc 1 746 5 view .LVU382
 1762              		.loc 1 746 23 is_stmt 0 view .LVU383
 1763 0000 8309     		lsrs	r3, r0, #6
 1764 0002 41F2000C 		movw	ip, #4096
 1765 0006 C4F2020C 		movt	ip, 16386
 1766 000a 6344     		add	r3, r3, ip
 1767 000c 1A68     		ldr	r2, [r3]
 1768              		.loc 1 746 27 view .LVU384
 1769 000e 1F21     		movs	r1, #31
 1770 0010 0840     		ands	r0, r1
 1771              	.LVL110:
 1772              		.loc 1 746 27 view .LVU385
 1773 0012 1E39     		subs	r1, r1, #30
 1774 0014 8140     		lsls	r1, r1, r0
 1775              		.loc 1 746 23 view .LVU386
 1776 0016 8A43     		bics	r2, r1
 1777 0018 1A60     		str	r2, [r3]
 747:Drivers/GD32E23x_standard_peripheral/Source/gd32e23x_rcu.c **** }
 1778              		.loc 1 747 1 view .LVU387
 1779              		@ sp needed
 1780 001a 7047     		bx	lr
 1781              		.cfi_endproc
 1782              	.LFE95:
 1784              		.section	.text.rcu_osci_bypass_mode_enable,"ax",%progbits
 1785              		.align	1
 1786              		.global	rcu_osci_bypass_mode_enable
 1787              		.syntax unified
 1788              		.code	16
 1789              		.thumb_func
 1790              		.fpu softvfp
 1792              	rcu_osci_bypass_mode_enable:
 1793              	.LVL111:
 1794              	.LFB96:
 748:Drivers/GD32E23x_standard_peripheral/Source/gd32e23x_rcu.c **** 
 749:Drivers/GD32E23x_standard_peripheral/Source/gd32e23x_rcu.c **** /*!
ARM GAS  /var/folders/rv/zq8s_02j1dj4vjvr1mm5zl2r0000gn/T//cc2hOtpo.s 			page 47


 750:Drivers/GD32E23x_standard_peripheral/Source/gd32e23x_rcu.c ****     \brief      enable the oscillator bypass mode, HXTALEN or LXTALEN must be reset before it
 751:Drivers/GD32E23x_standard_peripheral/Source/gd32e23x_rcu.c ****     \param[in]  osci: oscillator types, refer to rcu_osci_type_enum
 752:Drivers/GD32E23x_standard_peripheral/Source/gd32e23x_rcu.c ****                 only one parameter can be selected which is shown as below:
 753:Drivers/GD32E23x_standard_peripheral/Source/gd32e23x_rcu.c ****       \arg        RCU_HXTAL: HXTAL
 754:Drivers/GD32E23x_standard_peripheral/Source/gd32e23x_rcu.c ****       \arg        RCU_LXTAL: LXTAL
 755:Drivers/GD32E23x_standard_peripheral/Source/gd32e23x_rcu.c ****     \param[out] none
 756:Drivers/GD32E23x_standard_peripheral/Source/gd32e23x_rcu.c ****     \retval     none
 757:Drivers/GD32E23x_standard_peripheral/Source/gd32e23x_rcu.c **** */
 758:Drivers/GD32E23x_standard_peripheral/Source/gd32e23x_rcu.c **** void rcu_osci_bypass_mode_enable(rcu_osci_type_enum osci)
 759:Drivers/GD32E23x_standard_peripheral/Source/gd32e23x_rcu.c **** {
 1795              		.loc 1 759 1 is_stmt 1 view -0
 1796              		.cfi_startproc
 1797              		@ args = 0, pretend = 0, frame = 0
 1798              		@ frame_needed = 0, uses_anonymous_args = 0
 1799              		@ link register save eliminated.
 760:Drivers/GD32E23x_standard_peripheral/Source/gd32e23x_rcu.c ****     uint32_t reg;
 1800              		.loc 1 760 5 view .LVU389
 761:Drivers/GD32E23x_standard_peripheral/Source/gd32e23x_rcu.c ****     switch(osci){
 1801              		.loc 1 761 5 view .LVU390
 1802 0000 1028     		cmp	r0, #16
 1803 0002 04D0     		beq	.L100
 1804 0004 40F60003 		movw	r3, #2048
 1805 0008 9842     		cmp	r0, r3
 1806 000a 0ED0     		beq	.L101
 1807              	.LVL112:
 1808              	.L99:
 762:Drivers/GD32E23x_standard_peripheral/Source/gd32e23x_rcu.c ****     case RCU_HXTAL:
 763:Drivers/GD32E23x_standard_peripheral/Source/gd32e23x_rcu.c ****         /* HXTALEN must be reset before enable the oscillator bypass mode */
 764:Drivers/GD32E23x_standard_peripheral/Source/gd32e23x_rcu.c ****         reg = RCU_CTL0;
 765:Drivers/GD32E23x_standard_peripheral/Source/gd32e23x_rcu.c ****         RCU_CTL0 &= ~RCU_CTL0_HXTALEN;
 766:Drivers/GD32E23x_standard_peripheral/Source/gd32e23x_rcu.c ****         RCU_CTL0 = (reg | RCU_CTL0_HXTALBPS);
 767:Drivers/GD32E23x_standard_peripheral/Source/gd32e23x_rcu.c ****         break;
 768:Drivers/GD32E23x_standard_peripheral/Source/gd32e23x_rcu.c ****     case RCU_LXTAL:
 769:Drivers/GD32E23x_standard_peripheral/Source/gd32e23x_rcu.c ****         /* LXTALEN must be reset before enable the oscillator bypass mode */
 770:Drivers/GD32E23x_standard_peripheral/Source/gd32e23x_rcu.c ****         reg = RCU_BDCTL;
 771:Drivers/GD32E23x_standard_peripheral/Source/gd32e23x_rcu.c ****         RCU_BDCTL &= ~RCU_BDCTL_LXTALEN;
 772:Drivers/GD32E23x_standard_peripheral/Source/gd32e23x_rcu.c ****         RCU_BDCTL = (reg | RCU_BDCTL_LXTALBPS);
 773:Drivers/GD32E23x_standard_peripheral/Source/gd32e23x_rcu.c ****         break;
 774:Drivers/GD32E23x_standard_peripheral/Source/gd32e23x_rcu.c ****     case RCU_IRC8M:
 775:Drivers/GD32E23x_standard_peripheral/Source/gd32e23x_rcu.c ****     case RCU_IRC28M:
 776:Drivers/GD32E23x_standard_peripheral/Source/gd32e23x_rcu.c ****     case RCU_IRC40K:
 777:Drivers/GD32E23x_standard_peripheral/Source/gd32e23x_rcu.c ****     case RCU_PLL_CK:
 778:Drivers/GD32E23x_standard_peripheral/Source/gd32e23x_rcu.c ****         break;
 779:Drivers/GD32E23x_standard_peripheral/Source/gd32e23x_rcu.c ****     default:
 780:Drivers/GD32E23x_standard_peripheral/Source/gd32e23x_rcu.c ****         break;
 781:Drivers/GD32E23x_standard_peripheral/Source/gd32e23x_rcu.c ****     }
 782:Drivers/GD32E23x_standard_peripheral/Source/gd32e23x_rcu.c **** }
 1809              		.loc 1 782 1 is_stmt 0 view .LVU391
 1810              		@ sp needed
 1811 000c 7047     		bx	lr
 1812              	.LVL113:
 1813              	.L100:
 764:Drivers/GD32E23x_standard_peripheral/Source/gd32e23x_rcu.c ****         RCU_CTL0 &= ~RCU_CTL0_HXTALEN;
 1814              		.loc 1 764 9 is_stmt 1 view .LVU392
 764:Drivers/GD32E23x_standard_peripheral/Source/gd32e23x_rcu.c ****         RCU_CTL0 &= ~RCU_CTL0_HXTALEN;
 1815              		.loc 1 764 13 is_stmt 0 view .LVU393
 1816 000e 41F20003 		movw	r3, #4096
ARM GAS  /var/folders/rv/zq8s_02j1dj4vjvr1mm5zl2r0000gn/T//cc2hOtpo.s 			page 48


 1817 0012 C4F20203 		movt	r3, 16386
 1818 0016 1868     		ldr	r0, [r3]
 1819              	.LVL114:
 765:Drivers/GD32E23x_standard_peripheral/Source/gd32e23x_rcu.c ****         RCU_CTL0 = (reg | RCU_CTL0_HXTALBPS);
 1820              		.loc 1 765 9 is_stmt 1 view .LVU394
 765:Drivers/GD32E23x_standard_peripheral/Source/gd32e23x_rcu.c ****         RCU_CTL0 = (reg | RCU_CTL0_HXTALBPS);
 1821              		.loc 1 765 18 is_stmt 0 view .LVU395
 1822 0018 1968     		ldr	r1, [r3]
 1823 001a 0A4A     		ldr	r2, .L103
 1824 001c 1140     		ands	r1, r2
 1825 001e 1960     		str	r1, [r3]
 766:Drivers/GD32E23x_standard_peripheral/Source/gd32e23x_rcu.c ****         break;
 1826              		.loc 1 766 9 is_stmt 1 view .LVU396
 766:Drivers/GD32E23x_standard_peripheral/Source/gd32e23x_rcu.c ****         break;
 1827              		.loc 1 766 25 is_stmt 0 view .LVU397
 1828 0020 8022     		movs	r2, #128
 1829 0022 D202     		lsls	r2, r2, #11
 1830 0024 0243     		orrs	r2, r0
 766:Drivers/GD32E23x_standard_peripheral/Source/gd32e23x_rcu.c ****         break;
 1831              		.loc 1 766 18 view .LVU398
 1832 0026 1A60     		str	r2, [r3]
 767:Drivers/GD32E23x_standard_peripheral/Source/gd32e23x_rcu.c ****     case RCU_LXTAL:
 1833              		.loc 1 767 9 is_stmt 1 view .LVU399
 1834 0028 F0E7     		b	.L99
 1835              	.LVL115:
 1836              	.L101:
 770:Drivers/GD32E23x_standard_peripheral/Source/gd32e23x_rcu.c ****         RCU_BDCTL &= ~RCU_BDCTL_LXTALEN;
 1837              		.loc 1 770 9 view .LVU400
 770:Drivers/GD32E23x_standard_peripheral/Source/gd32e23x_rcu.c ****         RCU_BDCTL &= ~RCU_BDCTL_LXTALEN;
 1838              		.loc 1 770 13 is_stmt 0 view .LVU401
 1839 002a 41F22003 		movw	r3, #4128
 1840 002e C4F20203 		movt	r3, 16386
 1841 0032 1A68     		ldr	r2, [r3]
 1842              	.LVL116:
 771:Drivers/GD32E23x_standard_peripheral/Source/gd32e23x_rcu.c ****         RCU_BDCTL = (reg | RCU_BDCTL_LXTALBPS);
 1843              		.loc 1 771 9 is_stmt 1 view .LVU402
 771:Drivers/GD32E23x_standard_peripheral/Source/gd32e23x_rcu.c ****         RCU_BDCTL = (reg | RCU_BDCTL_LXTALBPS);
 1844              		.loc 1 771 19 is_stmt 0 view .LVU403
 1845 0034 1968     		ldr	r1, [r3]
 1846 0036 0120     		movs	r0, #1
 1847              	.LVL117:
 771:Drivers/GD32E23x_standard_peripheral/Source/gd32e23x_rcu.c ****         RCU_BDCTL = (reg | RCU_BDCTL_LXTALBPS);
 1848              		.loc 1 771 19 view .LVU404
 1849 0038 8143     		bics	r1, r0
 1850 003a 1960     		str	r1, [r3]
 772:Drivers/GD32E23x_standard_peripheral/Source/gd32e23x_rcu.c ****         break;
 1851              		.loc 1 772 9 is_stmt 1 view .LVU405
 772:Drivers/GD32E23x_standard_peripheral/Source/gd32e23x_rcu.c ****         break;
 1852              		.loc 1 772 26 is_stmt 0 view .LVU406
 1853 003c 0421     		movs	r1, #4
 1854 003e 0A43     		orrs	r2, r1
 1855              	.LVL118:
 772:Drivers/GD32E23x_standard_peripheral/Source/gd32e23x_rcu.c ****         break;
 1856              		.loc 1 772 19 view .LVU407
 1857 0040 1A60     		str	r2, [r3]
 773:Drivers/GD32E23x_standard_peripheral/Source/gd32e23x_rcu.c ****     case RCU_IRC8M:
 1858              		.loc 1 773 9 is_stmt 1 view .LVU408
ARM GAS  /var/folders/rv/zq8s_02j1dj4vjvr1mm5zl2r0000gn/T//cc2hOtpo.s 			page 49


 1859              		.loc 1 782 1 is_stmt 0 view .LVU409
 1860 0042 E3E7     		b	.L99
 1861              	.L104:
 1862              		.align	2
 1863              	.L103:
 1864 0044 FFFFFEFF 		.word	-65537
 1865              		.cfi_endproc
 1866              	.LFE96:
 1868              		.section	.text.rcu_osci_bypass_mode_disable,"ax",%progbits
 1869              		.align	1
 1870              		.global	rcu_osci_bypass_mode_disable
 1871              		.syntax unified
 1872              		.code	16
 1873              		.thumb_func
 1874              		.fpu softvfp
 1876              	rcu_osci_bypass_mode_disable:
 1877              	.LVL119:
 1878              	.LFB97:
 783:Drivers/GD32E23x_standard_peripheral/Source/gd32e23x_rcu.c **** 
 784:Drivers/GD32E23x_standard_peripheral/Source/gd32e23x_rcu.c **** /*!
 785:Drivers/GD32E23x_standard_peripheral/Source/gd32e23x_rcu.c ****     \brief      disable the oscillator bypass mode, HXTALEN or LXTALEN must be reset before it
 786:Drivers/GD32E23x_standard_peripheral/Source/gd32e23x_rcu.c ****     \param[in]  osci: oscillator types, refer to rcu_osci_type_enum
 787:Drivers/GD32E23x_standard_peripheral/Source/gd32e23x_rcu.c ****                 only one parameter can be selected which is shown as below:
 788:Drivers/GD32E23x_standard_peripheral/Source/gd32e23x_rcu.c ****       \arg        RCU_HXTAL: HXTAL
 789:Drivers/GD32E23x_standard_peripheral/Source/gd32e23x_rcu.c ****       \arg        RCU_LXTAL: LXTAL
 790:Drivers/GD32E23x_standard_peripheral/Source/gd32e23x_rcu.c ****     \param[out] none
 791:Drivers/GD32E23x_standard_peripheral/Source/gd32e23x_rcu.c ****     \retval     none
 792:Drivers/GD32E23x_standard_peripheral/Source/gd32e23x_rcu.c **** */
 793:Drivers/GD32E23x_standard_peripheral/Source/gd32e23x_rcu.c **** void rcu_osci_bypass_mode_disable(rcu_osci_type_enum osci)
 794:Drivers/GD32E23x_standard_peripheral/Source/gd32e23x_rcu.c **** {
 1879              		.loc 1 794 1 is_stmt 1 view -0
 1880              		.cfi_startproc
 1881              		@ args = 0, pretend = 0, frame = 0
 1882              		@ frame_needed = 0, uses_anonymous_args = 0
 1883              		@ link register save eliminated.
 795:Drivers/GD32E23x_standard_peripheral/Source/gd32e23x_rcu.c ****     uint32_t reg;
 1884              		.loc 1 795 5 view .LVU411
 796:Drivers/GD32E23x_standard_peripheral/Source/gd32e23x_rcu.c ****     switch(osci){
 1885              		.loc 1 796 5 view .LVU412
 1886 0000 1028     		cmp	r0, #16
 1887 0002 04D0     		beq	.L106
 1888 0004 40F60003 		movw	r3, #2048
 1889 0008 9842     		cmp	r0, r3
 1890 000a 0DD0     		beq	.L107
 1891              	.LVL120:
 1892              	.L105:
 797:Drivers/GD32E23x_standard_peripheral/Source/gd32e23x_rcu.c ****     case RCU_HXTAL:
 798:Drivers/GD32E23x_standard_peripheral/Source/gd32e23x_rcu.c ****         /* HXTALEN must be reset before disable the oscillator bypass mode */
 799:Drivers/GD32E23x_standard_peripheral/Source/gd32e23x_rcu.c ****         reg = RCU_CTL0;
 800:Drivers/GD32E23x_standard_peripheral/Source/gd32e23x_rcu.c ****         RCU_CTL0 &= ~RCU_CTL0_HXTALEN;
 801:Drivers/GD32E23x_standard_peripheral/Source/gd32e23x_rcu.c ****         RCU_CTL0 = (reg & (~RCU_CTL0_HXTALBPS));
 802:Drivers/GD32E23x_standard_peripheral/Source/gd32e23x_rcu.c ****         break;
 803:Drivers/GD32E23x_standard_peripheral/Source/gd32e23x_rcu.c ****     case RCU_LXTAL:
 804:Drivers/GD32E23x_standard_peripheral/Source/gd32e23x_rcu.c ****         /* LXTALEN must be reset before disable the oscillator bypass mode */
 805:Drivers/GD32E23x_standard_peripheral/Source/gd32e23x_rcu.c ****         reg = RCU_BDCTL;
 806:Drivers/GD32E23x_standard_peripheral/Source/gd32e23x_rcu.c ****         RCU_BDCTL &= ~RCU_BDCTL_LXTALEN;
 807:Drivers/GD32E23x_standard_peripheral/Source/gd32e23x_rcu.c ****         RCU_BDCTL = (reg & (~RCU_BDCTL_LXTALBPS));
ARM GAS  /var/folders/rv/zq8s_02j1dj4vjvr1mm5zl2r0000gn/T//cc2hOtpo.s 			page 50


 808:Drivers/GD32E23x_standard_peripheral/Source/gd32e23x_rcu.c ****         break;
 809:Drivers/GD32E23x_standard_peripheral/Source/gd32e23x_rcu.c ****     case RCU_IRC8M:
 810:Drivers/GD32E23x_standard_peripheral/Source/gd32e23x_rcu.c ****     case RCU_IRC28M:
 811:Drivers/GD32E23x_standard_peripheral/Source/gd32e23x_rcu.c ****     case RCU_IRC40K:
 812:Drivers/GD32E23x_standard_peripheral/Source/gd32e23x_rcu.c ****     case RCU_PLL_CK:
 813:Drivers/GD32E23x_standard_peripheral/Source/gd32e23x_rcu.c ****         break;
 814:Drivers/GD32E23x_standard_peripheral/Source/gd32e23x_rcu.c ****     default:
 815:Drivers/GD32E23x_standard_peripheral/Source/gd32e23x_rcu.c ****         break;
 816:Drivers/GD32E23x_standard_peripheral/Source/gd32e23x_rcu.c ****     }
 817:Drivers/GD32E23x_standard_peripheral/Source/gd32e23x_rcu.c **** }
 1893              		.loc 1 817 1 is_stmt 0 view .LVU413
 1894              		@ sp needed
 1895 000c 7047     		bx	lr
 1896              	.LVL121:
 1897              	.L106:
 799:Drivers/GD32E23x_standard_peripheral/Source/gd32e23x_rcu.c ****         RCU_CTL0 &= ~RCU_CTL0_HXTALEN;
 1898              		.loc 1 799 9 is_stmt 1 view .LVU414
 799:Drivers/GD32E23x_standard_peripheral/Source/gd32e23x_rcu.c ****         RCU_CTL0 &= ~RCU_CTL0_HXTALEN;
 1899              		.loc 1 799 13 is_stmt 0 view .LVU415
 1900 000e 41F20003 		movw	r3, #4096
 1901 0012 C4F20203 		movt	r3, 16386
 1902 0016 1A68     		ldr	r2, [r3]
 1903              	.LVL122:
 800:Drivers/GD32E23x_standard_peripheral/Source/gd32e23x_rcu.c ****         RCU_CTL0 = (reg & (~RCU_CTL0_HXTALBPS));
 1904              		.loc 1 800 9 is_stmt 1 view .LVU416
 800:Drivers/GD32E23x_standard_peripheral/Source/gd32e23x_rcu.c ****         RCU_CTL0 = (reg & (~RCU_CTL0_HXTALBPS));
 1905              		.loc 1 800 18 is_stmt 0 view .LVU417
 1906 0018 1968     		ldr	r1, [r3]
 1907 001a 0A48     		ldr	r0, .L109
 1908              	.LVL123:
 800:Drivers/GD32E23x_standard_peripheral/Source/gd32e23x_rcu.c ****         RCU_CTL0 = (reg & (~RCU_CTL0_HXTALBPS));
 1909              		.loc 1 800 18 view .LVU418
 1910 001c 0140     		ands	r1, r0
 1911 001e 1960     		str	r1, [r3]
 801:Drivers/GD32E23x_standard_peripheral/Source/gd32e23x_rcu.c ****         break;
 1912              		.loc 1 801 9 is_stmt 1 view .LVU419
 801:Drivers/GD32E23x_standard_peripheral/Source/gd32e23x_rcu.c ****         break;
 1913              		.loc 1 801 25 is_stmt 0 view .LVU420
 1914 0020 0949     		ldr	r1, .L109+4
 1915 0022 0A40     		ands	r2, r1
 1916              	.LVL124:
 801:Drivers/GD32E23x_standard_peripheral/Source/gd32e23x_rcu.c ****         break;
 1917              		.loc 1 801 18 view .LVU421
 1918 0024 1A60     		str	r2, [r3]
 802:Drivers/GD32E23x_standard_peripheral/Source/gd32e23x_rcu.c ****     case RCU_LXTAL:
 1919              		.loc 1 802 9 is_stmt 1 view .LVU422
 1920 0026 F1E7     		b	.L105
 1921              	.LVL125:
 1922              	.L107:
 805:Drivers/GD32E23x_standard_peripheral/Source/gd32e23x_rcu.c ****         RCU_BDCTL &= ~RCU_BDCTL_LXTALEN;
 1923              		.loc 1 805 9 view .LVU423
 805:Drivers/GD32E23x_standard_peripheral/Source/gd32e23x_rcu.c ****         RCU_BDCTL &= ~RCU_BDCTL_LXTALEN;
 1924              		.loc 1 805 13 is_stmt 0 view .LVU424
 1925 0028 41F22003 		movw	r3, #4128
 1926 002c C4F20203 		movt	r3, 16386
 1927 0030 1A68     		ldr	r2, [r3]
 1928              	.LVL126:
ARM GAS  /var/folders/rv/zq8s_02j1dj4vjvr1mm5zl2r0000gn/T//cc2hOtpo.s 			page 51


 806:Drivers/GD32E23x_standard_peripheral/Source/gd32e23x_rcu.c ****         RCU_BDCTL = (reg & (~RCU_BDCTL_LXTALBPS));
 1929              		.loc 1 806 9 is_stmt 1 view .LVU425
 806:Drivers/GD32E23x_standard_peripheral/Source/gd32e23x_rcu.c ****         RCU_BDCTL = (reg & (~RCU_BDCTL_LXTALBPS));
 1930              		.loc 1 806 19 is_stmt 0 view .LVU426
 1931 0032 1968     		ldr	r1, [r3]
 1932 0034 0120     		movs	r0, #1
 1933              	.LVL127:
 806:Drivers/GD32E23x_standard_peripheral/Source/gd32e23x_rcu.c ****         RCU_BDCTL = (reg & (~RCU_BDCTL_LXTALBPS));
 1934              		.loc 1 806 19 view .LVU427
 1935 0036 8143     		bics	r1, r0
 1936 0038 1960     		str	r1, [r3]
 807:Drivers/GD32E23x_standard_peripheral/Source/gd32e23x_rcu.c ****         break;
 1937              		.loc 1 807 9 is_stmt 1 view .LVU428
 807:Drivers/GD32E23x_standard_peripheral/Source/gd32e23x_rcu.c ****         break;
 1938              		.loc 1 807 26 is_stmt 0 view .LVU429
 1939 003a 0421     		movs	r1, #4
 1940 003c 8A43     		bics	r2, r1
 1941              	.LVL128:
 807:Drivers/GD32E23x_standard_peripheral/Source/gd32e23x_rcu.c ****         break;
 1942              		.loc 1 807 19 view .LVU430
 1943 003e 1A60     		str	r2, [r3]
 808:Drivers/GD32E23x_standard_peripheral/Source/gd32e23x_rcu.c ****     case RCU_IRC8M:
 1944              		.loc 1 808 9 is_stmt 1 view .LVU431
 1945              		.loc 1 817 1 is_stmt 0 view .LVU432
 1946 0040 E4E7     		b	.L105
 1947              	.L110:
 1948 0042 C046     		.align	2
 1949              	.L109:
 1950 0044 FFFFFEFF 		.word	-65537
 1951 0048 FFFFFBFF 		.word	-262145
 1952              		.cfi_endproc
 1953              	.LFE97:
 1955              		.section	.text.rcu_hxtal_clock_monitor_enable,"ax",%progbits
 1956              		.align	1
 1957              		.global	rcu_hxtal_clock_monitor_enable
 1958              		.syntax unified
 1959              		.code	16
 1960              		.thumb_func
 1961              		.fpu softvfp
 1963              	rcu_hxtal_clock_monitor_enable:
 1964              	.LFB98:
 818:Drivers/GD32E23x_standard_peripheral/Source/gd32e23x_rcu.c **** 
 819:Drivers/GD32E23x_standard_peripheral/Source/gd32e23x_rcu.c **** /*!
 820:Drivers/GD32E23x_standard_peripheral/Source/gd32e23x_rcu.c ****     \brief      enable the HXTAL clock monitor
 821:Drivers/GD32E23x_standard_peripheral/Source/gd32e23x_rcu.c ****     \param[in]  none
 822:Drivers/GD32E23x_standard_peripheral/Source/gd32e23x_rcu.c ****     \param[out] none
 823:Drivers/GD32E23x_standard_peripheral/Source/gd32e23x_rcu.c ****     \retval     none
 824:Drivers/GD32E23x_standard_peripheral/Source/gd32e23x_rcu.c **** */
 825:Drivers/GD32E23x_standard_peripheral/Source/gd32e23x_rcu.c **** void rcu_hxtal_clock_monitor_enable(void)
 826:Drivers/GD32E23x_standard_peripheral/Source/gd32e23x_rcu.c **** {
 1965              		.loc 1 826 1 is_stmt 1 view -0
 1966              		.cfi_startproc
 1967              		@ args = 0, pretend = 0, frame = 0
 1968              		@ frame_needed = 0, uses_anonymous_args = 0
 1969              		@ link register save eliminated.
 827:Drivers/GD32E23x_standard_peripheral/Source/gd32e23x_rcu.c ****     RCU_CTL0 |= RCU_CTL0_CKMEN;
 1970              		.loc 1 827 5 view .LVU434
ARM GAS  /var/folders/rv/zq8s_02j1dj4vjvr1mm5zl2r0000gn/T//cc2hOtpo.s 			page 52


 1971              		.loc 1 827 14 is_stmt 0 view .LVU435
 1972 0000 41F20003 		movw	r3, #4096
 1973 0004 C4F20203 		movt	r3, 16386
 1974 0008 1968     		ldr	r1, [r3]
 1975 000a 8022     		movs	r2, #128
 1976 000c 1203     		lsls	r2, r2, #12
 1977 000e 0A43     		orrs	r2, r1
 1978 0010 1A60     		str	r2, [r3]
 828:Drivers/GD32E23x_standard_peripheral/Source/gd32e23x_rcu.c **** }
 1979              		.loc 1 828 1 view .LVU436
 1980              		@ sp needed
 1981 0012 7047     		bx	lr
 1982              		.cfi_endproc
 1983              	.LFE98:
 1985              		.section	.text.rcu_hxtal_clock_monitor_disable,"ax",%progbits
 1986              		.align	1
 1987              		.global	rcu_hxtal_clock_monitor_disable
 1988              		.syntax unified
 1989              		.code	16
 1990              		.thumb_func
 1991              		.fpu softvfp
 1993              	rcu_hxtal_clock_monitor_disable:
 1994              	.LFB99:
 829:Drivers/GD32E23x_standard_peripheral/Source/gd32e23x_rcu.c **** 
 830:Drivers/GD32E23x_standard_peripheral/Source/gd32e23x_rcu.c **** /*!
 831:Drivers/GD32E23x_standard_peripheral/Source/gd32e23x_rcu.c ****     \brief      disable the HXTAL clock monitor
 832:Drivers/GD32E23x_standard_peripheral/Source/gd32e23x_rcu.c ****     \param[in]  none
 833:Drivers/GD32E23x_standard_peripheral/Source/gd32e23x_rcu.c ****     \param[out] none
 834:Drivers/GD32E23x_standard_peripheral/Source/gd32e23x_rcu.c ****     \retval     none
 835:Drivers/GD32E23x_standard_peripheral/Source/gd32e23x_rcu.c **** */
 836:Drivers/GD32E23x_standard_peripheral/Source/gd32e23x_rcu.c **** void rcu_hxtal_clock_monitor_disable(void)
 837:Drivers/GD32E23x_standard_peripheral/Source/gd32e23x_rcu.c **** {
 1995              		.loc 1 837 1 is_stmt 1 view -0
 1996              		.cfi_startproc
 1997              		@ args = 0, pretend = 0, frame = 0
 1998              		@ frame_needed = 0, uses_anonymous_args = 0
 1999              		@ link register save eliminated.
 838:Drivers/GD32E23x_standard_peripheral/Source/gd32e23x_rcu.c ****     RCU_CTL0 &= ~RCU_CTL0_CKMEN;
 2000              		.loc 1 838 5 view .LVU438
 2001              		.loc 1 838 14 is_stmt 0 view .LVU439
 2002 0000 41F20003 		movw	r3, #4096
 2003 0004 C4F20203 		movt	r3, 16386
 2004 0008 1A68     		ldr	r2, [r3]
 2005 000a 0249     		ldr	r1, .L113
 2006 000c 0A40     		ands	r2, r1
 2007 000e 1A60     		str	r2, [r3]
 839:Drivers/GD32E23x_standard_peripheral/Source/gd32e23x_rcu.c **** }
 2008              		.loc 1 839 1 view .LVU440
 2009              		@ sp needed
 2010 0010 7047     		bx	lr
 2011              	.L114:
 2012 0012 C046     		.align	2
 2013              	.L113:
 2014 0014 FFFFF7FF 		.word	-524289
 2015              		.cfi_endproc
 2016              	.LFE99:
 2018              		.section	.text.rcu_irc8m_adjust_value_set,"ax",%progbits
ARM GAS  /var/folders/rv/zq8s_02j1dj4vjvr1mm5zl2r0000gn/T//cc2hOtpo.s 			page 53


 2019              		.align	1
 2020              		.global	rcu_irc8m_adjust_value_set
 2021              		.syntax unified
 2022              		.code	16
 2023              		.thumb_func
 2024              		.fpu softvfp
 2026              	rcu_irc8m_adjust_value_set:
 2027              	.LVL129:
 2028              	.LFB100:
 840:Drivers/GD32E23x_standard_peripheral/Source/gd32e23x_rcu.c **** 
 841:Drivers/GD32E23x_standard_peripheral/Source/gd32e23x_rcu.c **** /*!
 842:Drivers/GD32E23x_standard_peripheral/Source/gd32e23x_rcu.c ****     \brief      set the IRC8M adjust value
 843:Drivers/GD32E23x_standard_peripheral/Source/gd32e23x_rcu.c ****     \param[in]  irc8m_adjval: IRC8M adjust value, must be between 0 and 0x1F
 844:Drivers/GD32E23x_standard_peripheral/Source/gd32e23x_rcu.c ****     \param[out] none
 845:Drivers/GD32E23x_standard_peripheral/Source/gd32e23x_rcu.c ****     \retval     none
 846:Drivers/GD32E23x_standard_peripheral/Source/gd32e23x_rcu.c **** */
 847:Drivers/GD32E23x_standard_peripheral/Source/gd32e23x_rcu.c **** void rcu_irc8m_adjust_value_set(uint8_t irc8m_adjval)
 848:Drivers/GD32E23x_standard_peripheral/Source/gd32e23x_rcu.c **** {
 2029              		.loc 1 848 1 is_stmt 1 view -0
 2030              		.cfi_startproc
 2031              		@ args = 0, pretend = 0, frame = 0
 2032              		@ frame_needed = 0, uses_anonymous_args = 0
 2033              		@ link register save eliminated.
 849:Drivers/GD32E23x_standard_peripheral/Source/gd32e23x_rcu.c ****     uint32_t adjust = 0U;
 2034              		.loc 1 849 5 view .LVU442
 850:Drivers/GD32E23x_standard_peripheral/Source/gd32e23x_rcu.c ****     adjust = RCU_CTL0;
 2035              		.loc 1 850 5 view .LVU443
 2036              		.loc 1 850 12 is_stmt 0 view .LVU444
 2037 0000 41F20003 		movw	r3, #4096
 2038 0004 C4F20203 		movt	r3, 16386
 2039 0008 1A68     		ldr	r2, [r3]
 2040              	.LVL130:
 851:Drivers/GD32E23x_standard_peripheral/Source/gd32e23x_rcu.c ****     /* reset the IRC8MADJ bits and set according to irc8m_adjval */
 852:Drivers/GD32E23x_standard_peripheral/Source/gd32e23x_rcu.c ****     adjust &= ~RCU_CTL0_IRC8MADJ;
 2041              		.loc 1 852 5 is_stmt 1 view .LVU445
 2042              		.loc 1 852 12 is_stmt 0 view .LVU446
 2043 000a F821     		movs	r1, #248
 2044 000c 8A43     		bics	r2, r1
 2045              	.LVL131:
 853:Drivers/GD32E23x_standard_peripheral/Source/gd32e23x_rcu.c ****     RCU_CTL0 = (adjust | (((uint32_t)irc8m_adjval)<<3));
 2046              		.loc 1 853 5 is_stmt 1 view .LVU447
 2047              		.loc 1 853 51 is_stmt 0 view .LVU448
 2048 000e C000     		lsls	r0, r0, #3
 2049              	.LVL132:
 2050              		.loc 1 853 24 view .LVU449
 2051 0010 1043     		orrs	r0, r2
 2052              		.loc 1 853 14 view .LVU450
 2053 0012 1860     		str	r0, [r3]
 854:Drivers/GD32E23x_standard_peripheral/Source/gd32e23x_rcu.c **** }
 2054              		.loc 1 854 1 view .LVU451
 2055              		@ sp needed
 2056 0014 7047     		bx	lr
 2057              		.cfi_endproc
 2058              	.LFE100:
 2060              		.section	.text.rcu_irc28m_adjust_value_set,"ax",%progbits
 2061              		.align	1
 2062              		.global	rcu_irc28m_adjust_value_set
ARM GAS  /var/folders/rv/zq8s_02j1dj4vjvr1mm5zl2r0000gn/T//cc2hOtpo.s 			page 54


 2063              		.syntax unified
 2064              		.code	16
 2065              		.thumb_func
 2066              		.fpu softvfp
 2068              	rcu_irc28m_adjust_value_set:
 2069              	.LVL133:
 2070              	.LFB101:
 855:Drivers/GD32E23x_standard_peripheral/Source/gd32e23x_rcu.c **** 
 856:Drivers/GD32E23x_standard_peripheral/Source/gd32e23x_rcu.c **** /*!
 857:Drivers/GD32E23x_standard_peripheral/Source/gd32e23x_rcu.c ****     \brief      set the IRC28M adjust value
 858:Drivers/GD32E23x_standard_peripheral/Source/gd32e23x_rcu.c ****     \param[in]  irc28m_adjval: IRC28M adjust value, must be between 0 and 0x1F
 859:Drivers/GD32E23x_standard_peripheral/Source/gd32e23x_rcu.c ****     \param[out] none
 860:Drivers/GD32E23x_standard_peripheral/Source/gd32e23x_rcu.c ****     \retval     none
 861:Drivers/GD32E23x_standard_peripheral/Source/gd32e23x_rcu.c **** */
 862:Drivers/GD32E23x_standard_peripheral/Source/gd32e23x_rcu.c **** void rcu_irc28m_adjust_value_set(uint8_t irc28m_adjval)
 863:Drivers/GD32E23x_standard_peripheral/Source/gd32e23x_rcu.c **** {
 2071              		.loc 1 863 1 is_stmt 1 view -0
 2072              		.cfi_startproc
 2073              		@ args = 0, pretend = 0, frame = 0
 2074              		@ frame_needed = 0, uses_anonymous_args = 0
 2075              		@ link register save eliminated.
 864:Drivers/GD32E23x_standard_peripheral/Source/gd32e23x_rcu.c ****     uint32_t adjust = 0U;
 2076              		.loc 1 864 5 view .LVU453
 865:Drivers/GD32E23x_standard_peripheral/Source/gd32e23x_rcu.c ****     adjust = RCU_CTL1;
 2077              		.loc 1 865 5 view .LVU454
 2078              		.loc 1 865 12 is_stmt 0 view .LVU455
 2079 0000 41F23403 		movw	r3, #4148
 2080 0004 C4F20203 		movt	r3, 16386
 2081 0008 1A68     		ldr	r2, [r3]
 2082              	.LVL134:
 866:Drivers/GD32E23x_standard_peripheral/Source/gd32e23x_rcu.c ****     /* reset the IRC28MADJ bits and set according to irc28m_adjval */
 867:Drivers/GD32E23x_standard_peripheral/Source/gd32e23x_rcu.c ****     adjust &= ~RCU_CTL1_IRC28MADJ;
 2083              		.loc 1 867 5 is_stmt 1 view .LVU456
 2084              		.loc 1 867 12 is_stmt 0 view .LVU457
 2085 000a F821     		movs	r1, #248
 2086 000c 8A43     		bics	r2, r1
 2087              	.LVL135:
 868:Drivers/GD32E23x_standard_peripheral/Source/gd32e23x_rcu.c ****     RCU_CTL1 = (adjust | (((uint32_t)irc28m_adjval)<<3));
 2088              		.loc 1 868 5 is_stmt 1 view .LVU458
 2089              		.loc 1 868 52 is_stmt 0 view .LVU459
 2090 000e C000     		lsls	r0, r0, #3
 2091              	.LVL136:
 2092              		.loc 1 868 24 view .LVU460
 2093 0010 1043     		orrs	r0, r2
 2094              		.loc 1 868 14 view .LVU461
 2095 0012 1860     		str	r0, [r3]
 869:Drivers/GD32E23x_standard_peripheral/Source/gd32e23x_rcu.c **** }
 2096              		.loc 1 869 1 view .LVU462
 2097              		@ sp needed
 2098 0014 7047     		bx	lr
 2099              		.cfi_endproc
 2100              	.LFE101:
 2102              		.section	.text.rcu_voltage_key_unlock,"ax",%progbits
 2103              		.align	1
 2104              		.global	rcu_voltage_key_unlock
 2105              		.syntax unified
 2106              		.code	16
ARM GAS  /var/folders/rv/zq8s_02j1dj4vjvr1mm5zl2r0000gn/T//cc2hOtpo.s 			page 55


 2107              		.thumb_func
 2108              		.fpu softvfp
 2110              	rcu_voltage_key_unlock:
 2111              	.LFB102:
 870:Drivers/GD32E23x_standard_peripheral/Source/gd32e23x_rcu.c **** 
 871:Drivers/GD32E23x_standard_peripheral/Source/gd32e23x_rcu.c **** /*!
 872:Drivers/GD32E23x_standard_peripheral/Source/gd32e23x_rcu.c ****     \brief      unlock the voltage key
 873:Drivers/GD32E23x_standard_peripheral/Source/gd32e23x_rcu.c ****     \param[in]  none
 874:Drivers/GD32E23x_standard_peripheral/Source/gd32e23x_rcu.c ****     \param[out] none
 875:Drivers/GD32E23x_standard_peripheral/Source/gd32e23x_rcu.c ****     \retval     none
 876:Drivers/GD32E23x_standard_peripheral/Source/gd32e23x_rcu.c **** */
 877:Drivers/GD32E23x_standard_peripheral/Source/gd32e23x_rcu.c **** void rcu_voltage_key_unlock(void)
 878:Drivers/GD32E23x_standard_peripheral/Source/gd32e23x_rcu.c **** {
 2112              		.loc 1 878 1 is_stmt 1 view -0
 2113              		.cfi_startproc
 2114              		@ args = 0, pretend = 0, frame = 0
 2115              		@ frame_needed = 0, uses_anonymous_args = 0
 2116              		@ link register save eliminated.
 879:Drivers/GD32E23x_standard_peripheral/Source/gd32e23x_rcu.c ****     /* reset the KEY bits and set 0x1A2B3C4D */
 880:Drivers/GD32E23x_standard_peripheral/Source/gd32e23x_rcu.c ****     RCU_VKEY &= ~RCU_VKEY_KEY;
 2117              		.loc 1 880 5 view .LVU464
 2118              		.loc 1 880 14 is_stmt 0 view .LVU465
 2119 0000 41F20013 		movw	r3, #4352
 2120 0004 C4F20203 		movt	r3, 16386
 2121 0008 1A68     		ldr	r2, [r3]
 2122 000a 0022     		movs	r2, #0
 2123 000c 1A60     		str	r2, [r3]
 881:Drivers/GD32E23x_standard_peripheral/Source/gd32e23x_rcu.c ****     RCU_VKEY |= RCU_VKEY_UNLOCK;
 2124              		.loc 1 881 5 is_stmt 1 view .LVU466
 2125              		.loc 1 881 14 is_stmt 0 view .LVU467
 2126 000e 1968     		ldr	r1, [r3]
 2127 0010 43F64D42 		movw	r2, #15437
 2128 0014 C1F62B22 		movt	r2, 6699
 2129 0018 0A43     		orrs	r2, r1
 2130 001a 1A60     		str	r2, [r3]
 882:Drivers/GD32E23x_standard_peripheral/Source/gd32e23x_rcu.c **** }
 2131              		.loc 1 882 1 view .LVU468
 2132              		@ sp needed
 2133 001c 7047     		bx	lr
 2134              		.cfi_endproc
 2135              	.LFE102:
 2137              		.section	.text.rcu_deepsleep_voltage_set,"ax",%progbits
 2138              		.align	1
 2139              		.global	rcu_deepsleep_voltage_set
 2140              		.syntax unified
 2141              		.code	16
 2142              		.thumb_func
 2143              		.fpu softvfp
 2145              	rcu_deepsleep_voltage_set:
 2146              	.LVL137:
 2147              	.LFB103:
 883:Drivers/GD32E23x_standard_peripheral/Source/gd32e23x_rcu.c **** 
 884:Drivers/GD32E23x_standard_peripheral/Source/gd32e23x_rcu.c **** /*!
 885:Drivers/GD32E23x_standard_peripheral/Source/gd32e23x_rcu.c ****     \brief      set voltage in deep sleep mode
 886:Drivers/GD32E23x_standard_peripheral/Source/gd32e23x_rcu.c ****     \param[in]  dsvol: deep sleep mode voltage
 887:Drivers/GD32E23x_standard_peripheral/Source/gd32e23x_rcu.c ****                 only one parameter can be selected which is shown as below:
 888:Drivers/GD32E23x_standard_peripheral/Source/gd32e23x_rcu.c ****       \arg        RCU_DEEPSLEEP_V_1_0: the core voltage is 1.0V
ARM GAS  /var/folders/rv/zq8s_02j1dj4vjvr1mm5zl2r0000gn/T//cc2hOtpo.s 			page 56


 889:Drivers/GD32E23x_standard_peripheral/Source/gd32e23x_rcu.c ****       \arg        RCU_DEEPSLEEP_V_0_9: the core voltage is 0.9V
 890:Drivers/GD32E23x_standard_peripheral/Source/gd32e23x_rcu.c ****       \arg        RCU_DEEPSLEEP_V_0_8: the core voltage is 0.8V
 891:Drivers/GD32E23x_standard_peripheral/Source/gd32e23x_rcu.c ****       \arg        RCU_DEEPSLEEP_V_1_2: the core voltage is 1.2V
 892:Drivers/GD32E23x_standard_peripheral/Source/gd32e23x_rcu.c ****     \param[out] none
 893:Drivers/GD32E23x_standard_peripheral/Source/gd32e23x_rcu.c ****     \retval     none
 894:Drivers/GD32E23x_standard_peripheral/Source/gd32e23x_rcu.c **** */
 895:Drivers/GD32E23x_standard_peripheral/Source/gd32e23x_rcu.c **** void rcu_deepsleep_voltage_set(uint32_t dsvol)
 896:Drivers/GD32E23x_standard_peripheral/Source/gd32e23x_rcu.c **** {
 2148              		.loc 1 896 1 is_stmt 1 view -0
 2149              		.cfi_startproc
 2150              		@ args = 0, pretend = 0, frame = 0
 2151              		@ frame_needed = 0, uses_anonymous_args = 0
 2152              		@ link register save eliminated.
 897:Drivers/GD32E23x_standard_peripheral/Source/gd32e23x_rcu.c ****     /* reset the DSLPVS bits and set according to dsvol */
 898:Drivers/GD32E23x_standard_peripheral/Source/gd32e23x_rcu.c ****     RCU_DSV &= ~RCU_DSV_DSLPVS;
 2153              		.loc 1 898 5 view .LVU470
 2154              		.loc 1 898 13 is_stmt 0 view .LVU471
 2155 0000 41F23413 		movw	r3, #4404
 2156 0004 C4F20203 		movt	r3, 16386
 2157 0008 1968     		ldr	r1, [r3]
 2158 000a 0322     		movs	r2, #3
 2159 000c 9143     		bics	r1, r2
 2160 000e 1960     		str	r1, [r3]
 899:Drivers/GD32E23x_standard_peripheral/Source/gd32e23x_rcu.c ****     RCU_DSV |= dsvol;
 2161              		.loc 1 899 5 is_stmt 1 view .LVU472
 2162              		.loc 1 899 13 is_stmt 0 view .LVU473
 2163 0010 1A68     		ldr	r2, [r3]
 2164 0012 0243     		orrs	r2, r0
 2165 0014 1A60     		str	r2, [r3]
 900:Drivers/GD32E23x_standard_peripheral/Source/gd32e23x_rcu.c **** }
 2166              		.loc 1 900 1 view .LVU474
 2167              		@ sp needed
 2168 0016 7047     		bx	lr
 2169              		.cfi_endproc
 2170              	.LFE103:
 2172              		.section	.text.rcu_clock_freq_get,"ax",%progbits
 2173              		.align	1
 2174              		.global	rcu_clock_freq_get
 2175              		.syntax unified
 2176              		.code	16
 2177              		.thumb_func
 2178              		.fpu softvfp
 2180              	rcu_clock_freq_get:
 2181              	.LVL138:
 2182              	.LFB104:
 901:Drivers/GD32E23x_standard_peripheral/Source/gd32e23x_rcu.c **** 
 902:Drivers/GD32E23x_standard_peripheral/Source/gd32e23x_rcu.c **** /*!
 903:Drivers/GD32E23x_standard_peripheral/Source/gd32e23x_rcu.c ****     \brief      get the system clock, bus and peripheral clock frequency
 904:Drivers/GD32E23x_standard_peripheral/Source/gd32e23x_rcu.c ****     \param[in]  clock: the clock frequency which to get
 905:Drivers/GD32E23x_standard_peripheral/Source/gd32e23x_rcu.c ****                 only one parameter can be selected which is shown as below:
 906:Drivers/GD32E23x_standard_peripheral/Source/gd32e23x_rcu.c ****       \arg        CK_SYS: system clock frequency
 907:Drivers/GD32E23x_standard_peripheral/Source/gd32e23x_rcu.c ****       \arg        CK_AHB: AHB clock frequency
 908:Drivers/GD32E23x_standard_peripheral/Source/gd32e23x_rcu.c ****       \arg        CK_APB1: APB1 clock frequency
 909:Drivers/GD32E23x_standard_peripheral/Source/gd32e23x_rcu.c ****       \arg        CK_APB2: APB2 clock frequency
 910:Drivers/GD32E23x_standard_peripheral/Source/gd32e23x_rcu.c ****       \arg        CK_ADC: ADC clock frequency
 911:Drivers/GD32E23x_standard_peripheral/Source/gd32e23x_rcu.c ****       \arg        CK_USART: USART0 clock frequency
 912:Drivers/GD32E23x_standard_peripheral/Source/gd32e23x_rcu.c ****     \param[out] none
ARM GAS  /var/folders/rv/zq8s_02j1dj4vjvr1mm5zl2r0000gn/T//cc2hOtpo.s 			page 57


 913:Drivers/GD32E23x_standard_peripheral/Source/gd32e23x_rcu.c ****     \retval     clock frequency of system, AHB, APB1, APB2, ADC or USRAT0
 914:Drivers/GD32E23x_standard_peripheral/Source/gd32e23x_rcu.c **** */
 915:Drivers/GD32E23x_standard_peripheral/Source/gd32e23x_rcu.c **** uint32_t rcu_clock_freq_get(rcu_clock_freq_enum clock)
 916:Drivers/GD32E23x_standard_peripheral/Source/gd32e23x_rcu.c **** {
 2183              		.loc 1 916 1 is_stmt 1 view -0
 2184              		.cfi_startproc
 2185              		@ args = 0, pretend = 0, frame = 32
 2186              		@ frame_needed = 0, uses_anonymous_args = 0
 2187              		.loc 1 916 1 is_stmt 0 view .LVU476
 2188 0000 70B5     		push	{r4, r5, r6, lr}
 2189              	.LCFI3:
 2190              		.cfi_def_cfa_offset 16
 2191              		.cfi_offset 4, -16
 2192              		.cfi_offset 5, -12
 2193              		.cfi_offset 6, -8
 2194              		.cfi_offset 14, -4
 2195 0002 88B0     		sub	sp, sp, #32
 2196              	.LCFI4:
 2197              		.cfi_def_cfa_offset 48
 2198 0004 0200     		movs	r2, r0
 917:Drivers/GD32E23x_standard_peripheral/Source/gd32e23x_rcu.c ****     uint32_t sws = 0U, adcps = 0U, adcps2 = 0U, ck_freq = 0U;
 2199              		.loc 1 917 5 is_stmt 1 view .LVU477
 2200              	.LVL139:
 918:Drivers/GD32E23x_standard_peripheral/Source/gd32e23x_rcu.c ****     uint32_t cksys_freq = 0U, ahb_freq = 0U, apb1_freq = 0U, apb2_freq = 0U;
 2201              		.loc 1 918 5 view .LVU478
 919:Drivers/GD32E23x_standard_peripheral/Source/gd32e23x_rcu.c ****     uint32_t adc_freq = 0U, usart_freq = 0U;
 2202              		.loc 1 919 5 view .LVU479
 920:Drivers/GD32E23x_standard_peripheral/Source/gd32e23x_rcu.c ****     uint32_t pllmf = 0U, pllmf4 = 0U, pllsel = 0U, prediv = 0U, idx = 0U, clk_exp = 0U;
 2203              		.loc 1 920 5 view .LVU480
 921:Drivers/GD32E23x_standard_peripheral/Source/gd32e23x_rcu.c ****     /* exponent of AHB, APB1 and APB2 clock divider */
 922:Drivers/GD32E23x_standard_peripheral/Source/gd32e23x_rcu.c ****     const uint8_t ahb_exp[16] = {0, 0, 0, 0, 0, 0, 0, 0, 1, 2, 3, 4, 6, 7, 8, 9};
 2204              		.loc 1 922 5 view .LVU481
 2205              		.loc 1 922 19 is_stmt 0 view .LVU482
 2206 0006 04A9     		add	r1, sp, #16
 2207 0008 40F20003 		movw	r3, #:lower16:.LANCHOR0
 2208 000c C0F20003 		movt	r3, #:upper16:.LANCHOR0
 2209 0010 1C00     		movs	r4, r3
 2210 0012 61CC     		ldmia	r4!, {r0, r5, r6}
 2211 0014 61C1     		stmia	r1!, {r0, r5, r6}
 2212              	.LVL140:
 2213              		.loc 1 922 19 view .LVU483
 2214 0016 0800     		movs	r0, r1
 2215 0018 2168     		ldr	r1, [r4]
 2216 001a 0160     		str	r1, [r0]
 923:Drivers/GD32E23x_standard_peripheral/Source/gd32e23x_rcu.c ****     const uint8_t apb1_exp[8] = {0, 0, 0, 0, 1, 2, 3, 4};
 2217              		.loc 1 923 5 is_stmt 1 view .LVU484
 2218              		.loc 1 923 19 is_stmt 0 view .LVU485
 2219 001c 02A8     		add	r0, sp, #8
 2220 001e 1900     		movs	r1, r3
 2221 0020 1031     		adds	r1, r1, #16
 2222 0022 30C9     		ldmia	r1!, {r4, r5}
 2223 0024 30C0     		stmia	r0!, {r4, r5}
 924:Drivers/GD32E23x_standard_peripheral/Source/gd32e23x_rcu.c ****     const uint8_t apb2_exp[8] = {0, 0, 0, 0, 1, 2, 3, 4};
 2224              		.loc 1 924 5 is_stmt 1 view .LVU486
 2225              		.loc 1 924 19 is_stmt 0 view .LVU487
 2226 0026 6946     		mov	r1, sp
 2227 0028 1033     		adds	r3, r3, #16
ARM GAS  /var/folders/rv/zq8s_02j1dj4vjvr1mm5zl2r0000gn/T//cc2hOtpo.s 			page 58


 2228 002a 11CB     		ldmia	r3!, {r0, r4}
 2229 002c 11C1     		stmia	r1!, {r0, r4}
 925:Drivers/GD32E23x_standard_peripheral/Source/gd32e23x_rcu.c **** 
 926:Drivers/GD32E23x_standard_peripheral/Source/gd32e23x_rcu.c ****     sws = GET_BITS(RCU_CFG0, 2, 3);
 2230              		.loc 1 926 5 is_stmt 1 view .LVU488
 2231              		.loc 1 926 11 is_stmt 0 view .LVU489
 2232 002e 41F20403 		movw	r3, #4100
 2233 0032 C4F20203 		movt	r3, 16386
 2234 0036 1968     		ldr	r1, [r3]
 2235 0038 8908     		lsrs	r1, r1, #2
 2236              		.loc 1 926 9 view .LVU490
 2237 003a 0323     		movs	r3, #3
 2238 003c 0B40     		ands	r3, r1
 2239              	.LVL141:
 927:Drivers/GD32E23x_standard_peripheral/Source/gd32e23x_rcu.c ****     switch(sws){
 2240              		.loc 1 927 5 is_stmt 1 view .LVU491
 2241 003e 022B     		cmp	r3, #2
 2242 0040 24D0     		beq	.L148
 928:Drivers/GD32E23x_standard_peripheral/Source/gd32e23x_rcu.c ****     /* IRC8M is selected as CK_SYS */
 929:Drivers/GD32E23x_standard_peripheral/Source/gd32e23x_rcu.c ****     case SEL_IRC8M:
 930:Drivers/GD32E23x_standard_peripheral/Source/gd32e23x_rcu.c ****         cksys_freq = IRC8M_VALUE;
 2243              		.loc 1 930 20 is_stmt 0 view .LVU492
 2244 0042 41F20020 		movw	r0, #4608
 2245 0046 C0F27A00 		movt	r0, 122
 2246              	.LVL142:
 2247              	.L120:
 931:Drivers/GD32E23x_standard_peripheral/Source/gd32e23x_rcu.c ****         break;
 932:Drivers/GD32E23x_standard_peripheral/Source/gd32e23x_rcu.c ****     /* HXTAL is selected as CK_SYS */
 933:Drivers/GD32E23x_standard_peripheral/Source/gd32e23x_rcu.c ****     case SEL_HXTAL:
 934:Drivers/GD32E23x_standard_peripheral/Source/gd32e23x_rcu.c ****         cksys_freq = HXTAL_VALUE;
 935:Drivers/GD32E23x_standard_peripheral/Source/gd32e23x_rcu.c ****         break;
 936:Drivers/GD32E23x_standard_peripheral/Source/gd32e23x_rcu.c ****     /* PLL is selected as CK_SYS */
 937:Drivers/GD32E23x_standard_peripheral/Source/gd32e23x_rcu.c ****     case SEL_PLL:
 938:Drivers/GD32E23x_standard_peripheral/Source/gd32e23x_rcu.c ****         /* get the value of PLLMF[3:0] */
 939:Drivers/GD32E23x_standard_peripheral/Source/gd32e23x_rcu.c ****         pllmf = GET_BITS(RCU_CFG0, 18, 21);
 940:Drivers/GD32E23x_standard_peripheral/Source/gd32e23x_rcu.c ****         pllmf4 = GET_BITS(RCU_CFG0, 27, 27);
 941:Drivers/GD32E23x_standard_peripheral/Source/gd32e23x_rcu.c ****         /* high 16 bits */
 942:Drivers/GD32E23x_standard_peripheral/Source/gd32e23x_rcu.c ****         if(1U == pllmf4){
 943:Drivers/GD32E23x_standard_peripheral/Source/gd32e23x_rcu.c ****             pllmf += 17U;
 944:Drivers/GD32E23x_standard_peripheral/Source/gd32e23x_rcu.c ****         }else if(15U == pllmf){
 945:Drivers/GD32E23x_standard_peripheral/Source/gd32e23x_rcu.c ****             pllmf = 16U;
 946:Drivers/GD32E23x_standard_peripheral/Source/gd32e23x_rcu.c ****         }else{
 947:Drivers/GD32E23x_standard_peripheral/Source/gd32e23x_rcu.c ****             pllmf += 2U;
 948:Drivers/GD32E23x_standard_peripheral/Source/gd32e23x_rcu.c ****         }
 949:Drivers/GD32E23x_standard_peripheral/Source/gd32e23x_rcu.c ****             
 950:Drivers/GD32E23x_standard_peripheral/Source/gd32e23x_rcu.c ****         /* PLL clock source selection, HXTAL or IRC8M/2 */
 951:Drivers/GD32E23x_standard_peripheral/Source/gd32e23x_rcu.c ****         pllsel = GET_BITS(RCU_CFG0, 16, 16);
 952:Drivers/GD32E23x_standard_peripheral/Source/gd32e23x_rcu.c ****         if(0U != pllsel){
 953:Drivers/GD32E23x_standard_peripheral/Source/gd32e23x_rcu.c ****             prediv = (GET_BITS(RCU_CFG1, 0, 3) + 1U);
 954:Drivers/GD32E23x_standard_peripheral/Source/gd32e23x_rcu.c ****             cksys_freq = (HXTAL_VALUE / prediv) * pllmf;
 955:Drivers/GD32E23x_standard_peripheral/Source/gd32e23x_rcu.c ****         }else{
 956:Drivers/GD32E23x_standard_peripheral/Source/gd32e23x_rcu.c ****             cksys_freq = (IRC8M_VALUE >> 1) * pllmf;
 957:Drivers/GD32E23x_standard_peripheral/Source/gd32e23x_rcu.c ****         }
 958:Drivers/GD32E23x_standard_peripheral/Source/gd32e23x_rcu.c ****         break;
 959:Drivers/GD32E23x_standard_peripheral/Source/gd32e23x_rcu.c ****     /* IRC8M is selected as CK_SYS */
 960:Drivers/GD32E23x_standard_peripheral/Source/gd32e23x_rcu.c ****     default:
 961:Drivers/GD32E23x_standard_peripheral/Source/gd32e23x_rcu.c ****         cksys_freq = IRC8M_VALUE;
ARM GAS  /var/folders/rv/zq8s_02j1dj4vjvr1mm5zl2r0000gn/T//cc2hOtpo.s 			page 59


 962:Drivers/GD32E23x_standard_peripheral/Source/gd32e23x_rcu.c ****         break;
 963:Drivers/GD32E23x_standard_peripheral/Source/gd32e23x_rcu.c ****     }
 964:Drivers/GD32E23x_standard_peripheral/Source/gd32e23x_rcu.c ****     /* calculate AHB clock frequency */
 965:Drivers/GD32E23x_standard_peripheral/Source/gd32e23x_rcu.c ****     idx = GET_BITS(RCU_CFG0, 4, 7);
 2248              		.loc 1 965 5 is_stmt 1 view .LVU493
 2249              		.loc 1 965 11 is_stmt 0 view .LVU494
 2250 004a 41F20404 		movw	r4, #4100
 2251 004e C4F20204 		movt	r4, 16386
 2252 0052 2168     		ldr	r1, [r4]
 2253 0054 0909     		lsrs	r1, r1, #4
 2254              		.loc 1 965 9 view .LVU495
 2255 0056 0F23     		movs	r3, #15
 2256 0058 0B40     		ands	r3, r1
 2257              	.LVL143:
 966:Drivers/GD32E23x_standard_peripheral/Source/gd32e23x_rcu.c ****     clk_exp = ahb_exp[idx];
 2258              		.loc 1 966 5 is_stmt 1 view .LVU496
 2259              		.loc 1 966 22 is_stmt 0 view .LVU497
 2260 005a 04A9     		add	r1, sp, #16
 2261 005c CB5C     		ldrb	r3, [r1, r3]
 2262              	.LVL144:
 967:Drivers/GD32E23x_standard_peripheral/Source/gd32e23x_rcu.c ****     ahb_freq = cksys_freq >> clk_exp;
 2263              		.loc 1 967 5 is_stmt 1 view .LVU498
 2264              		.loc 1 967 14 is_stmt 0 view .LVU499
 2265 005e 0500     		movs	r5, r0
 2266 0060 DD40     		lsrs	r5, r5, r3
 2267              	.LVL145:
 968:Drivers/GD32E23x_standard_peripheral/Source/gd32e23x_rcu.c ****     
 969:Drivers/GD32E23x_standard_peripheral/Source/gd32e23x_rcu.c ****     /* calculate APB1 clock frequency */
 970:Drivers/GD32E23x_standard_peripheral/Source/gd32e23x_rcu.c ****     idx = GET_BITS(RCU_CFG0, 8, 10);
 2268              		.loc 1 970 5 is_stmt 1 view .LVU500
 2269              		.loc 1 970 11 is_stmt 0 view .LVU501
 2270 0062 2368     		ldr	r3, [r4]
 2271              	.LVL146:
 2272              		.loc 1 970 11 view .LVU502
 2273 0064 1B0A     		lsrs	r3, r3, #8
 2274              		.loc 1 970 9 view .LVU503
 2275 0066 0721     		movs	r1, #7
 2276              		.loc 1 970 9 view .LVU504
 2277 0068 0B40     		ands	r3, r1
 2278              	.LVL147:
 971:Drivers/GD32E23x_standard_peripheral/Source/gd32e23x_rcu.c ****     clk_exp = apb1_exp[idx];
 2279              		.loc 1 971 5 is_stmt 1 view .LVU505
 2280              		.loc 1 971 23 is_stmt 0 view .LVU506
 2281 006a 02AE     		add	r6, sp, #8
 2282 006c F35C     		ldrb	r3, [r6, r3]
 2283              	.LVL148:
 972:Drivers/GD32E23x_standard_peripheral/Source/gd32e23x_rcu.c ****     apb1_freq = ahb_freq >> clk_exp;
 2284              		.loc 1 972 5 is_stmt 1 view .LVU507
 2285              		.loc 1 972 15 is_stmt 0 view .LVU508
 2286 006e 2E00     		movs	r6, r5
 2287 0070 DE40     		lsrs	r6, r6, r3
 2288              	.LVL149:
 973:Drivers/GD32E23x_standard_peripheral/Source/gd32e23x_rcu.c ****     
 974:Drivers/GD32E23x_standard_peripheral/Source/gd32e23x_rcu.c ****     /* calculate APB2 clock frequency */
 975:Drivers/GD32E23x_standard_peripheral/Source/gd32e23x_rcu.c ****     idx = GET_BITS(RCU_CFG0, 11, 13);
 2289              		.loc 1 975 5 is_stmt 1 view .LVU509
 2290              		.loc 1 975 11 is_stmt 0 view .LVU510
ARM GAS  /var/folders/rv/zq8s_02j1dj4vjvr1mm5zl2r0000gn/T//cc2hOtpo.s 			page 60


 2291 0072 2368     		ldr	r3, [r4]
 2292              	.LVL150:
 2293              		.loc 1 975 11 view .LVU511
 2294 0074 DB0A     		lsrs	r3, r3, #11
 2295              		.loc 1 975 9 view .LVU512
 2296 0076 1940     		ands	r1, r3
 2297              	.LVL151:
 976:Drivers/GD32E23x_standard_peripheral/Source/gd32e23x_rcu.c ****     clk_exp = apb2_exp[idx];
 2298              		.loc 1 976 5 is_stmt 1 view .LVU513
 2299              		.loc 1 976 23 is_stmt 0 view .LVU514
 2300 0078 6B46     		mov	r3, sp
 2301 007a 5B5C     		ldrb	r3, [r3, r1]
 2302              	.LVL152:
 977:Drivers/GD32E23x_standard_peripheral/Source/gd32e23x_rcu.c ****     apb2_freq = ahb_freq >> clk_exp;
 2303              		.loc 1 977 5 is_stmt 1 view .LVU515
 2304              		.loc 1 977 15 is_stmt 0 view .LVU516
 2305 007c 2900     		movs	r1, r5
 2306              	.LVL153:
 2307              		.loc 1 977 15 view .LVU517
 2308 007e D940     		lsrs	r1, r1, r3
 2309              	.LVL154:
 978:Drivers/GD32E23x_standard_peripheral/Source/gd32e23x_rcu.c ****     
 979:Drivers/GD32E23x_standard_peripheral/Source/gd32e23x_rcu.c ****     /* return the clocks frequency */
 980:Drivers/GD32E23x_standard_peripheral/Source/gd32e23x_rcu.c ****     switch(clock){
 2310              		.loc 1 980 5 is_stmt 1 view .LVU518
 2311 0080 052A     		cmp	r2, #5
 2312 0082 34D8     		bhi	.L124
 2313 0084 9200     		lsls	r2, r2, #2
 2314 0086 5D4B     		ldr	r3, .L151
 2315              	.LVL155:
 2316              		.loc 1 980 5 is_stmt 0 view .LVU519
 2317 0088 9B58     		ldr	r3, [r3, r2]
 2318 008a 9F46     		mov	pc, r3
 2319              		.section	.rodata.rcu_clock_freq_get,"a",%progbits
 2320              		.align	2
 2321              	.L126:
 2322 0000 F4000000 		.word	.L119
 2323 0004 F2000000 		.word	.L130
 2324 0008 F8000000 		.word	.L129
 2325 000c FC000000 		.word	.L128
 2326 0010 00010000 		.word	.L127
 2327 0014 96010000 		.word	.L125
 2328              		.section	.text.rcu_clock_freq_get
 2329              	.LVL156:
 2330              	.L148:
 939:Drivers/GD32E23x_standard_peripheral/Source/gd32e23x_rcu.c ****         pllmf4 = GET_BITS(RCU_CFG0, 27, 27);
 2331              		.loc 1 939 9 is_stmt 1 view .LVU520
 939:Drivers/GD32E23x_standard_peripheral/Source/gd32e23x_rcu.c ****         pllmf4 = GET_BITS(RCU_CFG0, 27, 27);
 2332              		.loc 1 939 17 is_stmt 0 view .LVU521
 2333 008c 41F20403 		movw	r3, #4100
 2334              	.LVL157:
 939:Drivers/GD32E23x_standard_peripheral/Source/gd32e23x_rcu.c ****         pllmf4 = GET_BITS(RCU_CFG0, 27, 27);
 2335              		.loc 1 939 17 view .LVU522
 2336 0090 C4F20203 		movt	r3, 16386
 2337 0094 1968     		ldr	r1, [r3]
 2338              	.LVL158:
 939:Drivers/GD32E23x_standard_peripheral/Source/gd32e23x_rcu.c ****         pllmf4 = GET_BITS(RCU_CFG0, 27, 27);
ARM GAS  /var/folders/rv/zq8s_02j1dj4vjvr1mm5zl2r0000gn/T//cc2hOtpo.s 			page 61


 2339              		.loc 1 939 17 view .LVU523
 2340 0096 890C     		lsrs	r1, r1, #18
 939:Drivers/GD32E23x_standard_peripheral/Source/gd32e23x_rcu.c ****         pllmf4 = GET_BITS(RCU_CFG0, 27, 27);
 2341              		.loc 1 939 15 view .LVU524
 2342 0098 0F20     		movs	r0, #15
 2343 009a 0840     		ands	r0, r1
 2344              	.LVL159:
 940:Drivers/GD32E23x_standard_peripheral/Source/gd32e23x_rcu.c ****         /* high 16 bits */
 2345              		.loc 1 940 9 is_stmt 1 view .LVU525
 940:Drivers/GD32E23x_standard_peripheral/Source/gd32e23x_rcu.c ****         /* high 16 bits */
 2346              		.loc 1 940 18 is_stmt 0 view .LVU526
 2347 009c 1B68     		ldr	r3, [r3]
 2348              	.LVL160:
 942:Drivers/GD32E23x_standard_peripheral/Source/gd32e23x_rcu.c ****             pllmf += 17U;
 2349              		.loc 1 942 9 is_stmt 1 view .LVU527
 942:Drivers/GD32E23x_standard_peripheral/Source/gd32e23x_rcu.c ****             pllmf += 17U;
 2350              		.loc 1 942 11 is_stmt 0 view .LVU528
 2351 009e 1B01     		lsls	r3, r3, #4
 2352 00a0 17D5     		bpl	.L121
 2353              	.LVL161:
 943:Drivers/GD32E23x_standard_peripheral/Source/gd32e23x_rcu.c ****         }else if(15U == pllmf){
 2354              		.loc 1 943 13 is_stmt 1 view .LVU529
 943:Drivers/GD32E23x_standard_peripheral/Source/gd32e23x_rcu.c ****         }else if(15U == pllmf){
 2355              		.loc 1 943 19 is_stmt 0 view .LVU530
 2356 00a2 1130     		adds	r0, r0, #17
 2357              	.LVL162:
 2358              	.L122:
 951:Drivers/GD32E23x_standard_peripheral/Source/gd32e23x_rcu.c ****         if(0U != pllsel){
 2359              		.loc 1 951 9 is_stmt 1 view .LVU531
 951:Drivers/GD32E23x_standard_peripheral/Source/gd32e23x_rcu.c ****         if(0U != pllsel){
 2360              		.loc 1 951 18 is_stmt 0 view .LVU532
 2361 00a4 41F20403 		movw	r3, #4100
 2362 00a8 C4F20203 		movt	r3, 16386
 2363 00ac 1B68     		ldr	r3, [r3]
 2364              	.LVL163:
 952:Drivers/GD32E23x_standard_peripheral/Source/gd32e23x_rcu.c ****             prediv = (GET_BITS(RCU_CFG1, 0, 3) + 1U);
 2365              		.loc 1 952 9 is_stmt 1 view .LVU533
 952:Drivers/GD32E23x_standard_peripheral/Source/gd32e23x_rcu.c ****             prediv = (GET_BITS(RCU_CFG1, 0, 3) + 1U);
 2366              		.loc 1 952 11 is_stmt 0 view .LVU534
 2367 00ae DB03     		lsls	r3, r3, #15
 2368 00b0 15D5     		bpl	.L123
 2369              	.LVL164:
 953:Drivers/GD32E23x_standard_peripheral/Source/gd32e23x_rcu.c ****             cksys_freq = (HXTAL_VALUE / prediv) * pllmf;
 2370              		.loc 1 953 13 is_stmt 1 view .LVU535
 953:Drivers/GD32E23x_standard_peripheral/Source/gd32e23x_rcu.c ****             cksys_freq = (HXTAL_VALUE / prediv) * pllmf;
 2371              		.loc 1 953 23 is_stmt 0 view .LVU536
 2372 00b2 41F22C03 		movw	r3, #4140
 2373 00b6 C4F20203 		movt	r3, 16386
 2374 00ba 1968     		ldr	r1, [r3]
 2375 00bc 0F23     		movs	r3, #15
 2376 00be 0B40     		ands	r3, r1
 953:Drivers/GD32E23x_standard_peripheral/Source/gd32e23x_rcu.c ****             cksys_freq = (HXTAL_VALUE / prediv) * pllmf;
 2377              		.loc 1 953 20 view .LVU537
 2378 00c0 0133     		adds	r3, r3, #1
 2379              	.LVL165:
 954:Drivers/GD32E23x_standard_peripheral/Source/gd32e23x_rcu.c ****         }else{
 2380              		.loc 1 954 13 is_stmt 1 view .LVU538
ARM GAS  /var/folders/rv/zq8s_02j1dj4vjvr1mm5zl2r0000gn/T//cc2hOtpo.s 			page 62


 954:Drivers/GD32E23x_standard_peripheral/Source/gd32e23x_rcu.c ****         }else{
 2381              		.loc 1 954 39 is_stmt 0 view .LVU539
 2382 00c2 41F20021 		movw	r1, #4608
 2383 00c6 C0F27A01 		movt	r1, 122
 2384 00ca B1FBF3F3 		udiv	r3, r1, r3
 2385              	.LVL166:
 954:Drivers/GD32E23x_standard_peripheral/Source/gd32e23x_rcu.c ****         }else{
 2386              		.loc 1 954 24 view .LVU540
 2387 00ce 5843     		muls	r0, r3
 2388              	.LVL167:
 954:Drivers/GD32E23x_standard_peripheral/Source/gd32e23x_rcu.c ****         }else{
 2389              		.loc 1 954 24 view .LVU541
 2390 00d0 BBE7     		b	.L120
 2391              	.LVL168:
 2392              	.L121:
 944:Drivers/GD32E23x_standard_peripheral/Source/gd32e23x_rcu.c ****             pllmf = 16U;
 2393              		.loc 1 944 15 is_stmt 1 view .LVU542
 944:Drivers/GD32E23x_standard_peripheral/Source/gd32e23x_rcu.c ****             pllmf = 16U;
 2394              		.loc 1 944 17 is_stmt 0 view .LVU543
 2395 00d2 0F28     		cmp	r0, #15
 2396 00d4 01D0     		beq	.L143
 947:Drivers/GD32E23x_standard_peripheral/Source/gd32e23x_rcu.c ****         }
 2397              		.loc 1 947 13 is_stmt 1 view .LVU544
 947:Drivers/GD32E23x_standard_peripheral/Source/gd32e23x_rcu.c ****         }
 2398              		.loc 1 947 19 is_stmt 0 view .LVU545
 2399 00d6 0230     		adds	r0, r0, #2
 2400              	.LVL169:
 947:Drivers/GD32E23x_standard_peripheral/Source/gd32e23x_rcu.c ****         }
 2401              		.loc 1 947 19 view .LVU546
 2402 00d8 E4E7     		b	.L122
 2403              	.L143:
 945:Drivers/GD32E23x_standard_peripheral/Source/gd32e23x_rcu.c ****         }else{
 2404              		.loc 1 945 19 view .LVU547
 2405 00da 1020     		movs	r0, #16
 2406              	.LVL170:
 945:Drivers/GD32E23x_standard_peripheral/Source/gd32e23x_rcu.c ****         }else{
 2407              		.loc 1 945 19 view .LVU548
 2408 00dc E2E7     		b	.L122
 2409              	.LVL171:
 2410              	.L123:
 956:Drivers/GD32E23x_standard_peripheral/Source/gd32e23x_rcu.c ****         }
 2411              		.loc 1 956 13 is_stmt 1 view .LVU549
 956:Drivers/GD32E23x_standard_peripheral/Source/gd32e23x_rcu.c ****         }
 2412              		.loc 1 956 24 is_stmt 0 view .LVU550
 2413 00de 4101     		lsls	r1, r0, #5
 2414 00e0 091A     		subs	r1, r1, r0
 2415 00e2 8B01     		lsls	r3, r1, #6
 2416 00e4 5B1A     		subs	r3, r3, r1
 2417 00e6 DB00     		lsls	r3, r3, #3
 2418 00e8 1818     		adds	r0, r3, r0
 2419              	.LVL172:
 956:Drivers/GD32E23x_standard_peripheral/Source/gd32e23x_rcu.c ****         }
 2420              		.loc 1 956 24 view .LVU551
 2421 00ea 0002     		lsls	r0, r0, #8
 2422              	.LVL173:
 956:Drivers/GD32E23x_standard_peripheral/Source/gd32e23x_rcu.c ****         }
 2423              		.loc 1 956 24 view .LVU552
ARM GAS  /var/folders/rv/zq8s_02j1dj4vjvr1mm5zl2r0000gn/T//cc2hOtpo.s 			page 63


 2424 00ec ADE7     		b	.L120
 2425              	.LVL174:
 2426              	.L124:
 2427              		.loc 1 980 5 view .LVU553
 2428 00ee 0020     		movs	r0, #0
 2429              	.LVL175:
 2430              		.loc 1 980 5 view .LVU554
 2431 00f0 00E0     		b	.L119
 2432              	.LVL176:
 2433              	.L130:
 981:Drivers/GD32E23x_standard_peripheral/Source/gd32e23x_rcu.c ****     case CK_SYS:
 982:Drivers/GD32E23x_standard_peripheral/Source/gd32e23x_rcu.c ****         ck_freq = cksys_freq;
 983:Drivers/GD32E23x_standard_peripheral/Source/gd32e23x_rcu.c ****         break;
 984:Drivers/GD32E23x_standard_peripheral/Source/gd32e23x_rcu.c ****     case CK_AHB:
 985:Drivers/GD32E23x_standard_peripheral/Source/gd32e23x_rcu.c ****         ck_freq = ahb_freq;
 2434              		.loc 1 985 9 is_stmt 1 view .LVU555
 986:Drivers/GD32E23x_standard_peripheral/Source/gd32e23x_rcu.c ****         break;
 2435              		.loc 1 986 9 view .LVU556
 985:Drivers/GD32E23x_standard_peripheral/Source/gd32e23x_rcu.c ****         break;
 2436              		.loc 1 985 17 is_stmt 0 view .LVU557
 2437 00f2 2800     		movs	r0, r5
 2438              	.LVL177:
 2439              	.L119:
 987:Drivers/GD32E23x_standard_peripheral/Source/gd32e23x_rcu.c ****     case CK_APB1:
 988:Drivers/GD32E23x_standard_peripheral/Source/gd32e23x_rcu.c ****         ck_freq = apb1_freq;
 989:Drivers/GD32E23x_standard_peripheral/Source/gd32e23x_rcu.c ****         break;
 990:Drivers/GD32E23x_standard_peripheral/Source/gd32e23x_rcu.c ****     case CK_APB2:
 991:Drivers/GD32E23x_standard_peripheral/Source/gd32e23x_rcu.c ****         ck_freq = apb2_freq;
 992:Drivers/GD32E23x_standard_peripheral/Source/gd32e23x_rcu.c ****         break;
 993:Drivers/GD32E23x_standard_peripheral/Source/gd32e23x_rcu.c ****     case CK_ADC:
 994:Drivers/GD32E23x_standard_peripheral/Source/gd32e23x_rcu.c ****         /* calculate ADC clock frequency */
 995:Drivers/GD32E23x_standard_peripheral/Source/gd32e23x_rcu.c ****         if(RCU_ADCSRC_AHB_APB2DIV != (RCU_CFG2 & RCU_CFG2_ADCSEL)){
 996:Drivers/GD32E23x_standard_peripheral/Source/gd32e23x_rcu.c ****             if(RCU_ADC_IRC28M_DIV1 != (RCU_CFG2 & RCU_CFG2_IRC28MDIV)){
 997:Drivers/GD32E23x_standard_peripheral/Source/gd32e23x_rcu.c ****                 adc_freq = IRC28M_VALUE >> 1;
 998:Drivers/GD32E23x_standard_peripheral/Source/gd32e23x_rcu.c ****             }else{
 999:Drivers/GD32E23x_standard_peripheral/Source/gd32e23x_rcu.c ****                 adc_freq = IRC28M_VALUE;
1000:Drivers/GD32E23x_standard_peripheral/Source/gd32e23x_rcu.c ****             }
1001:Drivers/GD32E23x_standard_peripheral/Source/gd32e23x_rcu.c ****         }else{
1002:Drivers/GD32E23x_standard_peripheral/Source/gd32e23x_rcu.c ****             /* ADC clock select CK_APB2 divided by 2/4/6/8 or CK_AHB divided by 3/5/7/9 */
1003:Drivers/GD32E23x_standard_peripheral/Source/gd32e23x_rcu.c ****             adcps = GET_BITS(RCU_CFG0, 14, 15);
1004:Drivers/GD32E23x_standard_peripheral/Source/gd32e23x_rcu.c ****             adcps2 = GET_BITS(RCU_CFG2, 31, 31);
1005:Drivers/GD32E23x_standard_peripheral/Source/gd32e23x_rcu.c ****             switch(adcps){
1006:Drivers/GD32E23x_standard_peripheral/Source/gd32e23x_rcu.c ****             case 0:
1007:Drivers/GD32E23x_standard_peripheral/Source/gd32e23x_rcu.c ****                 if(0U == adcps2){
1008:Drivers/GD32E23x_standard_peripheral/Source/gd32e23x_rcu.c ****                    adc_freq = apb2_freq / 2U;
1009:Drivers/GD32E23x_standard_peripheral/Source/gd32e23x_rcu.c ****                 }else{
1010:Drivers/GD32E23x_standard_peripheral/Source/gd32e23x_rcu.c ****                    adc_freq = ahb_freq / 3U;
1011:Drivers/GD32E23x_standard_peripheral/Source/gd32e23x_rcu.c ****                 }
1012:Drivers/GD32E23x_standard_peripheral/Source/gd32e23x_rcu.c ****                 break;
1013:Drivers/GD32E23x_standard_peripheral/Source/gd32e23x_rcu.c ****             case 1:
1014:Drivers/GD32E23x_standard_peripheral/Source/gd32e23x_rcu.c ****                 if(0U == adcps2){
1015:Drivers/GD32E23x_standard_peripheral/Source/gd32e23x_rcu.c ****                    adc_freq = apb2_freq / 4U;
1016:Drivers/GD32E23x_standard_peripheral/Source/gd32e23x_rcu.c ****                 }else{
1017:Drivers/GD32E23x_standard_peripheral/Source/gd32e23x_rcu.c ****                    adc_freq = ahb_freq / 5U;
1018:Drivers/GD32E23x_standard_peripheral/Source/gd32e23x_rcu.c ****                 }
1019:Drivers/GD32E23x_standard_peripheral/Source/gd32e23x_rcu.c ****                 break;
1020:Drivers/GD32E23x_standard_peripheral/Source/gd32e23x_rcu.c ****             case 2:
ARM GAS  /var/folders/rv/zq8s_02j1dj4vjvr1mm5zl2r0000gn/T//cc2hOtpo.s 			page 64


1021:Drivers/GD32E23x_standard_peripheral/Source/gd32e23x_rcu.c ****                 if(0U == adcps2){
1022:Drivers/GD32E23x_standard_peripheral/Source/gd32e23x_rcu.c ****                    adc_freq = apb2_freq / 6U;
1023:Drivers/GD32E23x_standard_peripheral/Source/gd32e23x_rcu.c ****                 }else{
1024:Drivers/GD32E23x_standard_peripheral/Source/gd32e23x_rcu.c ****                    adc_freq = ahb_freq / 7U;
1025:Drivers/GD32E23x_standard_peripheral/Source/gd32e23x_rcu.c ****                 }
1026:Drivers/GD32E23x_standard_peripheral/Source/gd32e23x_rcu.c ****                 break;
1027:Drivers/GD32E23x_standard_peripheral/Source/gd32e23x_rcu.c ****             case 3:
1028:Drivers/GD32E23x_standard_peripheral/Source/gd32e23x_rcu.c ****                 if(0U == adcps2){
1029:Drivers/GD32E23x_standard_peripheral/Source/gd32e23x_rcu.c ****                    adc_freq = apb2_freq / 8U;
1030:Drivers/GD32E23x_standard_peripheral/Source/gd32e23x_rcu.c ****                 }else{
1031:Drivers/GD32E23x_standard_peripheral/Source/gd32e23x_rcu.c ****                    adc_freq = ahb_freq / 9U;
1032:Drivers/GD32E23x_standard_peripheral/Source/gd32e23x_rcu.c ****                 }
1033:Drivers/GD32E23x_standard_peripheral/Source/gd32e23x_rcu.c ****                 break;
1034:Drivers/GD32E23x_standard_peripheral/Source/gd32e23x_rcu.c ****             default:
1035:Drivers/GD32E23x_standard_peripheral/Source/gd32e23x_rcu.c ****                 break;
1036:Drivers/GD32E23x_standard_peripheral/Source/gd32e23x_rcu.c ****             }
1037:Drivers/GD32E23x_standard_peripheral/Source/gd32e23x_rcu.c ****         }
1038:Drivers/GD32E23x_standard_peripheral/Source/gd32e23x_rcu.c ****         ck_freq = adc_freq;
1039:Drivers/GD32E23x_standard_peripheral/Source/gd32e23x_rcu.c ****         break;
1040:Drivers/GD32E23x_standard_peripheral/Source/gd32e23x_rcu.c ****     case CK_USART:
1041:Drivers/GD32E23x_standard_peripheral/Source/gd32e23x_rcu.c ****         /* calculate USART0 clock frequency */
1042:Drivers/GD32E23x_standard_peripheral/Source/gd32e23x_rcu.c ****         if(RCU_USART0SRC_CKAPB2 == (RCU_CFG2 & RCU_CFG2_USART0SEL)){
1043:Drivers/GD32E23x_standard_peripheral/Source/gd32e23x_rcu.c ****             usart_freq = apb2_freq;
1044:Drivers/GD32E23x_standard_peripheral/Source/gd32e23x_rcu.c ****         }else if(RCU_USART0SRC_CKSYS == (RCU_CFG2 & RCU_CFG2_USART0SEL)){
1045:Drivers/GD32E23x_standard_peripheral/Source/gd32e23x_rcu.c ****             usart_freq = cksys_freq;
1046:Drivers/GD32E23x_standard_peripheral/Source/gd32e23x_rcu.c ****         }else if(RCU_USART0SRC_LXTAL == (RCU_CFG2 & RCU_CFG2_USART0SEL)){
1047:Drivers/GD32E23x_standard_peripheral/Source/gd32e23x_rcu.c ****             usart_freq = LXTAL_VALUE;
1048:Drivers/GD32E23x_standard_peripheral/Source/gd32e23x_rcu.c ****         }else if(RCU_USART0SRC_IRC8M == (RCU_CFG2 & RCU_CFG2_USART0SEL)){
1049:Drivers/GD32E23x_standard_peripheral/Source/gd32e23x_rcu.c ****             usart_freq = IRC8M_VALUE;
1050:Drivers/GD32E23x_standard_peripheral/Source/gd32e23x_rcu.c ****         }else{
1051:Drivers/GD32E23x_standard_peripheral/Source/gd32e23x_rcu.c ****         }
1052:Drivers/GD32E23x_standard_peripheral/Source/gd32e23x_rcu.c ****         ck_freq = usart_freq;
1053:Drivers/GD32E23x_standard_peripheral/Source/gd32e23x_rcu.c ****         break;
1054:Drivers/GD32E23x_standard_peripheral/Source/gd32e23x_rcu.c ****     default:
1055:Drivers/GD32E23x_standard_peripheral/Source/gd32e23x_rcu.c ****         break;
1056:Drivers/GD32E23x_standard_peripheral/Source/gd32e23x_rcu.c ****     }
1057:Drivers/GD32E23x_standard_peripheral/Source/gd32e23x_rcu.c ****     return ck_freq;
1058:Drivers/GD32E23x_standard_peripheral/Source/gd32e23x_rcu.c **** }
 2440              		.loc 1 1058 1 view .LVU558
 2441 00f4 08B0     		add	sp, sp, #32
 2442              		.loc 1 1058 1 view .LVU559
 2443              		@ sp needed
 2444              	.LVL178:
 2445              	.LVL179:
 2446              		.loc 1 1058 1 view .LVU560
 2447 00f6 70BD     		pop	{r4, r5, r6, pc}
 2448              	.LVL180:
 2449              	.L129:
 988:Drivers/GD32E23x_standard_peripheral/Source/gd32e23x_rcu.c ****         break;
 2450              		.loc 1 988 9 is_stmt 1 view .LVU561
 989:Drivers/GD32E23x_standard_peripheral/Source/gd32e23x_rcu.c ****     case CK_APB2:
 2451              		.loc 1 989 9 view .LVU562
 988:Drivers/GD32E23x_standard_peripheral/Source/gd32e23x_rcu.c ****         break;
 2452              		.loc 1 988 17 is_stmt 0 view .LVU563
 2453 00f8 3000     		movs	r0, r6
 2454              	.LVL181:
 989:Drivers/GD32E23x_standard_peripheral/Source/gd32e23x_rcu.c ****     case CK_APB2:
ARM GAS  /var/folders/rv/zq8s_02j1dj4vjvr1mm5zl2r0000gn/T//cc2hOtpo.s 			page 65


 2455              		.loc 1 989 9 view .LVU564
 2456 00fa FBE7     		b	.L119
 2457              	.LVL182:
 2458              	.L128:
 991:Drivers/GD32E23x_standard_peripheral/Source/gd32e23x_rcu.c ****         break;
 2459              		.loc 1 991 9 is_stmt 1 view .LVU565
 992:Drivers/GD32E23x_standard_peripheral/Source/gd32e23x_rcu.c ****     case CK_ADC:
 2460              		.loc 1 992 9 view .LVU566
 991:Drivers/GD32E23x_standard_peripheral/Source/gd32e23x_rcu.c ****         break;
 2461              		.loc 1 991 17 is_stmt 0 view .LVU567
 2462 00fc 0800     		movs	r0, r1
 2463              	.LVL183:
 992:Drivers/GD32E23x_standard_peripheral/Source/gd32e23x_rcu.c ****     case CK_ADC:
 2464              		.loc 1 992 9 view .LVU568
 2465 00fe F9E7     		b	.L119
 2466              	.LVL184:
 2467              	.L127:
 995:Drivers/GD32E23x_standard_peripheral/Source/gd32e23x_rcu.c ****             if(RCU_ADC_IRC28M_DIV1 != (RCU_CFG2 & RCU_CFG2_IRC28MDIV)){
 2468              		.loc 1 995 9 is_stmt 1 view .LVU569
 995:Drivers/GD32E23x_standard_peripheral/Source/gd32e23x_rcu.c ****             if(RCU_ADC_IRC28M_DIV1 != (RCU_CFG2 & RCU_CFG2_IRC28MDIV)){
 2469              		.loc 1 995 39 is_stmt 0 view .LVU570
 2470 0100 41F23003 		movw	r3, #4144
 2471 0104 C4F20203 		movt	r3, 16386
 2472 0108 1B68     		ldr	r3, [r3]
 995:Drivers/GD32E23x_standard_peripheral/Source/gd32e23x_rcu.c ****             if(RCU_ADC_IRC28M_DIV1 != (RCU_CFG2 & RCU_CFG2_IRC28MDIV)){
 2473              		.loc 1 995 11 view .LVU571
 2474 010a DB05     		lsls	r3, r3, #23
 2475 010c 0BD4     		bmi	.L132
 996:Drivers/GD32E23x_standard_peripheral/Source/gd32e23x_rcu.c ****                 adc_freq = IRC28M_VALUE >> 1;
 2476              		.loc 1 996 13 is_stmt 1 view .LVU572
 996:Drivers/GD32E23x_standard_peripheral/Source/gd32e23x_rcu.c ****                 adc_freq = IRC28M_VALUE >> 1;
 2477              		.loc 1 996 40 is_stmt 0 view .LVU573
 2478 010e 41F23003 		movw	r3, #4144
 2479 0112 C4F20203 		movt	r3, 16386
 2480 0116 1B68     		ldr	r3, [r3]
 996:Drivers/GD32E23x_standard_peripheral/Source/gd32e23x_rcu.c ****                 adc_freq = IRC28M_VALUE >> 1;
 2481              		.loc 1 996 15 view .LVU574
 2482 0118 DB03     		lsls	r3, r3, #15
 2483 011a 60D4     		bmi	.L144
 997:Drivers/GD32E23x_standard_peripheral/Source/gd32e23x_rcu.c ****             }else{
 2484              		.loc 1 997 26 view .LVU575
 2485 011c 49F68070 		movw	r0, #40832
 2486              	.LVL185:
 997:Drivers/GD32E23x_standard_peripheral/Source/gd32e23x_rcu.c ****             }else{
 2487              		.loc 1 997 26 view .LVU576
 2488 0120 C0F2D500 		movt	r0, 213
 2489 0124 E6E7     		b	.L119
 2490              	.LVL186:
 2491              	.L132:
1003:Drivers/GD32E23x_standard_peripheral/Source/gd32e23x_rcu.c ****             adcps2 = GET_BITS(RCU_CFG2, 31, 31);
 2492              		.loc 1 1003 13 is_stmt 1 view .LVU577
1003:Drivers/GD32E23x_standard_peripheral/Source/gd32e23x_rcu.c ****             adcps2 = GET_BITS(RCU_CFG2, 31, 31);
 2493              		.loc 1 1003 21 is_stmt 0 view .LVU578
 2494 0126 41F20403 		movw	r3, #4100
 2495 012a C4F20203 		movt	r3, 16386
 2496 012e 1A68     		ldr	r2, [r3]
 2497 0130 920B     		lsrs	r2, r2, #14
ARM GAS  /var/folders/rv/zq8s_02j1dj4vjvr1mm5zl2r0000gn/T//cc2hOtpo.s 			page 66


1003:Drivers/GD32E23x_standard_peripheral/Source/gd32e23x_rcu.c ****             adcps2 = GET_BITS(RCU_CFG2, 31, 31);
 2498              		.loc 1 1003 19 view .LVU579
 2499 0132 0323     		movs	r3, #3
1003:Drivers/GD32E23x_standard_peripheral/Source/gd32e23x_rcu.c ****             adcps2 = GET_BITS(RCU_CFG2, 31, 31);
 2500              		.loc 1 1003 19 view .LVU580
 2501 0134 1340     		ands	r3, r2
 2502              	.LVL187:
1004:Drivers/GD32E23x_standard_peripheral/Source/gd32e23x_rcu.c ****             switch(adcps){
 2503              		.loc 1 1004 13 is_stmt 1 view .LVU581
1004:Drivers/GD32E23x_standard_peripheral/Source/gd32e23x_rcu.c ****             switch(adcps){
 2504              		.loc 1 1004 22 is_stmt 0 view .LVU582
 2505 0136 41F23002 		movw	r2, #4144
 2506 013a C4F20202 		movt	r2, 16386
 2507 013e 1268     		ldr	r2, [r2]
 2508 0140 D20F     		lsrs	r2, r2, #31
 2509              	.LVL188:
1005:Drivers/GD32E23x_standard_peripheral/Source/gd32e23x_rcu.c ****             case 0:
 2510              		.loc 1 1005 13 is_stmt 1 view .LVU583
 2511 0142 022B     		cmp	r3, #2
 2512 0144 1AD0     		beq	.L133
 2513 0146 07D8     		bhi	.L134
 2514 0148 6BB1     		cbz	r3, .L135
 2515 014a 012B     		cmp	r3, #1
 2516 014c 02D1     		bne	.L149
1014:Drivers/GD32E23x_standard_peripheral/Source/gd32e23x_rcu.c ****                    adc_freq = apb2_freq / 4U;
 2517              		.loc 1 1014 17 view .LVU584
1014:Drivers/GD32E23x_standard_peripheral/Source/gd32e23x_rcu.c ****                    adc_freq = apb2_freq / 4U;
 2518              		.loc 1 1014 19 is_stmt 0 view .LVU585
 2519 014e 8AB9     		cbnz	r2, .L139
1015:Drivers/GD32E23x_standard_peripheral/Source/gd32e23x_rcu.c ****                 }else{
 2520              		.loc 1 1015 20 is_stmt 1 view .LVU586
1015:Drivers/GD32E23x_standard_peripheral/Source/gd32e23x_rcu.c ****                 }else{
 2521              		.loc 1 1015 29 is_stmt 0 view .LVU587
 2522 0150 8808     		lsrs	r0, r1, #2
 2523              	.LVL189:
1015:Drivers/GD32E23x_standard_peripheral/Source/gd32e23x_rcu.c ****                 }else{
 2524              		.loc 1 1015 29 view .LVU588
 2525 0152 CFE7     		b	.L119
 2526              	.LVL190:
 2527              	.L149:
1015:Drivers/GD32E23x_standard_peripheral/Source/gd32e23x_rcu.c ****                 }else{
 2528              		.loc 1 1015 29 view .LVU589
 2529 0154 0020     		movs	r0, #0
 2530              	.LVL191:
1015:Drivers/GD32E23x_standard_peripheral/Source/gd32e23x_rcu.c ****                 }else{
 2531              		.loc 1 1015 29 view .LVU590
 2532 0156 CDE7     		b	.L119
 2533              	.LVL192:
 2534              	.L134:
1015:Drivers/GD32E23x_standard_peripheral/Source/gd32e23x_rcu.c ****                 }else{
 2535              		.loc 1 1015 29 view .LVU591
 2536 0158 032B     		cmp	r3, #3
 2537 015a 02D1     		bne	.L150
1028:Drivers/GD32E23x_standard_peripheral/Source/gd32e23x_rcu.c ****                    adc_freq = apb2_freq / 8U;
 2538              		.loc 1 1028 17 is_stmt 1 view .LVU592
1028:Drivers/GD32E23x_standard_peripheral/Source/gd32e23x_rcu.c ****                    adc_freq = apb2_freq / 8U;
 2539              		.loc 1 1028 19 is_stmt 0 view .LVU593
ARM GAS  /var/folders/rv/zq8s_02j1dj4vjvr1mm5zl2r0000gn/T//cc2hOtpo.s 			page 67


 2540 015c BAB9     		cbnz	r2, .L141
1029:Drivers/GD32E23x_standard_peripheral/Source/gd32e23x_rcu.c ****                 }else{
 2541              		.loc 1 1029 20 is_stmt 1 view .LVU594
1029:Drivers/GD32E23x_standard_peripheral/Source/gd32e23x_rcu.c ****                 }else{
 2542              		.loc 1 1029 29 is_stmt 0 view .LVU595
 2543 015e C808     		lsrs	r0, r1, #3
 2544              	.LVL193:
1029:Drivers/GD32E23x_standard_peripheral/Source/gd32e23x_rcu.c ****                 }else{
 2545              		.loc 1 1029 29 view .LVU596
 2546 0160 C8E7     		b	.L119
 2547              	.LVL194:
 2548              	.L150:
1029:Drivers/GD32E23x_standard_peripheral/Source/gd32e23x_rcu.c ****                 }else{
 2549              		.loc 1 1029 29 view .LVU597
 2550 0162 0020     		movs	r0, #0
 2551              	.LVL195:
1029:Drivers/GD32E23x_standard_peripheral/Source/gd32e23x_rcu.c ****                 }else{
 2552              		.loc 1 1029 29 view .LVU598
 2553 0164 C6E7     		b	.L119
 2554              	.LVL196:
 2555              	.L135:
1007:Drivers/GD32E23x_standard_peripheral/Source/gd32e23x_rcu.c ****                    adc_freq = apb2_freq / 2U;
 2556              		.loc 1 1007 17 is_stmt 1 view .LVU599
1007:Drivers/GD32E23x_standard_peripheral/Source/gd32e23x_rcu.c ****                    adc_freq = apb2_freq / 2U;
 2557              		.loc 1 1007 19 is_stmt 0 view .LVU600
 2558 0166 0AB9     		cbnz	r2, .L138
1008:Drivers/GD32E23x_standard_peripheral/Source/gd32e23x_rcu.c ****                 }else{
 2559              		.loc 1 1008 20 is_stmt 1 view .LVU601
1008:Drivers/GD32E23x_standard_peripheral/Source/gd32e23x_rcu.c ****                 }else{
 2560              		.loc 1 1008 29 is_stmt 0 view .LVU602
 2561 0168 4808     		lsrs	r0, r1, #1
 2562              	.LVL197:
1008:Drivers/GD32E23x_standard_peripheral/Source/gd32e23x_rcu.c ****                 }else{
 2563              		.loc 1 1008 29 view .LVU603
 2564 016a C3E7     		b	.L119
 2565              	.LVL198:
 2566              	.L138:
1010:Drivers/GD32E23x_standard_peripheral/Source/gd32e23x_rcu.c ****                 }
 2567              		.loc 1 1010 20 is_stmt 1 view .LVU604
1010:Drivers/GD32E23x_standard_peripheral/Source/gd32e23x_rcu.c ****                 }
 2568              		.loc 1 1010 29 is_stmt 0 view .LVU605
 2569 016c 0320     		movs	r0, #3
 2570              	.LVL199:
1010:Drivers/GD32E23x_standard_peripheral/Source/gd32e23x_rcu.c ****                 }
 2571              		.loc 1 1010 29 view .LVU606
 2572 016e B5FBF0F0 		udiv	r0, r5, r0
 2573              	.LVL200:
1010:Drivers/GD32E23x_standard_peripheral/Source/gd32e23x_rcu.c ****                 }
 2574              		.loc 1 1010 29 view .LVU607
 2575 0172 BFE7     		b	.L119
 2576              	.LVL201:
 2577              	.L139:
1017:Drivers/GD32E23x_standard_peripheral/Source/gd32e23x_rcu.c ****                 }
 2578              		.loc 1 1017 20 is_stmt 1 view .LVU608
1017:Drivers/GD32E23x_standard_peripheral/Source/gd32e23x_rcu.c ****                 }
 2579              		.loc 1 1017 29 is_stmt 0 view .LVU609
 2580 0174 0520     		movs	r0, #5
ARM GAS  /var/folders/rv/zq8s_02j1dj4vjvr1mm5zl2r0000gn/T//cc2hOtpo.s 			page 68


 2581              	.LVL202:
1017:Drivers/GD32E23x_standard_peripheral/Source/gd32e23x_rcu.c ****                 }
 2582              		.loc 1 1017 29 view .LVU610
 2583 0176 B5FBF0F0 		udiv	r0, r5, r0
 2584              	.LVL203:
1017:Drivers/GD32E23x_standard_peripheral/Source/gd32e23x_rcu.c ****                 }
 2585              		.loc 1 1017 29 view .LVU611
 2586 017a BBE7     		b	.L119
 2587              	.LVL204:
 2588              	.L133:
1021:Drivers/GD32E23x_standard_peripheral/Source/gd32e23x_rcu.c ****                    adc_freq = apb2_freq / 6U;
 2589              		.loc 1 1021 17 is_stmt 1 view .LVU612
1021:Drivers/GD32E23x_standard_peripheral/Source/gd32e23x_rcu.c ****                    adc_freq = apb2_freq / 6U;
 2590              		.loc 1 1021 19 is_stmt 0 view .LVU613
 2591 017c 1AB9     		cbnz	r2, .L140
1022:Drivers/GD32E23x_standard_peripheral/Source/gd32e23x_rcu.c ****                 }else{
 2592              		.loc 1 1022 20 is_stmt 1 view .LVU614
1022:Drivers/GD32E23x_standard_peripheral/Source/gd32e23x_rcu.c ****                 }else{
 2593              		.loc 1 1022 29 is_stmt 0 view .LVU615
 2594 017e 0620     		movs	r0, #6
 2595              	.LVL205:
1022:Drivers/GD32E23x_standard_peripheral/Source/gd32e23x_rcu.c ****                 }else{
 2596              		.loc 1 1022 29 view .LVU616
 2597 0180 B1FBF0F0 		udiv	r0, r1, r0
 2598              	.LVL206:
1022:Drivers/GD32E23x_standard_peripheral/Source/gd32e23x_rcu.c ****                 }else{
 2599              		.loc 1 1022 29 view .LVU617
 2600 0184 B6E7     		b	.L119
 2601              	.LVL207:
 2602              	.L140:
1024:Drivers/GD32E23x_standard_peripheral/Source/gd32e23x_rcu.c ****                 }
 2603              		.loc 1 1024 20 is_stmt 1 view .LVU618
1024:Drivers/GD32E23x_standard_peripheral/Source/gd32e23x_rcu.c ****                 }
 2604              		.loc 1 1024 29 is_stmt 0 view .LVU619
 2605 0186 0720     		movs	r0, #7
 2606              	.LVL208:
1024:Drivers/GD32E23x_standard_peripheral/Source/gd32e23x_rcu.c ****                 }
 2607              		.loc 1 1024 29 view .LVU620
 2608 0188 B5FBF0F0 		udiv	r0, r5, r0
 2609              	.LVL209:
1024:Drivers/GD32E23x_standard_peripheral/Source/gd32e23x_rcu.c ****                 }
 2610              		.loc 1 1024 29 view .LVU621
 2611 018c B2E7     		b	.L119
 2612              	.LVL210:
 2613              	.L141:
1031:Drivers/GD32E23x_standard_peripheral/Source/gd32e23x_rcu.c ****                 }
 2614              		.loc 1 1031 20 is_stmt 1 view .LVU622
1031:Drivers/GD32E23x_standard_peripheral/Source/gd32e23x_rcu.c ****                 }
 2615              		.loc 1 1031 29 is_stmt 0 view .LVU623
 2616 018e 0920     		movs	r0, #9
 2617              	.LVL211:
1031:Drivers/GD32E23x_standard_peripheral/Source/gd32e23x_rcu.c ****                 }
 2618              		.loc 1 1031 29 view .LVU624
 2619 0190 B5FBF0F0 		udiv	r0, r5, r0
 2620              	.LVL212:
1031:Drivers/GD32E23x_standard_peripheral/Source/gd32e23x_rcu.c ****                 }
 2621              		.loc 1 1031 29 view .LVU625
ARM GAS  /var/folders/rv/zq8s_02j1dj4vjvr1mm5zl2r0000gn/T//cc2hOtpo.s 			page 69


 2622 0194 AEE7     		b	.L119
 2623              	.LVL213:
 2624              	.L125:
1042:Drivers/GD32E23x_standard_peripheral/Source/gd32e23x_rcu.c ****             usart_freq = apb2_freq;
 2625              		.loc 1 1042 9 is_stmt 1 view .LVU626
1042:Drivers/GD32E23x_standard_peripheral/Source/gd32e23x_rcu.c ****             usart_freq = apb2_freq;
 2626              		.loc 1 1042 37 is_stmt 0 view .LVU627
 2627 0196 41F23003 		movw	r3, #4144
 2628 019a C4F20203 		movt	r3, 16386
 2629 019e 1B68     		ldr	r3, [r3]
1042:Drivers/GD32E23x_standard_peripheral/Source/gd32e23x_rcu.c ****             usart_freq = apb2_freq;
 2630              		.loc 1 1042 11 view .LVU628
 2631 01a0 9B07     		lsls	r3, r3, #30
 2632 01a2 21D0     		beq	.L145
1044:Drivers/GD32E23x_standard_peripheral/Source/gd32e23x_rcu.c ****             usart_freq = cksys_freq;
 2633              		.loc 1 1044 15 is_stmt 1 view .LVU629
1044:Drivers/GD32E23x_standard_peripheral/Source/gd32e23x_rcu.c ****             usart_freq = cksys_freq;
 2634              		.loc 1 1044 42 is_stmt 0 view .LVU630
 2635 01a4 41F23003 		movw	r3, #4144
 2636 01a8 C4F20203 		movt	r3, 16386
 2637 01ac 1A68     		ldr	r2, [r3]
1044:Drivers/GD32E23x_standard_peripheral/Source/gd32e23x_rcu.c ****             usart_freq = cksys_freq;
 2638              		.loc 1 1044 51 view .LVU631
 2639 01ae 0323     		movs	r3, #3
1044:Drivers/GD32E23x_standard_peripheral/Source/gd32e23x_rcu.c ****             usart_freq = cksys_freq;
 2640              		.loc 1 1044 51 view .LVU632
 2641 01b0 1340     		ands	r3, r2
1044:Drivers/GD32E23x_standard_peripheral/Source/gd32e23x_rcu.c ****             usart_freq = cksys_freq;
 2642              		.loc 1 1044 17 view .LVU633
 2643 01b2 012B     		cmp	r3, #1
 2644 01b4 9ED0     		beq	.L119
1046:Drivers/GD32E23x_standard_peripheral/Source/gd32e23x_rcu.c ****             usart_freq = LXTAL_VALUE;
 2645              		.loc 1 1046 15 is_stmt 1 view .LVU634
1046:Drivers/GD32E23x_standard_peripheral/Source/gd32e23x_rcu.c ****             usart_freq = LXTAL_VALUE;
 2646              		.loc 1 1046 42 is_stmt 0 view .LVU635
 2647 01b6 41F23003 		movw	r3, #4144
 2648 01ba C4F20203 		movt	r3, 16386
 2649 01be 1A68     		ldr	r2, [r3]
1046:Drivers/GD32E23x_standard_peripheral/Source/gd32e23x_rcu.c ****             usart_freq = LXTAL_VALUE;
 2650              		.loc 1 1046 51 view .LVU636
 2651 01c0 0323     		movs	r3, #3
1046:Drivers/GD32E23x_standard_peripheral/Source/gd32e23x_rcu.c ****             usart_freq = LXTAL_VALUE;
 2652              		.loc 1 1046 51 view .LVU637
 2653 01c2 1340     		ands	r3, r2
1046:Drivers/GD32E23x_standard_peripheral/Source/gd32e23x_rcu.c ****             usart_freq = LXTAL_VALUE;
 2654              		.loc 1 1046 17 view .LVU638
 2655 01c4 022B     		cmp	r3, #2
 2656 01c6 11D0     		beq	.L146
1048:Drivers/GD32E23x_standard_peripheral/Source/gd32e23x_rcu.c ****             usart_freq = IRC8M_VALUE;
 2657              		.loc 1 1048 15 is_stmt 1 view .LVU639
1048:Drivers/GD32E23x_standard_peripheral/Source/gd32e23x_rcu.c ****             usart_freq = IRC8M_VALUE;
 2658              		.loc 1 1048 42 is_stmt 0 view .LVU640
 2659 01c8 41F23003 		movw	r3, #4144
 2660 01cc C4F20203 		movt	r3, 16386
 2661 01d0 1A68     		ldr	r2, [r3]
1048:Drivers/GD32E23x_standard_peripheral/Source/gd32e23x_rcu.c ****             usart_freq = IRC8M_VALUE;
 2662              		.loc 1 1048 51 view .LVU641
ARM GAS  /var/folders/rv/zq8s_02j1dj4vjvr1mm5zl2r0000gn/T//cc2hOtpo.s 			page 70


 2663 01d2 0323     		movs	r3, #3
1048:Drivers/GD32E23x_standard_peripheral/Source/gd32e23x_rcu.c ****             usart_freq = IRC8M_VALUE;
 2664              		.loc 1 1048 51 view .LVU642
 2665 01d4 1340     		ands	r3, r2
1048:Drivers/GD32E23x_standard_peripheral/Source/gd32e23x_rcu.c ****             usart_freq = IRC8M_VALUE;
 2666              		.loc 1 1048 17 view .LVU643
 2667 01d6 032B     		cmp	r3, #3
 2668 01d8 0BD0     		beq	.L147
 919:Drivers/GD32E23x_standard_peripheral/Source/gd32e23x_rcu.c ****     uint32_t pllmf = 0U, pllmf4 = 0U, pllsel = 0U, prediv = 0U, idx = 0U, clk_exp = 0U;
 2669              		.loc 1 919 29 view .LVU644
 2670 01da 0020     		movs	r0, #0
 2671              	.LVL214:
 919:Drivers/GD32E23x_standard_peripheral/Source/gd32e23x_rcu.c ****     uint32_t pllmf = 0U, pllmf4 = 0U, pllsel = 0U, prediv = 0U, idx = 0U, clk_exp = 0U;
 2672              		.loc 1 919 29 view .LVU645
 2673 01dc 8AE7     		b	.L119
 2674              	.LVL215:
 2675              	.L144:
 999:Drivers/GD32E23x_standard_peripheral/Source/gd32e23x_rcu.c ****             }
 2676              		.loc 1 999 26 view .LVU646
 2677 01de 43F60070 		movw	r0, #16128
 2678              	.LVL216:
 999:Drivers/GD32E23x_standard_peripheral/Source/gd32e23x_rcu.c ****             }
 2679              		.loc 1 999 26 view .LVU647
 2680 01e2 C0F2AB10 		movt	r0, 427
 2681 01e6 85E7     		b	.L119
 2682              	.LVL217:
 2683              	.L145:
1043:Drivers/GD32E23x_standard_peripheral/Source/gd32e23x_rcu.c ****         }else if(RCU_USART0SRC_CKSYS == (RCU_CFG2 & RCU_CFG2_USART0SEL)){
 2684              		.loc 1 1043 24 view .LVU648
 2685 01e8 0800     		movs	r0, r1
 2686              	.LVL218:
1043:Drivers/GD32E23x_standard_peripheral/Source/gd32e23x_rcu.c ****         }else if(RCU_USART0SRC_CKSYS == (RCU_CFG2 & RCU_CFG2_USART0SEL)){
 2687              		.loc 1 1043 24 view .LVU649
 2688 01ea 83E7     		b	.L119
 2689              	.LVL219:
 2690              	.L146:
1047:Drivers/GD32E23x_standard_peripheral/Source/gd32e23x_rcu.c ****         }else if(RCU_USART0SRC_IRC8M == (RCU_CFG2 & RCU_CFG2_USART0SEL)){
 2691              		.loc 1 1047 24 view .LVU650
 2692 01ec 48F20000 		movw	r0, #32768
 2693              	.LVL220:
