ARM GAS  /var/folders/rv/zq8s_02j1dj4vjvr1mm5zl2r0000gn/T//ccSJYVCc.s 			page 1


   1              		.cpu cortex-m23
   2              		.eabi_attribute 20, 1
   3              		.eabi_attribute 21, 1
   4              		.eabi_attribute 23, 3
   5              		.eabi_attribute 24, 1
   6              		.eabi_attribute 25, 1
   7              		.eabi_attribute 26, 1
   8              		.eabi_attribute 30, 1
   9              		.eabi_attribute 34, 0
  10              		.eabi_attribute 18, 4
  11              		.file	"gd32e23x_spi.c"
  12              		.text
  13              	.Ltext0:
  14              		.cfi_sections	.debug_frame
  15              		.section	.text.spi_i2s_deinit,"ax",%progbits
  16              		.align	1
  17              		.global	spi_i2s_deinit
  18              		.arch armv8-m.base
  19              		.syntax unified
  20              		.code	16
  21              		.thumb_func
  22              		.fpu softvfp
  24              	spi_i2s_deinit:
  25              	.LVL0:
  26              	.LFB66:
  27              		.file 1 "Drivers/GD32E23x_standard_peripheral/Source/gd32e23x_spi.c"
   1:Drivers/GD32E23x_standard_peripheral/Source/gd32e23x_spi.c **** /*!
   2:Drivers/GD32E23x_standard_peripheral/Source/gd32e23x_spi.c ****     \file    gd32e23x_spi.c
   3:Drivers/GD32E23x_standard_peripheral/Source/gd32e23x_spi.c ****     \brief   SPI driver
   4:Drivers/GD32E23x_standard_peripheral/Source/gd32e23x_spi.c ****     
   5:Drivers/GD32E23x_standard_peripheral/Source/gd32e23x_spi.c ****     \version 2019-02-19, V1.0.0, firmware for GD32E23x
   6:Drivers/GD32E23x_standard_peripheral/Source/gd32e23x_spi.c ****     \version 2020-12-12, V1.1.0, firmware for GD32E23x
   7:Drivers/GD32E23x_standard_peripheral/Source/gd32e23x_spi.c **** */
   8:Drivers/GD32E23x_standard_peripheral/Source/gd32e23x_spi.c **** 
   9:Drivers/GD32E23x_standard_peripheral/Source/gd32e23x_spi.c **** /*
  10:Drivers/GD32E23x_standard_peripheral/Source/gd32e23x_spi.c ****     Copyright (c) 2020, GigaDevice Semiconductor Inc.
  11:Drivers/GD32E23x_standard_peripheral/Source/gd32e23x_spi.c **** 
  12:Drivers/GD32E23x_standard_peripheral/Source/gd32e23x_spi.c ****     Redistribution and use in source and binary forms, with or without modification, 
  13:Drivers/GD32E23x_standard_peripheral/Source/gd32e23x_spi.c **** are permitted provided that the following conditions are met:
  14:Drivers/GD32E23x_standard_peripheral/Source/gd32e23x_spi.c **** 
  15:Drivers/GD32E23x_standard_peripheral/Source/gd32e23x_spi.c ****     1. Redistributions of source code must retain the above copyright notice, this 
  16:Drivers/GD32E23x_standard_peripheral/Source/gd32e23x_spi.c ****        list of conditions and the following disclaimer.
  17:Drivers/GD32E23x_standard_peripheral/Source/gd32e23x_spi.c ****     2. Redistributions in binary form must reproduce the above copyright notice, 
  18:Drivers/GD32E23x_standard_peripheral/Source/gd32e23x_spi.c ****        this list of conditions and the following disclaimer in the documentation 
  19:Drivers/GD32E23x_standard_peripheral/Source/gd32e23x_spi.c ****        and/or other materials provided with the distribution.
  20:Drivers/GD32E23x_standard_peripheral/Source/gd32e23x_spi.c ****     3. Neither the name of the copyright holder nor the names of its contributors 
  21:Drivers/GD32E23x_standard_peripheral/Source/gd32e23x_spi.c ****        may be used to endorse or promote products derived from this software without 
  22:Drivers/GD32E23x_standard_peripheral/Source/gd32e23x_spi.c ****        specific prior written permission.
  23:Drivers/GD32E23x_standard_peripheral/Source/gd32e23x_spi.c **** 
  24:Drivers/GD32E23x_standard_peripheral/Source/gd32e23x_spi.c ****     THIS SOFTWARE IS PROVIDED BY THE COPYRIGHT HOLDERS AND CONTRIBUTORS "AS IS" 
  25:Drivers/GD32E23x_standard_peripheral/Source/gd32e23x_spi.c **** AND ANY EXPRESS OR IMPLIED WARRANTIES, INCLUDING, BUT NOT LIMITED TO, THE IMPLIED 
  26:Drivers/GD32E23x_standard_peripheral/Source/gd32e23x_spi.c **** WARRANTIES OF MERCHANTABILITY AND FITNESS FOR A PARTICULAR PURPOSE ARE DISCLAIMED. 
  27:Drivers/GD32E23x_standard_peripheral/Source/gd32e23x_spi.c **** IN NO EVENT SHALL THE COPYRIGHT HOLDER OR CONTRIBUTORS BE LIABLE FOR ANY DIRECT, 
  28:Drivers/GD32E23x_standard_peripheral/Source/gd32e23x_spi.c **** INDIRECT, INCIDENTAL, SPECIAL, EXEMPLARY, OR CONSEQUENTIAL DAMAGES (INCLUDING, BUT 
  29:Drivers/GD32E23x_standard_peripheral/Source/gd32e23x_spi.c **** NOT LIMITED TO, PROCUREMENT OF SUBSTITUTE GOODS OR SERVICES; LOSS OF USE, DATA, OR 
  30:Drivers/GD32E23x_standard_peripheral/Source/gd32e23x_spi.c **** PROFITS; OR BUSINESS INTERRUPTION) HOWEVER CAUSED AND ON ANY THEORY OF LIABILITY, 
  31:Drivers/GD32E23x_standard_peripheral/Source/gd32e23x_spi.c **** WHETHER IN CONTRACT, STRICT LIABILITY, OR TORT (INCLUDING NEGLIGENCE OR OTHERWISE) 
ARM GAS  /var/folders/rv/zq8s_02j1dj4vjvr1mm5zl2r0000gn/T//ccSJYVCc.s 			page 2


  32:Drivers/GD32E23x_standard_peripheral/Source/gd32e23x_spi.c **** ARISING IN ANY WAY OUT OF THE USE OF THIS SOFTWARE, EVEN IF ADVISED OF THE POSSIBILITY 
  33:Drivers/GD32E23x_standard_peripheral/Source/gd32e23x_spi.c **** OF SUCH DAMAGE.
  34:Drivers/GD32E23x_standard_peripheral/Source/gd32e23x_spi.c **** */
  35:Drivers/GD32E23x_standard_peripheral/Source/gd32e23x_spi.c **** 
  36:Drivers/GD32E23x_standard_peripheral/Source/gd32e23x_spi.c **** #include "gd32e23x_spi.h"
  37:Drivers/GD32E23x_standard_peripheral/Source/gd32e23x_spi.c **** 
  38:Drivers/GD32E23x_standard_peripheral/Source/gd32e23x_spi.c **** /* SPI/I2S parameter initialization mask */
  39:Drivers/GD32E23x_standard_peripheral/Source/gd32e23x_spi.c **** #define SPI_INIT_MASK                        ((uint32_t)0x00003040U)  /*!< SPI0 parameter initializ
  40:Drivers/GD32E23x_standard_peripheral/Source/gd32e23x_spi.c **** #define SPI_FIFO_INIT_MASK1                  ((uint32_t)0x00003840U)  /*!< SPI1 parameter initializ
  41:Drivers/GD32E23x_standard_peripheral/Source/gd32e23x_spi.c **** #define SPI_FIFO_INIT_MASK2                  ((uint32_t)0x0000F0FFU)  /*!< SPI1 parameter initializ
  42:Drivers/GD32E23x_standard_peripheral/Source/gd32e23x_spi.c **** #define I2S_INIT_MASK                        ((uint32_t)0x0000F047U)  /*!< I2S parameter initializa
  43:Drivers/GD32E23x_standard_peripheral/Source/gd32e23x_spi.c **** 
  44:Drivers/GD32E23x_standard_peripheral/Source/gd32e23x_spi.c **** #define SPI_FRAMESIZE_MASK                   ((uint32_t)0x00000800U)  /*!< SPI0 frame size mask */
  45:Drivers/GD32E23x_standard_peripheral/Source/gd32e23x_spi.c **** #define SPI_BYTEN_MASK                       ((uint32_t)0x00001000U)  /*!< SPI1 access to FIFO mask
  46:Drivers/GD32E23x_standard_peripheral/Source/gd32e23x_spi.c **** #define SPI_TXLVL_EMPTY_MASK                 ((uint32_t)0x00001800U)  /*!< SPI1 TXFIFO empty mask *
  47:Drivers/GD32E23x_standard_peripheral/Source/gd32e23x_spi.c **** #define SPI_RXLVL_EMPTY_MASK                 ((uint32_t)0x00000600U)  /*!< SPI1 RXFIFO empty mask *
  48:Drivers/GD32E23x_standard_peripheral/Source/gd32e23x_spi.c **** 
  49:Drivers/GD32E23x_standard_peripheral/Source/gd32e23x_spi.c **** /* I2S clock source selection, multiplication and division mask */
  50:Drivers/GD32E23x_standard_peripheral/Source/gd32e23x_spi.c **** #define SPI_I2SPSC_RESET                     ((uint32_t)0x00000002U)  /*!< I2S clock prescaler regi
  51:Drivers/GD32E23x_standard_peripheral/Source/gd32e23x_spi.c **** 
  52:Drivers/GD32E23x_standard_peripheral/Source/gd32e23x_spi.c **** /*!
  53:Drivers/GD32E23x_standard_peripheral/Source/gd32e23x_spi.c ****     \brief      reset SPI and I2S 
  54:Drivers/GD32E23x_standard_peripheral/Source/gd32e23x_spi.c ****     \param[in]  spi_periph: SPIx(x=0,1)
  55:Drivers/GD32E23x_standard_peripheral/Source/gd32e23x_spi.c ****     \param[out] none
  56:Drivers/GD32E23x_standard_peripheral/Source/gd32e23x_spi.c ****     \retval     none
  57:Drivers/GD32E23x_standard_peripheral/Source/gd32e23x_spi.c **** */
  58:Drivers/GD32E23x_standard_peripheral/Source/gd32e23x_spi.c **** void spi_i2s_deinit(uint32_t spi_periph)
  59:Drivers/GD32E23x_standard_peripheral/Source/gd32e23x_spi.c **** {
  28              		.loc 1 59 1 view -0
  29              		.cfi_startproc
  30              		@ args = 0, pretend = 0, frame = 0
  31              		@ frame_needed = 0, uses_anonymous_args = 0
  32              		.loc 1 59 1 is_stmt 0 view .LVU1
  33 0000 10B5     		push	{r4, lr}
  34              	.LCFI0:
  35              		.cfi_def_cfa_offset 8
  36              		.cfi_offset 4, -8
  37              		.cfi_offset 14, -4
  60:Drivers/GD32E23x_standard_peripheral/Source/gd32e23x_spi.c ****     switch(spi_periph){
  38              		.loc 1 60 5 is_stmt 1 view .LVU2
  39 0002 43F60003 		movw	r3, #14336
  40 0006 C4F20003 		movt	r3, 16384
  41 000a 9842     		cmp	r0, r3
  42 000c 0ED0     		beq	.L2
  43 000e 43F20003 		movw	r3, #12288
  44 0012 C4F20103 		movt	r3, 16385
  45 0016 9842     		cmp	r0, r3
  46 0018 07D1     		bne	.L1
  61:Drivers/GD32E23x_standard_peripheral/Source/gd32e23x_spi.c ****     case SPI0:
  62:Drivers/GD32E23x_standard_peripheral/Source/gd32e23x_spi.c ****         /* reset SPI0 and I2S0 */
  63:Drivers/GD32E23x_standard_peripheral/Source/gd32e23x_spi.c ****         rcu_periph_reset_enable(RCU_SPI0RST);
  47              		.loc 1 63 9 view .LVU3
  48 001a 40F20C30 		movw	r0, #780
  49              	.LVL1:
  50              		.loc 1 63 9 is_stmt 0 view .LVU4
  51 001e FFF7FEFF 		bl	rcu_periph_reset_enable
  52              	.LVL2:
ARM GAS  /var/folders/rv/zq8s_02j1dj4vjvr1mm5zl2r0000gn/T//ccSJYVCc.s 			page 3


  64:Drivers/GD32E23x_standard_peripheral/Source/gd32e23x_spi.c ****         rcu_periph_reset_disable(RCU_SPI0RST);
  53              		.loc 1 64 9 is_stmt 1 view .LVU5
  54 0022 40F20C30 		movw	r0, #780
  55 0026 FFF7FEFF 		bl	rcu_periph_reset_disable
  56              	.LVL3:
  65:Drivers/GD32E23x_standard_peripheral/Source/gd32e23x_spi.c ****         break;
  57              		.loc 1 65 9 view .LVU6
  58              	.L1:
  66:Drivers/GD32E23x_standard_peripheral/Source/gd32e23x_spi.c ****     case SPI1:
  67:Drivers/GD32E23x_standard_peripheral/Source/gd32e23x_spi.c ****         /* reset SPI1 */
  68:Drivers/GD32E23x_standard_peripheral/Source/gd32e23x_spi.c ****         rcu_periph_reset_enable(RCU_SPI1RST);
  69:Drivers/GD32E23x_standard_peripheral/Source/gd32e23x_spi.c ****         rcu_periph_reset_disable(RCU_SPI1RST);
  70:Drivers/GD32E23x_standard_peripheral/Source/gd32e23x_spi.c ****         break;
  71:Drivers/GD32E23x_standard_peripheral/Source/gd32e23x_spi.c ****     default :
  72:Drivers/GD32E23x_standard_peripheral/Source/gd32e23x_spi.c ****         break;
  73:Drivers/GD32E23x_standard_peripheral/Source/gd32e23x_spi.c ****     }
  74:Drivers/GD32E23x_standard_peripheral/Source/gd32e23x_spi.c **** }
  59              		.loc 1 74 1 is_stmt 0 view .LVU7
  60              		@ sp needed
  61 002a 10BD     		pop	{r4, pc}
  62              	.LVL4:
  63              	.L2:
  68:Drivers/GD32E23x_standard_peripheral/Source/gd32e23x_spi.c ****         rcu_periph_reset_disable(RCU_SPI1RST);
  64              		.loc 1 68 9 is_stmt 1 view .LVU8
  65 002c 40F20E40 		movw	r0, #1038
  66              	.LVL5:
  68:Drivers/GD32E23x_standard_peripheral/Source/gd32e23x_spi.c ****         rcu_periph_reset_disable(RCU_SPI1RST);
  67              		.loc 1 68 9 is_stmt 0 view .LVU9
  68 0030 FFF7FEFF 		bl	rcu_periph_reset_enable
  69              	.LVL6:
  69:Drivers/GD32E23x_standard_peripheral/Source/gd32e23x_spi.c ****         break;
  70              		.loc 1 69 9 is_stmt 1 view .LVU10
  71 0034 40F20E40 		movw	r0, #1038
  72 0038 FFF7FEFF 		bl	rcu_periph_reset_disable
  73              	.LVL7:
  70:Drivers/GD32E23x_standard_peripheral/Source/gd32e23x_spi.c ****     default :
  74              		.loc 1 70 9 view .LVU11
  75              		.loc 1 74 1 is_stmt 0 view .LVU12
  76 003c F5E7     		b	.L1
  77              		.cfi_endproc
  78              	.LFE66:
  80              		.section	.text.spi_struct_para_init,"ax",%progbits
  81              		.align	1
  82              		.global	spi_struct_para_init
  83              		.syntax unified
  84              		.code	16
  85              		.thumb_func
  86              		.fpu softvfp
  88              	spi_struct_para_init:
  89              	.LVL8:
  90              	.LFB67:
  75:Drivers/GD32E23x_standard_peripheral/Source/gd32e23x_spi.c **** 
  76:Drivers/GD32E23x_standard_peripheral/Source/gd32e23x_spi.c **** /*!
  77:Drivers/GD32E23x_standard_peripheral/Source/gd32e23x_spi.c ****     \brief      initialize the parameters of SPI struct with the default values
  78:Drivers/GD32E23x_standard_peripheral/Source/gd32e23x_spi.c ****     \param[in]  spi_struct: SPI parameter stuct
  79:Drivers/GD32E23x_standard_peripheral/Source/gd32e23x_spi.c ****     \param[out] none
  80:Drivers/GD32E23x_standard_peripheral/Source/gd32e23x_spi.c ****     \retval     none
ARM GAS  /var/folders/rv/zq8s_02j1dj4vjvr1mm5zl2r0000gn/T//ccSJYVCc.s 			page 4


  81:Drivers/GD32E23x_standard_peripheral/Source/gd32e23x_spi.c **** */
  82:Drivers/GD32E23x_standard_peripheral/Source/gd32e23x_spi.c **** void spi_struct_para_init(spi_parameter_struct* spi_struct)
  83:Drivers/GD32E23x_standard_peripheral/Source/gd32e23x_spi.c **** {
  91              		.loc 1 83 1 is_stmt 1 view -0
  92              		.cfi_startproc
  93              		@ args = 0, pretend = 0, frame = 0
  94              		@ frame_needed = 0, uses_anonymous_args = 0
  95              		@ link register save eliminated.
  84:Drivers/GD32E23x_standard_peripheral/Source/gd32e23x_spi.c ****     /* set the SPI struct with the default values */
  85:Drivers/GD32E23x_standard_peripheral/Source/gd32e23x_spi.c ****     spi_struct->device_mode = SPI_SLAVE;
  96              		.loc 1 85 5 view .LVU14
  97              		.loc 1 85 29 is_stmt 0 view .LVU15
  98 0000 0023     		movs	r3, #0
  99 0002 0360     		str	r3, [r0]
  86:Drivers/GD32E23x_standard_peripheral/Source/gd32e23x_spi.c ****     spi_struct->trans_mode = SPI_TRANSMODE_FULLDUPLEX;
 100              		.loc 1 86 5 is_stmt 1 view .LVU16
 101              		.loc 1 86 28 is_stmt 0 view .LVU17
 102 0004 4360     		str	r3, [r0, #4]
  87:Drivers/GD32E23x_standard_peripheral/Source/gd32e23x_spi.c ****     spi_struct->frame_size = SPI_FRAMESIZE_8BIT;
 103              		.loc 1 87 5 is_stmt 1 view .LVU18
 104              		.loc 1 87 28 is_stmt 0 view .LVU19
 105 0006 40F20072 		movw	r2, #1792
 106 000a 8260     		str	r2, [r0, #8]
  88:Drivers/GD32E23x_standard_peripheral/Source/gd32e23x_spi.c ****     spi_struct->nss = SPI_NSS_HARD;
 107              		.loc 1 88 5 is_stmt 1 view .LVU20
 108              		.loc 1 88 21 is_stmt 0 view .LVU21
 109 000c C360     		str	r3, [r0, #12]
  89:Drivers/GD32E23x_standard_peripheral/Source/gd32e23x_spi.c ****     spi_struct->clock_polarity_phase = SPI_CK_PL_LOW_PH_1EDGE;
 110              		.loc 1 89 5 is_stmt 1 view .LVU22
 111              		.loc 1 89 38 is_stmt 0 view .LVU23
 112 000e 4361     		str	r3, [r0, #20]
  90:Drivers/GD32E23x_standard_peripheral/Source/gd32e23x_spi.c ****     spi_struct->prescale = SPI_PSC_2;
 113              		.loc 1 90 5 is_stmt 1 view .LVU24
 114              		.loc 1 90 26 is_stmt 0 view .LVU25
 115 0010 8361     		str	r3, [r0, #24]
  91:Drivers/GD32E23x_standard_peripheral/Source/gd32e23x_spi.c **** }
 116              		.loc 1 91 1 view .LVU26
 117              		@ sp needed
 118 0012 7047     		bx	lr
 119              		.cfi_endproc
 120              	.LFE67:
 122              		.section	.text.spi_init,"ax",%progbits
 123              		.align	1
 124              		.global	spi_init
 125              		.syntax unified
 126              		.code	16
 127              		.thumb_func
 128              		.fpu softvfp
 130              	spi_init:
 131              	.LVL9:
 132              	.LFB68:
  92:Drivers/GD32E23x_standard_peripheral/Source/gd32e23x_spi.c **** 
  93:Drivers/GD32E23x_standard_peripheral/Source/gd32e23x_spi.c **** /*!
  94:Drivers/GD32E23x_standard_peripheral/Source/gd32e23x_spi.c ****     \brief      initialize SPI parameter
  95:Drivers/GD32E23x_standard_peripheral/Source/gd32e23x_spi.c ****     \param[in]  spi_periph: SPIx(x=0,1)
  96:Drivers/GD32E23x_standard_peripheral/Source/gd32e23x_spi.c ****     \param[in]  spi_struct: SPI parameter initialization stuct members of the structure 
  97:Drivers/GD32E23x_standard_peripheral/Source/gd32e23x_spi.c ****                             and the member values are shown as below:
ARM GAS  /var/folders/rv/zq8s_02j1dj4vjvr1mm5zl2r0000gn/T//ccSJYVCc.s 			page 5


  98:Drivers/GD32E23x_standard_peripheral/Source/gd32e23x_spi.c ****                   device_mode: SPI_MASTER, SPI_SLAVE
  99:Drivers/GD32E23x_standard_peripheral/Source/gd32e23x_spi.c ****                   trans_mode: SPI_TRANSMODE_FULLDUPLEX, SPI_TRANSMODE_RECEIVEONLY,
 100:Drivers/GD32E23x_standard_peripheral/Source/gd32e23x_spi.c ****                               SPI_TRANSMODE_BDRECEIVE, SPI_TRANSMODE_BDTRANSMIT
 101:Drivers/GD32E23x_standard_peripheral/Source/gd32e23x_spi.c ****                   frame_size: SPI_FRAMESIZE_4BIT, SPI_FRAMESIZE_5BIT
 102:Drivers/GD32E23x_standard_peripheral/Source/gd32e23x_spi.c ****                               SPI_FRAMESIZE_6BIT, SPI_FRAMESIZE_7BIT
 103:Drivers/GD32E23x_standard_peripheral/Source/gd32e23x_spi.c ****                               SPI_FRAMESIZE_8BIT, SPI_FRAMESIZE_9BIT
 104:Drivers/GD32E23x_standard_peripheral/Source/gd32e23x_spi.c ****                               SPI_FRAMESIZE_10BIT, SPI_FRAMESIZE_11BIT
 105:Drivers/GD32E23x_standard_peripheral/Source/gd32e23x_spi.c ****                               SPI_FRAMESIZE_12BIT, SPI_FRAMESIZE_13BIT
 106:Drivers/GD32E23x_standard_peripheral/Source/gd32e23x_spi.c ****                               SPI_FRAMESIZE_14BIT, SPI_FRAMESIZE_15BIT
 107:Drivers/GD32E23x_standard_peripheral/Source/gd32e23x_spi.c ****                               SPI_FRAMESIZE_16BIT
 108:Drivers/GD32E23x_standard_peripheral/Source/gd32e23x_spi.c ****                   nss: SPI_NSS_SOFT, SPI_NSS_HARD
 109:Drivers/GD32E23x_standard_peripheral/Source/gd32e23x_spi.c ****                   endian: SPI_ENDIAN_MSB, SPI_ENDIAN_LSB
 110:Drivers/GD32E23x_standard_peripheral/Source/gd32e23x_spi.c ****                   clock_polarity_phase: SPI_CK_PL_LOW_PH_1EDGE, SPI_CK_PL_HIGH_PH_1EDGE
 111:Drivers/GD32E23x_standard_peripheral/Source/gd32e23x_spi.c ****                                         SPI_CK_PL_LOW_PH_2EDGE, SPI_CK_PL_HIGH_PH_2EDGE
 112:Drivers/GD32E23x_standard_peripheral/Source/gd32e23x_spi.c ****                   prescale: SPI_PSC_n (n=2,4,8,16,32,64,128,256)
 113:Drivers/GD32E23x_standard_peripheral/Source/gd32e23x_spi.c ****     \param[out] none
 114:Drivers/GD32E23x_standard_peripheral/Source/gd32e23x_spi.c ****     \retval     ErrStatus: ERROR or SUCCESS
 115:Drivers/GD32E23x_standard_peripheral/Source/gd32e23x_spi.c **** */
 116:Drivers/GD32E23x_standard_peripheral/Source/gd32e23x_spi.c **** ErrStatus spi_init(uint32_t spi_periph, spi_parameter_struct* spi_struct)
 117:Drivers/GD32E23x_standard_peripheral/Source/gd32e23x_spi.c **** {   
 133              		.loc 1 117 1 is_stmt 1 view -0
 134              		.cfi_startproc
 135              		@ args = 0, pretend = 0, frame = 0
 136              		@ frame_needed = 0, uses_anonymous_args = 0
 137              		.loc 1 117 1 is_stmt 0 view .LVU28
 138 0000 30B5     		push	{r4, r5, lr}
 139              	.LCFI1:
 140              		.cfi_def_cfa_offset 12
 141              		.cfi_offset 4, -12
 142              		.cfi_offset 5, -8
 143              		.cfi_offset 14, -4
 118:Drivers/GD32E23x_standard_peripheral/Source/gd32e23x_spi.c ****     uint32_t reg1, reg2, reg3 = 0U;
 144              		.loc 1 118 5 is_stmt 1 view .LVU29
 145              	.LVL10:
 119:Drivers/GD32E23x_standard_peripheral/Source/gd32e23x_spi.c ****     
 120:Drivers/GD32E23x_standard_peripheral/Source/gd32e23x_spi.c ****     reg1 = SPI_CTL0(spi_periph);
 146              		.loc 1 120 5 view .LVU30
 147              		.loc 1 120 10 is_stmt 0 view .LVU31
 148 0002 0468     		ldr	r4, [r0]
 149              	.LVL11:
 121:Drivers/GD32E23x_standard_peripheral/Source/gd32e23x_spi.c ****     reg1 &= SPI_INIT_MASK;
 150              		.loc 1 121 5 is_stmt 1 view .LVU32
 151              		.loc 1 121 10 is_stmt 0 view .LVU33
 152 0004 43F24003 		movw	r3, #12352
 153 0008 1C40     		ands	r4, r3
 154              	.LVL12:
 122:Drivers/GD32E23x_standard_peripheral/Source/gd32e23x_spi.c ****     
 123:Drivers/GD32E23x_standard_peripheral/Source/gd32e23x_spi.c ****     reg2 = SPI_CTL0(spi_periph);
 155              		.loc 1 123 5 is_stmt 1 view .LVU34
 156              		.loc 1 123 10 is_stmt 0 view .LVU35
 157 000a 0268     		ldr	r2, [r0]
 158              	.LVL13:
 124:Drivers/GD32E23x_standard_peripheral/Source/gd32e23x_spi.c ****     reg2 &= SPI_FIFO_INIT_MASK1;
 159              		.loc 1 124 5 is_stmt 1 view .LVU36
 160              		.loc 1 124 10 is_stmt 0 view .LVU37
 161 000c 43F64003 		movw	r3, #14400
 162 0010 1A40     		ands	r2, r3
ARM GAS  /var/folders/rv/zq8s_02j1dj4vjvr1mm5zl2r0000gn/T//ccSJYVCc.s 			page 6


 163              	.LVL14:
 125:Drivers/GD32E23x_standard_peripheral/Source/gd32e23x_spi.c **** 
 126:Drivers/GD32E23x_standard_peripheral/Source/gd32e23x_spi.c ****     reg3 = SPI_CTL1(spi_periph);
 164              		.loc 1 126 5 is_stmt 1 view .LVU38
 165              		.loc 1 126 10 is_stmt 0 view .LVU39
 166 0012 4568     		ldr	r5, [r0, #4]
 167              	.LVL15:
 127:Drivers/GD32E23x_standard_peripheral/Source/gd32e23x_spi.c ****     reg3 &= SPI_FIFO_INIT_MASK2;
 168              		.loc 1 127 5 is_stmt 1 view .LVU40
 169              		.loc 1 127 10 is_stmt 0 view .LVU41
 170 0014 4FF2FF03 		movw	r3, #61695
 171 0018 2B40     		ands	r3, r5
 172              	.LVL16:
 128:Drivers/GD32E23x_standard_peripheral/Source/gd32e23x_spi.c **** 
 129:Drivers/GD32E23x_standard_peripheral/Source/gd32e23x_spi.c ****     if(SPI0 == spi_periph){
 173              		.loc 1 129 5 is_stmt 1 view .LVU42
 174              		.loc 1 129 7 is_stmt 0 view .LVU43
 175 001a 43F20005 		movw	r5, #12288
 176 001e C4F20105 		movt	r5, 16385
 177 0022 A842     		cmp	r0, r5
 178 0024 15D0     		beq	.L11
 130:Drivers/GD32E23x_standard_peripheral/Source/gd32e23x_spi.c ****         /* select SPI as master or slave */
 131:Drivers/GD32E23x_standard_peripheral/Source/gd32e23x_spi.c ****         reg1 |= spi_struct->device_mode;
 132:Drivers/GD32E23x_standard_peripheral/Source/gd32e23x_spi.c ****         /* select SPI transfer mode */
 133:Drivers/GD32E23x_standard_peripheral/Source/gd32e23x_spi.c ****         reg1 |= spi_struct->trans_mode;
 134:Drivers/GD32E23x_standard_peripheral/Source/gd32e23x_spi.c ****         /* select SPI NSS use hardware or software */
 135:Drivers/GD32E23x_standard_peripheral/Source/gd32e23x_spi.c ****         reg1 |= spi_struct->nss;
 136:Drivers/GD32E23x_standard_peripheral/Source/gd32e23x_spi.c ****         /* select SPI LSB or MSB */
 137:Drivers/GD32E23x_standard_peripheral/Source/gd32e23x_spi.c ****         reg1 |= spi_struct->endian;
 138:Drivers/GD32E23x_standard_peripheral/Source/gd32e23x_spi.c ****         /* select SPI polarity and phase */
 139:Drivers/GD32E23x_standard_peripheral/Source/gd32e23x_spi.c ****         reg1 |= spi_struct->clock_polarity_phase;
 140:Drivers/GD32E23x_standard_peripheral/Source/gd32e23x_spi.c ****         /* select SPI prescale to adjust transmit speed */
 141:Drivers/GD32E23x_standard_peripheral/Source/gd32e23x_spi.c ****         reg1 |= spi_struct->prescale;
 142:Drivers/GD32E23x_standard_peripheral/Source/gd32e23x_spi.c ****         /* select SPI frame size */
 143:Drivers/GD32E23x_standard_peripheral/Source/gd32e23x_spi.c ****         /* check SPI0 frame size is 8bits/16bits or not*/
 144:Drivers/GD32E23x_standard_peripheral/Source/gd32e23x_spi.c ****         if((SPI_FRAMESIZE_8BIT != spi_struct->frame_size) && (SPI_FRAMESIZE_16BIT != spi_struct->fr
 145:Drivers/GD32E23x_standard_peripheral/Source/gd32e23x_spi.c ****         {
 146:Drivers/GD32E23x_standard_peripheral/Source/gd32e23x_spi.c ****             return ERROR;
 147:Drivers/GD32E23x_standard_peripheral/Source/gd32e23x_spi.c ****         }else{
 148:Drivers/GD32E23x_standard_peripheral/Source/gd32e23x_spi.c ****             reg1 |= (spi_struct->frame_size & SPI_FRAMESIZE_MASK);
 149:Drivers/GD32E23x_standard_peripheral/Source/gd32e23x_spi.c ****         }
 150:Drivers/GD32E23x_standard_peripheral/Source/gd32e23x_spi.c ****         
 151:Drivers/GD32E23x_standard_peripheral/Source/gd32e23x_spi.c ****         /* write to SPI_CTL0 register */
 152:Drivers/GD32E23x_standard_peripheral/Source/gd32e23x_spi.c ****         SPI_CTL0(spi_periph) = (uint32_t)reg1;
 153:Drivers/GD32E23x_standard_peripheral/Source/gd32e23x_spi.c ****     
 154:Drivers/GD32E23x_standard_peripheral/Source/gd32e23x_spi.c ****     }else{
 155:Drivers/GD32E23x_standard_peripheral/Source/gd32e23x_spi.c ****         /* select SPI as master or slave */
 156:Drivers/GD32E23x_standard_peripheral/Source/gd32e23x_spi.c ****         reg2 |= spi_struct->device_mode;
 179              		.loc 1 156 9 is_stmt 1 view .LVU44
 180              		.loc 1 156 14 is_stmt 0 view .LVU45
 181 0026 0C68     		ldr	r4, [r1]
 182              	.LVL17:
 183              		.loc 1 156 14 view .LVU46
 184 0028 2243     		orrs	r2, r4
 185              	.LVL18:
 157:Drivers/GD32E23x_standard_peripheral/Source/gd32e23x_spi.c ****         /* select SPI transfer mode */
 158:Drivers/GD32E23x_standard_peripheral/Source/gd32e23x_spi.c ****         reg2 |= spi_struct->trans_mode;
ARM GAS  /var/folders/rv/zq8s_02j1dj4vjvr1mm5zl2r0000gn/T//ccSJYVCc.s 			page 7


 186              		.loc 1 158 9 is_stmt 1 view .LVU47
 187              		.loc 1 158 14 is_stmt 0 view .LVU48
 188 002a 4C68     		ldr	r4, [r1, #4]
 189 002c 2243     		orrs	r2, r4
 190              	.LVL19:
 159:Drivers/GD32E23x_standard_peripheral/Source/gd32e23x_spi.c ****         /* select SPI NSS use hardware or software */
 160:Drivers/GD32E23x_standard_peripheral/Source/gd32e23x_spi.c ****         reg2 |= spi_struct->nss;
 191              		.loc 1 160 9 is_stmt 1 view .LVU49
 192              		.loc 1 160 14 is_stmt 0 view .LVU50
 193 002e CC68     		ldr	r4, [r1, #12]
 194 0030 2243     		orrs	r2, r4
 195              	.LVL20:
 161:Drivers/GD32E23x_standard_peripheral/Source/gd32e23x_spi.c ****         /* select SPI LSB or MSB */
 162:Drivers/GD32E23x_standard_peripheral/Source/gd32e23x_spi.c ****         reg2 |= spi_struct->endian;
 196              		.loc 1 162 9 is_stmt 1 view .LVU51
 197              		.loc 1 162 14 is_stmt 0 view .LVU52
 198 0032 0C69     		ldr	r4, [r1, #16]
 199 0034 2243     		orrs	r2, r4
 200              	.LVL21:
 163:Drivers/GD32E23x_standard_peripheral/Source/gd32e23x_spi.c ****         /* select SPI polarity and phase */
 164:Drivers/GD32E23x_standard_peripheral/Source/gd32e23x_spi.c ****         reg2 |= spi_struct->clock_polarity_phase;
 201              		.loc 1 164 9 is_stmt 1 view .LVU53
 202              		.loc 1 164 14 is_stmt 0 view .LVU54
 203 0036 4C69     		ldr	r4, [r1, #20]
 204 0038 2243     		orrs	r2, r4
 205              	.LVL22:
 165:Drivers/GD32E23x_standard_peripheral/Source/gd32e23x_spi.c ****         /* select SPI prescale to adjust transmit speed */
 166:Drivers/GD32E23x_standard_peripheral/Source/gd32e23x_spi.c ****         reg2 |= spi_struct->prescale;
 206              		.loc 1 166 9 is_stmt 1 view .LVU55
 207              		.loc 1 166 14 is_stmt 0 view .LVU56
 208 003a 8C69     		ldr	r4, [r1, #24]
 209 003c 2243     		orrs	r2, r4
 210              	.LVL23:
 167:Drivers/GD32E23x_standard_peripheral/Source/gd32e23x_spi.c ****         /* write to SPI_CTL0 register */
 168:Drivers/GD32E23x_standard_peripheral/Source/gd32e23x_spi.c ****         SPI_CTL0(spi_periph) = (uint32_t)reg2;
 211              		.loc 1 168 9 is_stmt 1 view .LVU57
 212              		.loc 1 168 30 is_stmt 0 view .LVU58
 213 003e 0260     		str	r2, [r0]
 169:Drivers/GD32E23x_standard_peripheral/Source/gd32e23x_spi.c **** 
 170:Drivers/GD32E23x_standard_peripheral/Source/gd32e23x_spi.c ****         /* select SPI data size */
 171:Drivers/GD32E23x_standard_peripheral/Source/gd32e23x_spi.c ****         reg3 |= spi_struct->frame_size;
 214              		.loc 1 171 9 is_stmt 1 view .LVU59
 215              		.loc 1 171 27 is_stmt 0 view .LVU60
 216 0040 8A68     		ldr	r2, [r1, #8]
 217              	.LVL24:
 218              		.loc 1 171 14 view .LVU61
 219 0042 1343     		orrs	r3, r2
 220              	.LVL25:
 172:Drivers/GD32E23x_standard_peripheral/Source/gd32e23x_spi.c ****         /* write to SPI_CTL0 register */
 173:Drivers/GD32E23x_standard_peripheral/Source/gd32e23x_spi.c ****         SPI_CTL1(spi_periph) = (uint32_t)reg3;
 221              		.loc 1 173 9 is_stmt 1 view .LVU62
 222              		.loc 1 173 30 is_stmt 0 view .LVU63
 223 0044 4360     		str	r3, [r0, #4]
 224              	.LVL26:
 225              	.L9:
 174:Drivers/GD32E23x_standard_peripheral/Source/gd32e23x_spi.c ****     }
 175:Drivers/GD32E23x_standard_peripheral/Source/gd32e23x_spi.c ****     
ARM GAS  /var/folders/rv/zq8s_02j1dj4vjvr1mm5zl2r0000gn/T//ccSJYVCc.s 			page 8


 176:Drivers/GD32E23x_standard_peripheral/Source/gd32e23x_spi.c ****     /* select SPI mode */
 177:Drivers/GD32E23x_standard_peripheral/Source/gd32e23x_spi.c ****     SPI_I2SCTL(spi_periph) &= (uint32_t)(~SPI_I2SCTL_I2SSEL);
 226              		.loc 1 177 5 is_stmt 1 view .LVU64
 227              		.loc 1 177 28 is_stmt 0 view .LVU65
 228 0046 C369     		ldr	r3, [r0, #28]
 229 0048 104A     		ldr	r2, .L12
 230 004a 1340     		ands	r3, r2
 231 004c C361     		str	r3, [r0, #28]
 178:Drivers/GD32E23x_standard_peripheral/Source/gd32e23x_spi.c ****     
 179:Drivers/GD32E23x_standard_peripheral/Source/gd32e23x_spi.c ****     return SUCCESS;
 232              		.loc 1 179 5 is_stmt 1 view .LVU66
 233              		.loc 1 179 12 is_stmt 0 view .LVU67
 234 004e 0120     		movs	r0, #1
 235              	.LVL27:
 236              	.L8:
 180:Drivers/GD32E23x_standard_peripheral/Source/gd32e23x_spi.c **** }
 237              		.loc 1 180 1 view .LVU68
 238              		@ sp needed
 239 0050 30BD     		pop	{r4, r5, pc}
 240              	.LVL28:
 241              	.L11:
 131:Drivers/GD32E23x_standard_peripheral/Source/gd32e23x_spi.c ****         /* select SPI transfer mode */
 242              		.loc 1 131 9 is_stmt 1 view .LVU69
 131:Drivers/GD32E23x_standard_peripheral/Source/gd32e23x_spi.c ****         /* select SPI transfer mode */
 243              		.loc 1 131 14 is_stmt 0 view .LVU70
 244 0052 0B68     		ldr	r3, [r1]
 245              	.LVL29:
 131:Drivers/GD32E23x_standard_peripheral/Source/gd32e23x_spi.c ****         /* select SPI transfer mode */
 246              		.loc 1 131 14 view .LVU71
 247 0054 2343     		orrs	r3, r4
 248              	.LVL30:
 133:Drivers/GD32E23x_standard_peripheral/Source/gd32e23x_spi.c ****         /* select SPI NSS use hardware or software */
 249              		.loc 1 133 9 is_stmt 1 view .LVU72
 133:Drivers/GD32E23x_standard_peripheral/Source/gd32e23x_spi.c ****         /* select SPI NSS use hardware or software */
 250              		.loc 1 133 14 is_stmt 0 view .LVU73
 251 0056 4A68     		ldr	r2, [r1, #4]
 252              	.LVL31:
 133:Drivers/GD32E23x_standard_peripheral/Source/gd32e23x_spi.c ****         /* select SPI NSS use hardware or software */
 253              		.loc 1 133 14 view .LVU74
 254 0058 1343     		orrs	r3, r2
 255              	.LVL32:
 135:Drivers/GD32E23x_standard_peripheral/Source/gd32e23x_spi.c ****         /* select SPI LSB or MSB */
 256              		.loc 1 135 9 is_stmt 1 view .LVU75
 135:Drivers/GD32E23x_standard_peripheral/Source/gd32e23x_spi.c ****         /* select SPI LSB or MSB */
 257              		.loc 1 135 14 is_stmt 0 view .LVU76
 258 005a CA68     		ldr	r2, [r1, #12]
 259 005c 1343     		orrs	r3, r2
 260              	.LVL33:
 137:Drivers/GD32E23x_standard_peripheral/Source/gd32e23x_spi.c ****         /* select SPI polarity and phase */
 261              		.loc 1 137 9 is_stmt 1 view .LVU77
 137:Drivers/GD32E23x_standard_peripheral/Source/gd32e23x_spi.c ****         /* select SPI polarity and phase */
 262              		.loc 1 137 14 is_stmt 0 view .LVU78
 263 005e 0A69     		ldr	r2, [r1, #16]
 264 0060 1343     		orrs	r3, r2
 265              	.LVL34:
 139:Drivers/GD32E23x_standard_peripheral/Source/gd32e23x_spi.c ****         /* select SPI prescale to adjust transmit speed */
 266              		.loc 1 139 9 is_stmt 1 view .LVU79
ARM GAS  /var/folders/rv/zq8s_02j1dj4vjvr1mm5zl2r0000gn/T//ccSJYVCc.s 			page 9


 139:Drivers/GD32E23x_standard_peripheral/Source/gd32e23x_spi.c ****         /* select SPI prescale to adjust transmit speed */
 267              		.loc 1 139 14 is_stmt 0 view .LVU80
 268 0062 4A69     		ldr	r2, [r1, #20]
 269 0064 1343     		orrs	r3, r2
 270              	.LVL35:
 141:Drivers/GD32E23x_standard_peripheral/Source/gd32e23x_spi.c ****         /* select SPI frame size */
 271              		.loc 1 141 9 is_stmt 1 view .LVU81
 141:Drivers/GD32E23x_standard_peripheral/Source/gd32e23x_spi.c ****         /* select SPI frame size */
 272              		.loc 1 141 14 is_stmt 0 view .LVU82
 273 0066 8C69     		ldr	r4, [r1, #24]
 274 0068 1C43     		orrs	r4, r3
 275              	.LVL36:
 144:Drivers/GD32E23x_standard_peripheral/Source/gd32e23x_spi.c ****         {
 276              		.loc 1 144 9 is_stmt 1 view .LVU83
 144:Drivers/GD32E23x_standard_peripheral/Source/gd32e23x_spi.c ****         {
 277              		.loc 1 144 45 is_stmt 0 view .LVU84
 278 006a 8A68     		ldr	r2, [r1, #8]
 144:Drivers/GD32E23x_standard_peripheral/Source/gd32e23x_spi.c ****         {
 279              		.loc 1 144 11 view .LVU85
 280 006c 40F20073 		movw	r3, #1792
 281 0070 9A42     		cmp	r2, r3
 282 0072 03D0     		beq	.L7
 144:Drivers/GD32E23x_standard_peripheral/Source/gd32e23x_spi.c ****         {
 283              		.loc 1 144 59 discriminator 1 view .LVU86
 284 0074 40F60073 		movw	r3, #3840
 285 0078 9A42     		cmp	r2, r3
 286 007a 05D1     		bne	.L10
 287              	.L7:
 148:Drivers/GD32E23x_standard_peripheral/Source/gd32e23x_spi.c ****         }
 288              		.loc 1 148 13 is_stmt 1 view .LVU87
 148:Drivers/GD32E23x_standard_peripheral/Source/gd32e23x_spi.c ****         }
 289              		.loc 1 148 45 is_stmt 0 view .LVU88
 290 007c 40F60003 		movw	r3, #2048
 291 0080 1340     		ands	r3, r2
 148:Drivers/GD32E23x_standard_peripheral/Source/gd32e23x_spi.c ****         }
 292              		.loc 1 148 18 view .LVU89
 293 0082 2343     		orrs	r3, r4
 294              	.LVL37:
 152:Drivers/GD32E23x_standard_peripheral/Source/gd32e23x_spi.c ****     
 295              		.loc 1 152 9 is_stmt 1 view .LVU90
 152:Drivers/GD32E23x_standard_peripheral/Source/gd32e23x_spi.c ****     
 296              		.loc 1 152 30 is_stmt 0 view .LVU91
 297 0084 0360     		str	r3, [r0]
 298 0086 DEE7     		b	.L9
 299              	.LVL38:
 300              	.L10:
 146:Drivers/GD32E23x_standard_peripheral/Source/gd32e23x_spi.c ****         }else{
 301              		.loc 1 146 20 view .LVU92
 302 0088 0020     		movs	r0, #0
 303              	.LVL39:
 146:Drivers/GD32E23x_standard_peripheral/Source/gd32e23x_spi.c ****         }else{
 304              		.loc 1 146 20 view .LVU93
 305 008a E1E7     		b	.L8
 306              	.L13:
 307              		.align	2
 308              	.L12:
 309 008c FFF7FFFF 		.word	-2049
ARM GAS  /var/folders/rv/zq8s_02j1dj4vjvr1mm5zl2r0000gn/T//ccSJYVCc.s 			page 10


 310              		.cfi_endproc
 311              	.LFE68:
 313              		.section	.text.spi_enable,"ax",%progbits
 314              		.align	1
 315              		.global	spi_enable
 316              		.syntax unified
 317              		.code	16
 318              		.thumb_func
 319              		.fpu softvfp
 321              	spi_enable:
 322              	.LVL40:
 323              	.LFB69:
 181:Drivers/GD32E23x_standard_peripheral/Source/gd32e23x_spi.c **** 
 182:Drivers/GD32E23x_standard_peripheral/Source/gd32e23x_spi.c **** /*!
 183:Drivers/GD32E23x_standard_peripheral/Source/gd32e23x_spi.c ****     \brief      enable SPI
 184:Drivers/GD32E23x_standard_peripheral/Source/gd32e23x_spi.c ****     \param[in]  spi_periph: SPIx(x=0,1)
 185:Drivers/GD32E23x_standard_peripheral/Source/gd32e23x_spi.c ****     \param[out] none
 186:Drivers/GD32E23x_standard_peripheral/Source/gd32e23x_spi.c ****     \retval     none
 187:Drivers/GD32E23x_standard_peripheral/Source/gd32e23x_spi.c **** */
 188:Drivers/GD32E23x_standard_peripheral/Source/gd32e23x_spi.c **** void spi_enable(uint32_t spi_periph)
 189:Drivers/GD32E23x_standard_peripheral/Source/gd32e23x_spi.c **** {
 324              		.loc 1 189 1 is_stmt 1 view -0
 325              		.cfi_startproc
 326              		@ args = 0, pretend = 0, frame = 0
 327              		@ frame_needed = 0, uses_anonymous_args = 0
 328              		@ link register save eliminated.
 190:Drivers/GD32E23x_standard_peripheral/Source/gd32e23x_spi.c ****     SPI_CTL0(spi_periph) |= (uint32_t)SPI_CTL0_SPIEN;
 329              		.loc 1 190 5 view .LVU95
 330              		.loc 1 190 26 is_stmt 0 view .LVU96
 331 0000 0368     		ldr	r3, [r0]
 332 0002 4022     		movs	r2, #64
 333 0004 1343     		orrs	r3, r2
 334 0006 0360     		str	r3, [r0]
 191:Drivers/GD32E23x_standard_peripheral/Source/gd32e23x_spi.c **** }
 335              		.loc 1 191 1 view .LVU97
 336              		@ sp needed
 337 0008 7047     		bx	lr
 338              		.cfi_endproc
 339              	.LFE69:
 341              		.section	.text.spi_disable,"ax",%progbits
 342              		.align	1
 343              		.global	spi_disable
 344              		.syntax unified
 345              		.code	16
 346              		.thumb_func
 347              		.fpu softvfp
 349              	spi_disable:
 350              	.LVL41:
 351              	.LFB70:
 192:Drivers/GD32E23x_standard_peripheral/Source/gd32e23x_spi.c **** 
 193:Drivers/GD32E23x_standard_peripheral/Source/gd32e23x_spi.c **** /*!
 194:Drivers/GD32E23x_standard_peripheral/Source/gd32e23x_spi.c ****     \brief      disable SPI 
 195:Drivers/GD32E23x_standard_peripheral/Source/gd32e23x_spi.c ****     \param[in]  spi_periph: SPIx(x=0,1)
 196:Drivers/GD32E23x_standard_peripheral/Source/gd32e23x_spi.c ****     \param[out] none
 197:Drivers/GD32E23x_standard_peripheral/Source/gd32e23x_spi.c ****     \retval     none
 198:Drivers/GD32E23x_standard_peripheral/Source/gd32e23x_spi.c **** */
 199:Drivers/GD32E23x_standard_peripheral/Source/gd32e23x_spi.c **** void spi_disable(uint32_t spi_periph)
ARM GAS  /var/folders/rv/zq8s_02j1dj4vjvr1mm5zl2r0000gn/T//ccSJYVCc.s 			page 11


 200:Drivers/GD32E23x_standard_peripheral/Source/gd32e23x_spi.c **** {
 352              		.loc 1 200 1 is_stmt 1 view -0
 353              		.cfi_startproc
 354              		@ args = 0, pretend = 0, frame = 0
 355              		@ frame_needed = 0, uses_anonymous_args = 0
 356              		@ link register save eliminated.
 201:Drivers/GD32E23x_standard_peripheral/Source/gd32e23x_spi.c ****     SPI_CTL0(spi_periph) &= (uint32_t)(~SPI_CTL0_SPIEN);
 357              		.loc 1 201 5 view .LVU99
 358              		.loc 1 201 26 is_stmt 0 view .LVU100
 359 0000 0368     		ldr	r3, [r0]
 360 0002 4022     		movs	r2, #64
 361 0004 9343     		bics	r3, r2
 362 0006 0360     		str	r3, [r0]
 202:Drivers/GD32E23x_standard_peripheral/Source/gd32e23x_spi.c **** }
 363              		.loc 1 202 1 view .LVU101
 364              		@ sp needed
 365 0008 7047     		bx	lr
 366              		.cfi_endproc
 367              	.LFE70:
 369              		.section	.text.i2s_init,"ax",%progbits
 370              		.align	1
 371              		.global	i2s_init
 372              		.syntax unified
 373              		.code	16
 374              		.thumb_func
 375              		.fpu softvfp
 377              	i2s_init:
 378              	.LVL42:
 379              	.LFB71:
 203:Drivers/GD32E23x_standard_peripheral/Source/gd32e23x_spi.c **** 
 204:Drivers/GD32E23x_standard_peripheral/Source/gd32e23x_spi.c **** /*!
 205:Drivers/GD32E23x_standard_peripheral/Source/gd32e23x_spi.c ****     \brief      initialize I2S parameter 
 206:Drivers/GD32E23x_standard_peripheral/Source/gd32e23x_spi.c ****     \param[in]  spi_periph: SPIx(x=0)
 207:Drivers/GD32E23x_standard_peripheral/Source/gd32e23x_spi.c ****     \param[in]  mode: I2S operation mode
 208:Drivers/GD32E23x_standard_peripheral/Source/gd32e23x_spi.c ****                 only one parameter can be selected which is shown as below:
 209:Drivers/GD32E23x_standard_peripheral/Source/gd32e23x_spi.c ****       \arg        I2S_MODE_SLAVETX: I2S slave transmit mode
 210:Drivers/GD32E23x_standard_peripheral/Source/gd32e23x_spi.c ****       \arg        I2S_MODE_SLAVERX: I2S slave receive mode
 211:Drivers/GD32E23x_standard_peripheral/Source/gd32e23x_spi.c ****       \arg        I2S_MODE_MASTERTX: I2S master transmit mode
 212:Drivers/GD32E23x_standard_peripheral/Source/gd32e23x_spi.c ****       \arg        I2S_MODE_MASTERRX: I2S master receive mode
 213:Drivers/GD32E23x_standard_peripheral/Source/gd32e23x_spi.c ****     \param[in]  standard: I2S standard
 214:Drivers/GD32E23x_standard_peripheral/Source/gd32e23x_spi.c ****                 only one parameter can be selected which is shown as below:
 215:Drivers/GD32E23x_standard_peripheral/Source/gd32e23x_spi.c ****       \arg        I2S_STD_PHILLIPS: I2S phillips standard
 216:Drivers/GD32E23x_standard_peripheral/Source/gd32e23x_spi.c ****       \arg        I2S_STD_MSB: I2S MSB standard
 217:Drivers/GD32E23x_standard_peripheral/Source/gd32e23x_spi.c ****       \arg        I2S_STD_LSB: I2S LSB standard
 218:Drivers/GD32E23x_standard_peripheral/Source/gd32e23x_spi.c ****       \arg        I2S_STD_PCMSHORT: I2S PCM short standard
 219:Drivers/GD32E23x_standard_peripheral/Source/gd32e23x_spi.c ****       \arg        I2S_STD_PCMLONG: I2S PCM long standard
 220:Drivers/GD32E23x_standard_peripheral/Source/gd32e23x_spi.c ****     \param[in]  ckpl: I2S idle state clock polarity
 221:Drivers/GD32E23x_standard_peripheral/Source/gd32e23x_spi.c ****                 only one parameter can be selected which is shown as below:
 222:Drivers/GD32E23x_standard_peripheral/Source/gd32e23x_spi.c ****       \arg        I2S_CKPL_LOW: I2S clock polarity low level
 223:Drivers/GD32E23x_standard_peripheral/Source/gd32e23x_spi.c ****       \arg        I2S_CKPL_HIGH: I2S clock polarity high level
 224:Drivers/GD32E23x_standard_peripheral/Source/gd32e23x_spi.c ****     \param[out] none
 225:Drivers/GD32E23x_standard_peripheral/Source/gd32e23x_spi.c ****     \retval     none
 226:Drivers/GD32E23x_standard_peripheral/Source/gd32e23x_spi.c **** */
 227:Drivers/GD32E23x_standard_peripheral/Source/gd32e23x_spi.c **** void i2s_init(uint32_t spi_periph, uint32_t mode, uint32_t standard, uint32_t ckpl)
 228:Drivers/GD32E23x_standard_peripheral/Source/gd32e23x_spi.c **** {
 380              		.loc 1 228 1 is_stmt 1 view -0
 381              		.cfi_startproc
ARM GAS  /var/folders/rv/zq8s_02j1dj4vjvr1mm5zl2r0000gn/T//ccSJYVCc.s 			page 12


 382              		@ args = 0, pretend = 0, frame = 0
 383              		@ frame_needed = 0, uses_anonymous_args = 0
 384              		.loc 1 228 1 is_stmt 0 view .LVU103
 385 0000 30B5     		push	{r4, r5, lr}
 386              	.LCFI2:
 387              		.cfi_def_cfa_offset 12
 388              		.cfi_offset 4, -12
 389              		.cfi_offset 5, -8
 390              		.cfi_offset 14, -4
 229:Drivers/GD32E23x_standard_peripheral/Source/gd32e23x_spi.c ****     uint32_t reg = 0U;
 391              		.loc 1 229 5 is_stmt 1 view .LVU104
 392              	.LVL43:
 230:Drivers/GD32E23x_standard_peripheral/Source/gd32e23x_spi.c ****     reg = SPI_I2SCTL(spi_periph);
 393              		.loc 1 230 5 view .LVU105
 394              		.loc 1 230 9 is_stmt 0 view .LVU106
 395 0002 C569     		ldr	r5, [r0, #28]
 396              	.LVL44:
 231:Drivers/GD32E23x_standard_peripheral/Source/gd32e23x_spi.c ****     reg &= I2S_INIT_MASK;
 397              		.loc 1 231 5 is_stmt 1 view .LVU107
 398              		.loc 1 231 9 is_stmt 0 view .LVU108
 399 0004 4FF24704 		movw	r4, #61511
 400 0008 2C40     		ands	r4, r5
 401              	.LVL45:
 232:Drivers/GD32E23x_standard_peripheral/Source/gd32e23x_spi.c **** 
 233:Drivers/GD32E23x_standard_peripheral/Source/gd32e23x_spi.c ****     /* enable I2S mode */
 234:Drivers/GD32E23x_standard_peripheral/Source/gd32e23x_spi.c ****     reg |= (uint32_t)SPI_I2SCTL_I2SSEL; 
 402              		.loc 1 234 5 is_stmt 1 view .LVU109
 403              		.loc 1 234 9 is_stmt 0 view .LVU110
 404 000a 40F60005 		movw	r5, #2048
 405 000e 2C43     		orrs	r4, r5
 406              	.LVL46:
 235:Drivers/GD32E23x_standard_peripheral/Source/gd32e23x_spi.c ****     /* select I2S mode */
 236:Drivers/GD32E23x_standard_peripheral/Source/gd32e23x_spi.c ****     reg |= (uint32_t)mode;
 407              		.loc 1 236 5 is_stmt 1 view .LVU111
 408              		.loc 1 236 9 is_stmt 0 view .LVU112
 409 0010 0C43     		orrs	r4, r1
 410              	.LVL47:
 237:Drivers/GD32E23x_standard_peripheral/Source/gd32e23x_spi.c ****     /* select I2S standard */
 238:Drivers/GD32E23x_standard_peripheral/Source/gd32e23x_spi.c ****     reg |= (uint32_t)standard;
 411              		.loc 1 238 5 is_stmt 1 view .LVU113
 412              		.loc 1 238 9 is_stmt 0 view .LVU114
 413 0012 1443     		orrs	r4, r2
 414              	.LVL48:
 239:Drivers/GD32E23x_standard_peripheral/Source/gd32e23x_spi.c ****     /* select I2S polarity */
 240:Drivers/GD32E23x_standard_peripheral/Source/gd32e23x_spi.c ****     reg |= (uint32_t)ckpl;
 415              		.loc 1 240 5 is_stmt 1 view .LVU115
 416              		.loc 1 240 9 is_stmt 0 view .LVU116
 417 0014 1C43     		orrs	r4, r3
 418              	.LVL49:
 241:Drivers/GD32E23x_standard_peripheral/Source/gd32e23x_spi.c **** 
 242:Drivers/GD32E23x_standard_peripheral/Source/gd32e23x_spi.c ****     /* write to SPI_I2SCTL register */
 243:Drivers/GD32E23x_standard_peripheral/Source/gd32e23x_spi.c ****     SPI_I2SCTL(spi_periph) = (uint32_t)reg;
 419              		.loc 1 243 5 is_stmt 1 view .LVU117
 420              		.loc 1 243 28 is_stmt 0 view .LVU118
 421 0016 C461     		str	r4, [r0, #28]
 244:Drivers/GD32E23x_standard_peripheral/Source/gd32e23x_spi.c **** }
 422              		.loc 1 244 1 view .LVU119
ARM GAS  /var/folders/rv/zq8s_02j1dj4vjvr1mm5zl2r0000gn/T//ccSJYVCc.s 			page 13


 423              		@ sp needed
 424              	.LVL50:
 425              		.loc 1 244 1 view .LVU120
 426 0018 30BD     		pop	{r4, r5, pc}
 427              		.cfi_endproc
 428              	.LFE71:
 430              		.section	.text.i2s_psc_config,"ax",%progbits
 431              		.align	1
 432              		.global	i2s_psc_config
 433              		.syntax unified
 434              		.code	16
 435              		.thumb_func
 436              		.fpu softvfp
 438              	i2s_psc_config:
 439              	.LVL51:
 440              	.LFB72:
 245:Drivers/GD32E23x_standard_peripheral/Source/gd32e23x_spi.c **** 
 246:Drivers/GD32E23x_standard_peripheral/Source/gd32e23x_spi.c **** /*!
 247:Drivers/GD32E23x_standard_peripheral/Source/gd32e23x_spi.c ****     \brief      configure I2S prescaler 
 248:Drivers/GD32E23x_standard_peripheral/Source/gd32e23x_spi.c ****     \param[in]  spi_periph: SPIx(x=0)
 249:Drivers/GD32E23x_standard_peripheral/Source/gd32e23x_spi.c ****     \param[in]  audiosample: I2S audio sample rate
 250:Drivers/GD32E23x_standard_peripheral/Source/gd32e23x_spi.c ****                 only one parameter can be selected which is shown as below:
 251:Drivers/GD32E23x_standard_peripheral/Source/gd32e23x_spi.c ****       \arg        I2S_AUDIOSAMPLE_8K: audio sample rate is 8KHz
 252:Drivers/GD32E23x_standard_peripheral/Source/gd32e23x_spi.c ****       \arg        I2S_AUDIOSAMPLE_11K: audio sample rate is 11KHz
 253:Drivers/GD32E23x_standard_peripheral/Source/gd32e23x_spi.c ****       \arg        I2S_AUDIOSAMPLE_16K: audio sample rate is 16KHz
 254:Drivers/GD32E23x_standard_peripheral/Source/gd32e23x_spi.c ****       \arg        I2S_AUDIOSAMPLE_22K: audio sample rate is 22KHz
 255:Drivers/GD32E23x_standard_peripheral/Source/gd32e23x_spi.c ****       \arg        I2S_AUDIOSAMPLE_32K: audio sample rate is 32KHz
 256:Drivers/GD32E23x_standard_peripheral/Source/gd32e23x_spi.c ****       \arg        I2S_AUDIOSAMPLE_44K: audio sample rate is 44KHz
 257:Drivers/GD32E23x_standard_peripheral/Source/gd32e23x_spi.c ****       \arg        I2S_AUDIOSAMPLE_48K: audio sample rate is 48KHz
 258:Drivers/GD32E23x_standard_peripheral/Source/gd32e23x_spi.c ****       \arg        I2S_AUDIOSAMPLE_96K: audio sample rate is 96KHz
 259:Drivers/GD32E23x_standard_peripheral/Source/gd32e23x_spi.c ****       \arg        I2S_AUDIOSAMPLE_192K: audio sample rate is 192KHz
 260:Drivers/GD32E23x_standard_peripheral/Source/gd32e23x_spi.c ****     \param[in]  frameformat: I2S data length and channel length
 261:Drivers/GD32E23x_standard_peripheral/Source/gd32e23x_spi.c ****                 only one parameter can be selected which is shown as below:
 262:Drivers/GD32E23x_standard_peripheral/Source/gd32e23x_spi.c ****       \arg        I2S_FRAMEFORMAT_DT16B_CH16B: I2S data length is 16 bit and channel length is 16 b
 263:Drivers/GD32E23x_standard_peripheral/Source/gd32e23x_spi.c ****       \arg        I2S_FRAMEFORMAT_DT16B_CH32B: I2S data length is 16 bit and channel length is 32 b
 264:Drivers/GD32E23x_standard_peripheral/Source/gd32e23x_spi.c ****       \arg        I2S_FRAMEFORMAT_DT24B_CH32B: I2S data length is 24 bit and channel length is 32 b
 265:Drivers/GD32E23x_standard_peripheral/Source/gd32e23x_spi.c ****       \arg        I2S_FRAMEFORMAT_DT32B_CH32B: I2S data length is 32 bit and channel length is 32 b
 266:Drivers/GD32E23x_standard_peripheral/Source/gd32e23x_spi.c ****     \param[in]  mckout: I2S master clock output
 267:Drivers/GD32E23x_standard_peripheral/Source/gd32e23x_spi.c ****                 only one parameter can be selected which is shown as below:
 268:Drivers/GD32E23x_standard_peripheral/Source/gd32e23x_spi.c ****       \arg        I2S_MCKOUT_ENABLE: I2S master clock output enable
 269:Drivers/GD32E23x_standard_peripheral/Source/gd32e23x_spi.c ****       \arg        I2S_MCKOUT_DISABLE: I2S master clock output disable
 270:Drivers/GD32E23x_standard_peripheral/Source/gd32e23x_spi.c ****     \param[out] none
 271:Drivers/GD32E23x_standard_peripheral/Source/gd32e23x_spi.c ****     \retval     none
 272:Drivers/GD32E23x_standard_peripheral/Source/gd32e23x_spi.c **** */
 273:Drivers/GD32E23x_standard_peripheral/Source/gd32e23x_spi.c **** void i2s_psc_config(uint32_t spi_periph, uint32_t audiosample, uint32_t frameformat, uint32_t mckou
 274:Drivers/GD32E23x_standard_peripheral/Source/gd32e23x_spi.c **** {
 441              		.loc 1 274 1 is_stmt 1 view -0
 442              		.cfi_startproc
 443              		@ args = 0, pretend = 0, frame = 0
 444              		@ frame_needed = 0, uses_anonymous_args = 0
 445              		.loc 1 274 1 is_stmt 0 view .LVU122
 446 0000 F8B5     		push	{r3, r4, r5, r6, r7, lr}
 447              	.LCFI3:
 448              		.cfi_def_cfa_offset 24
 449              		.cfi_offset 3, -24
 450              		.cfi_offset 4, -20
 451              		.cfi_offset 5, -16
ARM GAS  /var/folders/rv/zq8s_02j1dj4vjvr1mm5zl2r0000gn/T//ccSJYVCc.s 			page 14


 452              		.cfi_offset 6, -12
 453              		.cfi_offset 7, -8
 454              		.cfi_offset 14, -4
 455 0002 0500     		movs	r5, r0
 456 0004 0C00     		movs	r4, r1
 457 0006 1600     		movs	r6, r2
 458 0008 1F00     		movs	r7, r3
 275:Drivers/GD32E23x_standard_peripheral/Source/gd32e23x_spi.c ****     uint32_t i2sdiv = 2U, i2sof = 0U;
 459              		.loc 1 275 5 is_stmt 1 view .LVU123
 460              	.LVL52:
 276:Drivers/GD32E23x_standard_peripheral/Source/gd32e23x_spi.c ****     uint32_t clks = 0U;
 461              		.loc 1 276 5 view .LVU124
 277:Drivers/GD32E23x_standard_peripheral/Source/gd32e23x_spi.c ****     uint32_t i2sclock = 0U;
 462              		.loc 1 277 5 view .LVU125
 278:Drivers/GD32E23x_standard_peripheral/Source/gd32e23x_spi.c **** 
 279:Drivers/GD32E23x_standard_peripheral/Source/gd32e23x_spi.c ****     /* deinit SPI_I2SPSC register */
 280:Drivers/GD32E23x_standard_peripheral/Source/gd32e23x_spi.c ****     SPI_I2SPSC(spi_periph) = SPI_I2SPSC_RESET;
 463              		.loc 1 280 5 view .LVU126
 464              		.loc 1 280 28 is_stmt 0 view .LVU127
 465 000a 0223     		movs	r3, #2
 466              	.LVL53:
 467              		.loc 1 280 28 view .LVU128
 468 000c 0362     		str	r3, [r0, #32]
 281:Drivers/GD32E23x_standard_peripheral/Source/gd32e23x_spi.c **** 
 282:Drivers/GD32E23x_standard_peripheral/Source/gd32e23x_spi.c ****     /* get system clock */
 283:Drivers/GD32E23x_standard_peripheral/Source/gd32e23x_spi.c ****     i2sclock = rcu_clock_freq_get(CK_SYS);
 469              		.loc 1 283 5 is_stmt 1 view .LVU129
 470              		.loc 1 283 16 is_stmt 0 view .LVU130
 471 000e 0020     		movs	r0, #0
 472              	.LVL54:
 473              		.loc 1 283 16 view .LVU131
 474 0010 FFF7FEFF 		bl	rcu_clock_freq_get
 475              	.LVL55:
 284:Drivers/GD32E23x_standard_peripheral/Source/gd32e23x_spi.c ****     
 285:Drivers/GD32E23x_standard_peripheral/Source/gd32e23x_spi.c ****     /* config the prescaler depending on the mclk output state, the frame format and audio sample r
 286:Drivers/GD32E23x_standard_peripheral/Source/gd32e23x_spi.c ****     if(I2S_MCKOUT_ENABLE == mckout){
 476              		.loc 1 286 5 is_stmt 1 view .LVU132
 477              		.loc 1 286 7 is_stmt 0 view .LVU133
 478 0014 40F20023 		movw	r3, #512
 479 0018 9F42     		cmp	r7, r3
 480 001a 07D0     		beq	.L23
 287:Drivers/GD32E23x_standard_peripheral/Source/gd32e23x_spi.c ****         clks = (uint32_t)(((i2sclock / 256U) * 10U) / audiosample);
 288:Drivers/GD32E23x_standard_peripheral/Source/gd32e23x_spi.c ****     }else{
 289:Drivers/GD32E23x_standard_peripheral/Source/gd32e23x_spi.c ****         if(I2S_FRAMEFORMAT_DT16B_CH16B == frameformat){
 481              		.loc 1 289 9 is_stmt 1 view .LVU134
 482              		.loc 1 289 11 is_stmt 0 view .LVU135
 483 001c 2EBB     		cbnz	r6, .L20
 290:Drivers/GD32E23x_standard_peripheral/Source/gd32e23x_spi.c ****             clks = (uint32_t)(((i2sclock / 32U) *10U ) / audiosample);
 484              		.loc 1 290 13 is_stmt 1 view .LVU136
 485              		.loc 1 290 42 is_stmt 0 view .LVU137
 486 001e 4009     		lsrs	r0, r0, #5
 487              	.LVL56:
 488              		.loc 1 290 49 view .LVU138
 489 0020 8100     		lsls	r1, r0, #2
 490 0022 0818     		adds	r0, r1, r0
 491 0024 4000     		lsls	r0, r0, #1
 492              		.loc 1 290 18 view .LVU139
ARM GAS  /var/folders/rv/zq8s_02j1dj4vjvr1mm5zl2r0000gn/T//ccSJYVCc.s 			page 15


 493 0026 B0FBF4F4 		udiv	r4, r0, r4
 494              	.LVL57:
 495              		.loc 1 290 18 view .LVU140
 496 002a 05E0     		b	.L19
 497              	.LVL58:
 498              	.L23:
 287:Drivers/GD32E23x_standard_peripheral/Source/gd32e23x_spi.c ****         clks = (uint32_t)(((i2sclock / 256U) * 10U) / audiosample);
 499              		.loc 1 287 9 is_stmt 1 view .LVU141
 287:Drivers/GD32E23x_standard_peripheral/Source/gd32e23x_spi.c ****         clks = (uint32_t)(((i2sclock / 256U) * 10U) / audiosample);
 500              		.loc 1 287 38 is_stmt 0 view .LVU142
 501 002c 000A     		lsrs	r0, r0, #8
 502              	.LVL59:
 287:Drivers/GD32E23x_standard_peripheral/Source/gd32e23x_spi.c ****         clks = (uint32_t)(((i2sclock / 256U) * 10U) / audiosample);
 503              		.loc 1 287 46 view .LVU143
 504 002e 8100     		lsls	r1, r0, #2
 505 0030 0818     		adds	r0, r1, r0
 506 0032 4000     		lsls	r0, r0, #1
 287:Drivers/GD32E23x_standard_peripheral/Source/gd32e23x_spi.c ****         clks = (uint32_t)(((i2sclock / 256U) * 10U) / audiosample);
 507              		.loc 1 287 14 view .LVU144
 508 0034 B0FBF4F4 		udiv	r4, r0, r4
 509              	.LVL60:
 510              	.L19:
 291:Drivers/GD32E23x_standard_peripheral/Source/gd32e23x_spi.c ****         }else{
 292:Drivers/GD32E23x_standard_peripheral/Source/gd32e23x_spi.c ****             clks = (uint32_t)(((i2sclock / 64U) *10U ) / audiosample);
 293:Drivers/GD32E23x_standard_peripheral/Source/gd32e23x_spi.c ****         }
 294:Drivers/GD32E23x_standard_peripheral/Source/gd32e23x_spi.c ****     }
 295:Drivers/GD32E23x_standard_peripheral/Source/gd32e23x_spi.c ****     
 296:Drivers/GD32E23x_standard_peripheral/Source/gd32e23x_spi.c ****     /* remove the floating point */
 297:Drivers/GD32E23x_standard_peripheral/Source/gd32e23x_spi.c ****     clks = (clks + 5U) / 10U;
 511              		.loc 1 297 5 is_stmt 1 view .LVU145
 512              		.loc 1 297 18 is_stmt 0 view .LVU146
 513 0038 0534     		adds	r4, r4, #5
 514              	.LVL61:
 515              		.loc 1 297 10 view .LVU147
 516 003a 0A21     		movs	r1, #10
 517 003c B4FBF1F1 		udiv	r1, r4, r1
 518              	.LVL62:
 298:Drivers/GD32E23x_standard_peripheral/Source/gd32e23x_spi.c ****     i2sof = (clks & 0x00000001U);
 519              		.loc 1 298 5 is_stmt 1 view .LVU148
 520              		.loc 1 298 11 is_stmt 0 view .LVU149
 521 0040 0123     		movs	r3, #1
 522 0042 0B40     		ands	r3, r1
 523              	.LVL63:
 299:Drivers/GD32E23x_standard_peripheral/Source/gd32e23x_spi.c ****     i2sdiv = ((clks - i2sof) / 2U);
 524              		.loc 1 299 5 is_stmt 1 view .LVU150
 525              		.loc 1 299 21 is_stmt 0 view .LVU151
 526 0044 C91A     		subs	r1, r1, r3
 527              	.LVL64:
 528              		.loc 1 299 12 view .LVU152
 529 0046 4908     		lsrs	r1, r1, #1
 530              	.LVL65:
 300:Drivers/GD32E23x_standard_peripheral/Source/gd32e23x_spi.c ****     i2sof  = (i2sof << 8U);
 531              		.loc 1 300 5 is_stmt 1 view .LVU153
 532              		.loc 1 300 12 is_stmt 0 view .LVU154
 533 0048 1B02     		lsls	r3, r3, #8
 534              	.LVL66:
 301:Drivers/GD32E23x_standard_peripheral/Source/gd32e23x_spi.c **** 
ARM GAS  /var/folders/rv/zq8s_02j1dj4vjvr1mm5zl2r0000gn/T//ccSJYVCc.s 			page 16


 302:Drivers/GD32E23x_standard_peripheral/Source/gd32e23x_spi.c ****     /* set the default values */
 303:Drivers/GD32E23x_standard_peripheral/Source/gd32e23x_spi.c ****     if((i2sdiv < 2U) || (i2sdiv > 255U)){
 535              		.loc 1 303 5 is_stmt 1 view .LVU155
 536              		.loc 1 303 22 is_stmt 0 view .LVU156
 537 004a 8A1E     		subs	r2, r1, #2
 538              		.loc 1 303 7 view .LVU157
 539 004c FD2A     		cmp	r2, #253
 540 004e 01D9     		bls	.L21
 304:Drivers/GD32E23x_standard_peripheral/Source/gd32e23x_spi.c ****         i2sdiv = 2U;
 305:Drivers/GD32E23x_standard_peripheral/Source/gd32e23x_spi.c ****         i2sof = 0U;
 541              		.loc 1 305 15 view .LVU158
 542 0050 0023     		movs	r3, #0
 543              	.LVL67:
 304:Drivers/GD32E23x_standard_peripheral/Source/gd32e23x_spi.c ****         i2sdiv = 2U;
 544              		.loc 1 304 16 view .LVU159
 545 0052 0221     		movs	r1, #2
 546              	.LVL68:
 547              	.L21:
 306:Drivers/GD32E23x_standard_peripheral/Source/gd32e23x_spi.c ****     }
 307:Drivers/GD32E23x_standard_peripheral/Source/gd32e23x_spi.c **** 
 308:Drivers/GD32E23x_standard_peripheral/Source/gd32e23x_spi.c ****     /* configure SPI_I2SPSC */
 309:Drivers/GD32E23x_standard_peripheral/Source/gd32e23x_spi.c ****     SPI_I2SPSC(spi_periph) = (uint32_t)(i2sdiv | i2sof | mckout);
 548              		.loc 1 309 5 is_stmt 1 view .LVU160
 549              		.loc 1 309 48 is_stmt 0 view .LVU161
 550 0054 1943     		orrs	r1, r3
 551              	.LVL69:
 552              		.loc 1 309 56 view .LVU162
 553 0056 3943     		orrs	r1, r7
 554              		.loc 1 309 28 view .LVU163
 555 0058 2962     		str	r1, [r5, #32]
 310:Drivers/GD32E23x_standard_peripheral/Source/gd32e23x_spi.c **** 
 311:Drivers/GD32E23x_standard_peripheral/Source/gd32e23x_spi.c ****     /* clear SPI_I2SCTL_DTLEN and SPI_I2SCTL_CHLEN bits */
 312:Drivers/GD32E23x_standard_peripheral/Source/gd32e23x_spi.c ****     SPI_I2SCTL(spi_periph) &= (uint32_t)(~(SPI_I2SCTL_DTLEN | SPI_I2SCTL_CHLEN));
 556              		.loc 1 312 5 is_stmt 1 view .LVU164
 557              		.loc 1 312 28 is_stmt 0 view .LVU165
 558 005a EB69     		ldr	r3, [r5, #28]
 559              	.LVL70:
 560              		.loc 1 312 28 view .LVU166
 561 005c 0722     		movs	r2, #7
 562 005e 9343     		bics	r3, r2
 563 0060 EB61     		str	r3, [r5, #28]
 313:Drivers/GD32E23x_standard_peripheral/Source/gd32e23x_spi.c ****     /* configure data frame format */
 314:Drivers/GD32E23x_standard_peripheral/Source/gd32e23x_spi.c ****     SPI_I2SCTL(spi_periph) |= (uint32_t)frameformat;
 564              		.loc 1 314 5 is_stmt 1 view .LVU167
 565              		.loc 1 314 28 is_stmt 0 view .LVU168
 566 0062 EA69     		ldr	r2, [r5, #28]
 567 0064 1643     		orrs	r6, r2
 568              	.LVL71:
 569              		.loc 1 314 28 view .LVU169
 570 0066 EE61     		str	r6, [r5, #28]
 315:Drivers/GD32E23x_standard_peripheral/Source/gd32e23x_spi.c **** }
 571              		.loc 1 315 1 view .LVU170
 572              		@ sp needed
 573              	.LVL72:
 574              	.LVL73:
 575              	.LVL74:
 576              		.loc 1 315 1 view .LVU171
ARM GAS  /var/folders/rv/zq8s_02j1dj4vjvr1mm5zl2r0000gn/T//ccSJYVCc.s 			page 17


 577 0068 F8BD     		pop	{r3, r4, r5, r6, r7, pc}
 578              	.LVL75:
 579              	.L20:
 292:Drivers/GD32E23x_standard_peripheral/Source/gd32e23x_spi.c ****         }
 580              		.loc 1 292 13 is_stmt 1 view .LVU172
 292:Drivers/GD32E23x_standard_peripheral/Source/gd32e23x_spi.c ****         }
 581              		.loc 1 292 42 is_stmt 0 view .LVU173
 582 006a 8009     		lsrs	r0, r0, #6
 583              	.LVL76:
 292:Drivers/GD32E23x_standard_peripheral/Source/gd32e23x_spi.c ****         }
 584              		.loc 1 292 49 view .LVU174
 585 006c 8100     		lsls	r1, r0, #2
 586 006e 0818     		adds	r0, r1, r0
 587 0070 4000     		lsls	r0, r0, #1
 292:Drivers/GD32E23x_standard_peripheral/Source/gd32e23x_spi.c ****         }
 588              		.loc 1 292 18 view .LVU175
 589 0072 B0FBF4F4 		udiv	r4, r0, r4
 590              	.LVL77:
 292:Drivers/GD32E23x_standard_peripheral/Source/gd32e23x_spi.c ****         }
 591              		.loc 1 292 18 view .LVU176
 592 0076 DFE7     		b	.L19
 593              		.cfi_endproc
 594              	.LFE72:
 596              		.section	.text.i2s_enable,"ax",%progbits
 597              		.align	1
 598              		.global	i2s_enable
 599              		.syntax unified
 600              		.code	16
 601              		.thumb_func
 602              		.fpu softvfp
 604              	i2s_enable:
 605              	.LVL78:
 606              	.LFB73:
 316:Drivers/GD32E23x_standard_peripheral/Source/gd32e23x_spi.c **** 
 317:Drivers/GD32E23x_standard_peripheral/Source/gd32e23x_spi.c **** 
 318:Drivers/GD32E23x_standard_peripheral/Source/gd32e23x_spi.c **** /*!
 319:Drivers/GD32E23x_standard_peripheral/Source/gd32e23x_spi.c ****     \brief      enable I2S 
 320:Drivers/GD32E23x_standard_peripheral/Source/gd32e23x_spi.c ****     \param[in]  spi_periph: SPIx(x=0)
 321:Drivers/GD32E23x_standard_peripheral/Source/gd32e23x_spi.c ****     \param[out] none
 322:Drivers/GD32E23x_standard_peripheral/Source/gd32e23x_spi.c ****     \retval     none
 323:Drivers/GD32E23x_standard_peripheral/Source/gd32e23x_spi.c **** */
 324:Drivers/GD32E23x_standard_peripheral/Source/gd32e23x_spi.c **** void i2s_enable(uint32_t spi_periph)
 325:Drivers/GD32E23x_standard_peripheral/Source/gd32e23x_spi.c **** {
 607              		.loc 1 325 1 is_stmt 1 view -0
 608              		.cfi_startproc
 609              		@ args = 0, pretend = 0, frame = 0
 610              		@ frame_needed = 0, uses_anonymous_args = 0
 611              		@ link register save eliminated.
 326:Drivers/GD32E23x_standard_peripheral/Source/gd32e23x_spi.c ****     SPI_I2SCTL(spi_periph) |= (uint32_t)SPI_I2SCTL_I2SEN;
 612              		.loc 1 326 5 view .LVU178
 613              		.loc 1 326 28 is_stmt 0 view .LVU179
 614 0000 C369     		ldr	r3, [r0, #28]
 615 0002 40F20042 		movw	r2, #1024
 616 0006 1343     		orrs	r3, r2
 617 0008 C361     		str	r3, [r0, #28]
 327:Drivers/GD32E23x_standard_peripheral/Source/gd32e23x_spi.c **** }
 618              		.loc 1 327 1 view .LVU180
ARM GAS  /var/folders/rv/zq8s_02j1dj4vjvr1mm5zl2r0000gn/T//ccSJYVCc.s 			page 18


 619              		@ sp needed
 620 000a 7047     		bx	lr
 621              		.cfi_endproc
 622              	.LFE73:
 624              		.section	.text.i2s_disable,"ax",%progbits
 625              		.align	1
 626              		.global	i2s_disable
 627              		.syntax unified
 628              		.code	16
 629              		.thumb_func
 630              		.fpu softvfp
 632              	i2s_disable:
 633              	.LVL79:
 634              	.LFB74:
 328:Drivers/GD32E23x_standard_peripheral/Source/gd32e23x_spi.c **** 
 329:Drivers/GD32E23x_standard_peripheral/Source/gd32e23x_spi.c **** /*!
 330:Drivers/GD32E23x_standard_peripheral/Source/gd32e23x_spi.c ****     \brief      disable I2S 
 331:Drivers/GD32E23x_standard_peripheral/Source/gd32e23x_spi.c ****     \param[in]  spi_periph: SPIx(x=0)
 332:Drivers/GD32E23x_standard_peripheral/Source/gd32e23x_spi.c ****     \param[out] none
 333:Drivers/GD32E23x_standard_peripheral/Source/gd32e23x_spi.c ****     \retval     none
 334:Drivers/GD32E23x_standard_peripheral/Source/gd32e23x_spi.c **** */
 335:Drivers/GD32E23x_standard_peripheral/Source/gd32e23x_spi.c **** void i2s_disable(uint32_t spi_periph)
 336:Drivers/GD32E23x_standard_peripheral/Source/gd32e23x_spi.c **** {
 635              		.loc 1 336 1 is_stmt 1 view -0
 636              		.cfi_startproc
 637              		@ args = 0, pretend = 0, frame = 0
 638              		@ frame_needed = 0, uses_anonymous_args = 0
 639              		@ link register save eliminated.
 337:Drivers/GD32E23x_standard_peripheral/Source/gd32e23x_spi.c ****     SPI_I2SCTL(spi_periph) &= (uint32_t)(~SPI_I2SCTL_I2SEN);
 640              		.loc 1 337 5 view .LVU182
 641              		.loc 1 337 28 is_stmt 0 view .LVU183
 642 0000 C369     		ldr	r3, [r0, #28]
 643 0002 024A     		ldr	r2, .L26
 644 0004 1340     		ands	r3, r2
 645 0006 C361     		str	r3, [r0, #28]
 338:Drivers/GD32E23x_standard_peripheral/Source/gd32e23x_spi.c **** }
 646              		.loc 1 338 1 view .LVU184
 647              		@ sp needed
 648 0008 7047     		bx	lr
 649              	.L27:
 650 000a C046     		.align	2
 651              	.L26:
 652 000c FFFBFFFF 		.word	-1025
 653              		.cfi_endproc
 654              	.LFE74:
 656              		.section	.text.spi_nss_output_enable,"ax",%progbits
 657              		.align	1
 658              		.global	spi_nss_output_enable
 659              		.syntax unified
 660              		.code	16
 661              		.thumb_func
 662              		.fpu softvfp
 664              	spi_nss_output_enable:
 665              	.LVL80:
 666              	.LFB75:
 339:Drivers/GD32E23x_standard_peripheral/Source/gd32e23x_spi.c **** 
 340:Drivers/GD32E23x_standard_peripheral/Source/gd32e23x_spi.c **** /*!
ARM GAS  /var/folders/rv/zq8s_02j1dj4vjvr1mm5zl2r0000gn/T//ccSJYVCc.s 			page 19


 341:Drivers/GD32E23x_standard_peripheral/Source/gd32e23x_spi.c ****     \brief      enable SPI NSS output 
 342:Drivers/GD32E23x_standard_peripheral/Source/gd32e23x_spi.c ****     \param[in]  spi_periph: SPIx(x=0,1)
 343:Drivers/GD32E23x_standard_peripheral/Source/gd32e23x_spi.c ****     \param[out] none
 344:Drivers/GD32E23x_standard_peripheral/Source/gd32e23x_spi.c ****     \retval     none
 345:Drivers/GD32E23x_standard_peripheral/Source/gd32e23x_spi.c **** */
 346:Drivers/GD32E23x_standard_peripheral/Source/gd32e23x_spi.c **** void spi_nss_output_enable(uint32_t spi_periph)
 347:Drivers/GD32E23x_standard_peripheral/Source/gd32e23x_spi.c **** {
 667              		.loc 1 347 1 is_stmt 1 view -0
 668              		.cfi_startproc
 669              		@ args = 0, pretend = 0, frame = 0
 670              		@ frame_needed = 0, uses_anonymous_args = 0
 671              		@ link register save eliminated.
 348:Drivers/GD32E23x_standard_peripheral/Source/gd32e23x_spi.c ****     SPI_CTL1(spi_periph) |= (uint32_t)SPI_CTL1_NSSDRV;
 672              		.loc 1 348 5 view .LVU186
 673              		.loc 1 348 26 is_stmt 0 view .LVU187
 674 0000 4368     		ldr	r3, [r0, #4]
 675 0002 0422     		movs	r2, #4
 676 0004 1343     		orrs	r3, r2
 677 0006 4360     		str	r3, [r0, #4]
 349:Drivers/GD32E23x_standard_peripheral/Source/gd32e23x_spi.c **** }
 678              		.loc 1 349 1 view .LVU188
 679              		@ sp needed
 680 0008 7047     		bx	lr
 681              		.cfi_endproc
 682              	.LFE75:
 684              		.section	.text.spi_nss_output_disable,"ax",%progbits
 685              		.align	1
 686              		.global	spi_nss_output_disable
 687              		.syntax unified
 688              		.code	16
 689              		.thumb_func
 690              		.fpu softvfp
 692              	spi_nss_output_disable:
 693              	.LVL81:
 694              	.LFB76:
 350:Drivers/GD32E23x_standard_peripheral/Source/gd32e23x_spi.c **** 
 351:Drivers/GD32E23x_standard_peripheral/Source/gd32e23x_spi.c **** /*!
 352:Drivers/GD32E23x_standard_peripheral/Source/gd32e23x_spi.c ****     \brief      disable SPI NSS output 
 353:Drivers/GD32E23x_standard_peripheral/Source/gd32e23x_spi.c ****     \param[in]  spi_periph: SPIx(x=0,1)
 354:Drivers/GD32E23x_standard_peripheral/Source/gd32e23x_spi.c ****     \param[out] none
 355:Drivers/GD32E23x_standard_peripheral/Source/gd32e23x_spi.c ****     \retval     none
 356:Drivers/GD32E23x_standard_peripheral/Source/gd32e23x_spi.c **** */
 357:Drivers/GD32E23x_standard_peripheral/Source/gd32e23x_spi.c **** void spi_nss_output_disable(uint32_t spi_periph)
 358:Drivers/GD32E23x_standard_peripheral/Source/gd32e23x_spi.c **** {
 695              		.loc 1 358 1 is_stmt 1 view -0
 696              		.cfi_startproc
 697              		@ args = 0, pretend = 0, frame = 0
 698              		@ frame_needed = 0, uses_anonymous_args = 0
 699              		@ link register save eliminated.
 359:Drivers/GD32E23x_standard_peripheral/Source/gd32e23x_spi.c ****     SPI_CTL1(spi_periph) &= (uint32_t)(~SPI_CTL1_NSSDRV);
 700              		.loc 1 359 5 view .LVU190
 701              		.loc 1 359 26 is_stmt 0 view .LVU191
 702 0000 4368     		ldr	r3, [r0, #4]
 703 0002 0422     		movs	r2, #4
 704 0004 9343     		bics	r3, r2
 705 0006 4360     		str	r3, [r0, #4]
 360:Drivers/GD32E23x_standard_peripheral/Source/gd32e23x_spi.c **** }
ARM GAS  /var/folders/rv/zq8s_02j1dj4vjvr1mm5zl2r0000gn/T//ccSJYVCc.s 			page 20


 706              		.loc 1 360 1 view .LVU192
 707              		@ sp needed
 708 0008 7047     		bx	lr
 709              		.cfi_endproc
 710              	.LFE76:
 712              		.section	.text.spi_nss_internal_high,"ax",%progbits
 713              		.align	1
 714              		.global	spi_nss_internal_high
 715              		.syntax unified
 716              		.code	16
 717              		.thumb_func
 718              		.fpu softvfp
 720              	spi_nss_internal_high:
 721              	.LVL82:
 722              	.LFB77:
 361:Drivers/GD32E23x_standard_peripheral/Source/gd32e23x_spi.c **** 
 362:Drivers/GD32E23x_standard_peripheral/Source/gd32e23x_spi.c **** /*!
 363:Drivers/GD32E23x_standard_peripheral/Source/gd32e23x_spi.c ****     \brief      SPI NSS pin high level in software mode
 364:Drivers/GD32E23x_standard_peripheral/Source/gd32e23x_spi.c ****     \param[in]  spi_periph: SPIx(x=0,1)
 365:Drivers/GD32E23x_standard_peripheral/Source/gd32e23x_spi.c ****     \param[out] none
 366:Drivers/GD32E23x_standard_peripheral/Source/gd32e23x_spi.c ****     \retval     none
 367:Drivers/GD32E23x_standard_peripheral/Source/gd32e23x_spi.c **** */
 368:Drivers/GD32E23x_standard_peripheral/Source/gd32e23x_spi.c **** void spi_nss_internal_high(uint32_t spi_periph)
 369:Drivers/GD32E23x_standard_peripheral/Source/gd32e23x_spi.c **** {
 723              		.loc 1 369 1 is_stmt 1 view -0
 724              		.cfi_startproc
 725              		@ args = 0, pretend = 0, frame = 0
 726              		@ frame_needed = 0, uses_anonymous_args = 0
 727              		@ link register save eliminated.
 370:Drivers/GD32E23x_standard_peripheral/Source/gd32e23x_spi.c ****     SPI_CTL0(spi_periph) |= (uint32_t)SPI_CTL0_SWNSS;
 728              		.loc 1 370 5 view .LVU194
 729              		.loc 1 370 26 is_stmt 0 view .LVU195
 730 0000 0368     		ldr	r3, [r0]
 731 0002 40F20012 		movw	r2, #256
 732 0006 1343     		orrs	r3, r2
 733 0008 0360     		str	r3, [r0]
 371:Drivers/GD32E23x_standard_peripheral/Source/gd32e23x_spi.c **** }
 734              		.loc 1 371 1 view .LVU196
 735              		@ sp needed
 736 000a 7047     		bx	lr
 737              		.cfi_endproc
 738              	.LFE77:
 740              		.section	.text.spi_nss_internal_low,"ax",%progbits
 741              		.align	1
 742              		.global	spi_nss_internal_low
 743              		.syntax unified
 744              		.code	16
 745              		.thumb_func
 746              		.fpu softvfp
 748              	spi_nss_internal_low:
 749              	.LVL83:
 750              	.LFB78:
 372:Drivers/GD32E23x_standard_peripheral/Source/gd32e23x_spi.c **** 
 373:Drivers/GD32E23x_standard_peripheral/Source/gd32e23x_spi.c **** /*!
 374:Drivers/GD32E23x_standard_peripheral/Source/gd32e23x_spi.c ****     \brief      SPI NSS pin low level in software mode
 375:Drivers/GD32E23x_standard_peripheral/Source/gd32e23x_spi.c ****     \param[in]  spi_periph: SPIx(x=0,1)
 376:Drivers/GD32E23x_standard_peripheral/Source/gd32e23x_spi.c ****     \param[out] none
ARM GAS  /var/folders/rv/zq8s_02j1dj4vjvr1mm5zl2r0000gn/T//ccSJYVCc.s 			page 21


 377:Drivers/GD32E23x_standard_peripheral/Source/gd32e23x_spi.c ****     \retval     none
 378:Drivers/GD32E23x_standard_peripheral/Source/gd32e23x_spi.c **** */
 379:Drivers/GD32E23x_standard_peripheral/Source/gd32e23x_spi.c **** void spi_nss_internal_low(uint32_t spi_periph)
 380:Drivers/GD32E23x_standard_peripheral/Source/gd32e23x_spi.c **** {
 751              		.loc 1 380 1 is_stmt 1 view -0
 752              		.cfi_startproc
 753              		@ args = 0, pretend = 0, frame = 0
 754              		@ frame_needed = 0, uses_anonymous_args = 0
 755              		@ link register save eliminated.
 381:Drivers/GD32E23x_standard_peripheral/Source/gd32e23x_spi.c ****     SPI_CTL0(spi_periph) &= (uint32_t)(~SPI_CTL0_SWNSS);
 756              		.loc 1 381 5 view .LVU198
 757              		.loc 1 381 26 is_stmt 0 view .LVU199
 758 0000 0368     		ldr	r3, [r0]
 759 0002 024A     		ldr	r2, .L32
 760 0004 1340     		ands	r3, r2
 761 0006 0360     		str	r3, [r0]
 382:Drivers/GD32E23x_standard_peripheral/Source/gd32e23x_spi.c **** }
 762              		.loc 1 382 1 view .LVU200
 763              		@ sp needed
 764 0008 7047     		bx	lr
 765              	.L33:
 766 000a C046     		.align	2
 767              	.L32:
 768 000c FFFEFFFF 		.word	-257
 769              		.cfi_endproc
 770              	.LFE78:
 772              		.section	.text.spi_dma_enable,"ax",%progbits
 773              		.align	1
 774              		.global	spi_dma_enable
 775              		.syntax unified
 776              		.code	16
 777              		.thumb_func
 778              		.fpu softvfp
 780              	spi_dma_enable:
 781              	.LVL84:
 782              	.LFB79:
 383:Drivers/GD32E23x_standard_peripheral/Source/gd32e23x_spi.c **** 
 384:Drivers/GD32E23x_standard_peripheral/Source/gd32e23x_spi.c **** /*!
 385:Drivers/GD32E23x_standard_peripheral/Source/gd32e23x_spi.c ****     \brief      enable SPI DMA send or receive 
 386:Drivers/GD32E23x_standard_peripheral/Source/gd32e23x_spi.c ****     \param[in]  spi_periph: SPIx(x=0,1)
 387:Drivers/GD32E23x_standard_peripheral/Source/gd32e23x_spi.c ****     \param[in]  dma: SPI DMA mode
 388:Drivers/GD32E23x_standard_peripheral/Source/gd32e23x_spi.c ****                 only one parameter can be selected which is shown as below:
 389:Drivers/GD32E23x_standard_peripheral/Source/gd32e23x_spi.c ****       \arg        SPI_DMA_TRANSMIT: SPI transmit data using DMA
 390:Drivers/GD32E23x_standard_peripheral/Source/gd32e23x_spi.c ****       \arg        SPI_DMA_RECEIVE: SPI receive data using DMA
 391:Drivers/GD32E23x_standard_peripheral/Source/gd32e23x_spi.c ****     \param[out] none
 392:Drivers/GD32E23x_standard_peripheral/Source/gd32e23x_spi.c ****     \retval     none
 393:Drivers/GD32E23x_standard_peripheral/Source/gd32e23x_spi.c **** */
 394:Drivers/GD32E23x_standard_peripheral/Source/gd32e23x_spi.c **** void spi_dma_enable(uint32_t spi_periph, uint8_t dma)
 395:Drivers/GD32E23x_standard_peripheral/Source/gd32e23x_spi.c **** {
 783              		.loc 1 395 1 is_stmt 1 view -0
 784              		.cfi_startproc
 785              		@ args = 0, pretend = 0, frame = 0
 786              		@ frame_needed = 0, uses_anonymous_args = 0
 787              		@ link register save eliminated.
 396:Drivers/GD32E23x_standard_peripheral/Source/gd32e23x_spi.c ****     if(SPI_DMA_TRANSMIT == dma){
 788              		.loc 1 396 5 view .LVU202
 789              		.loc 1 396 7 is_stmt 0 view .LVU203
ARM GAS  /var/folders/rv/zq8s_02j1dj4vjvr1mm5zl2r0000gn/T//ccSJYVCc.s 			page 22


 790 0000 21B9     		cbnz	r1, .L35
 397:Drivers/GD32E23x_standard_peripheral/Source/gd32e23x_spi.c ****         SPI_CTL1(spi_periph) |= (uint32_t)SPI_CTL1_DMATEN;
 791              		.loc 1 397 9 is_stmt 1 view .LVU204
 792              		.loc 1 397 30 is_stmt 0 view .LVU205
 793 0002 4368     		ldr	r3, [r0, #4]
 794 0004 0222     		movs	r2, #2
 795 0006 1343     		orrs	r3, r2
 796 0008 4360     		str	r3, [r0, #4]
 797              	.L34:
 398:Drivers/GD32E23x_standard_peripheral/Source/gd32e23x_spi.c ****     }else{
 399:Drivers/GD32E23x_standard_peripheral/Source/gd32e23x_spi.c ****         SPI_CTL1(spi_periph) |= (uint32_t)SPI_CTL1_DMAREN;
 400:Drivers/GD32E23x_standard_peripheral/Source/gd32e23x_spi.c ****     }
 401:Drivers/GD32E23x_standard_peripheral/Source/gd32e23x_spi.c **** }
 798              		.loc 1 401 1 view .LVU206
 799              		@ sp needed
 800 000a 7047     		bx	lr
 801              	.L35:
 399:Drivers/GD32E23x_standard_peripheral/Source/gd32e23x_spi.c ****     }
 802              		.loc 1 399 9 is_stmt 1 view .LVU207
 399:Drivers/GD32E23x_standard_peripheral/Source/gd32e23x_spi.c ****     }
 803              		.loc 1 399 30 is_stmt 0 view .LVU208
 804 000c 4368     		ldr	r3, [r0, #4]
 805 000e 0122     		movs	r2, #1
 806 0010 1343     		orrs	r3, r2
 807 0012 4360     		str	r3, [r0, #4]
 808              		.loc 1 401 1 view .LVU209
 809 0014 F9E7     		b	.L34
 810              		.cfi_endproc
 811              	.LFE79:
 813              		.section	.text.spi_dma_disable,"ax",%progbits
 814              		.align	1
 815              		.global	spi_dma_disable
 816              		.syntax unified
 817              		.code	16
 818              		.thumb_func
 819              		.fpu softvfp
 821              	spi_dma_disable:
 822              	.LVL85:
 823              	.LFB80:
 402:Drivers/GD32E23x_standard_peripheral/Source/gd32e23x_spi.c **** 
 403:Drivers/GD32E23x_standard_peripheral/Source/gd32e23x_spi.c **** /*!
 404:Drivers/GD32E23x_standard_peripheral/Source/gd32e23x_spi.c ****     \brief      disable SPI DMA send or receive 
 405:Drivers/GD32E23x_standard_peripheral/Source/gd32e23x_spi.c ****     \param[in]  spi_periph: SPIx(x=0,1)
 406:Drivers/GD32E23x_standard_peripheral/Source/gd32e23x_spi.c ****     \param[in]  dma: SPI DMA mode
 407:Drivers/GD32E23x_standard_peripheral/Source/gd32e23x_spi.c ****                 only one parameter can be selected which is shown as below:
 408:Drivers/GD32E23x_standard_peripheral/Source/gd32e23x_spi.c ****       \arg        SPI_DMA_TRANSMIT: SPI transmit data using DMA
 409:Drivers/GD32E23x_standard_peripheral/Source/gd32e23x_spi.c ****       \arg        SPI_DMA_RECEIVE: SPI receive data using DMA
 410:Drivers/GD32E23x_standard_peripheral/Source/gd32e23x_spi.c ****     \param[out] none
 411:Drivers/GD32E23x_standard_peripheral/Source/gd32e23x_spi.c ****     \retval     none
 412:Drivers/GD32E23x_standard_peripheral/Source/gd32e23x_spi.c **** */
 413:Drivers/GD32E23x_standard_peripheral/Source/gd32e23x_spi.c **** void spi_dma_disable(uint32_t spi_periph, uint8_t dma)
 414:Drivers/GD32E23x_standard_peripheral/Source/gd32e23x_spi.c **** {
 824              		.loc 1 414 1 is_stmt 1 view -0
 825              		.cfi_startproc
 826              		@ args = 0, pretend = 0, frame = 0
 827              		@ frame_needed = 0, uses_anonymous_args = 0
 828              		@ link register save eliminated.
ARM GAS  /var/folders/rv/zq8s_02j1dj4vjvr1mm5zl2r0000gn/T//ccSJYVCc.s 			page 23


 415:Drivers/GD32E23x_standard_peripheral/Source/gd32e23x_spi.c ****     if(SPI_DMA_TRANSMIT == dma){
 829              		.loc 1 415 5 view .LVU211
 830              		.loc 1 415 7 is_stmt 0 view .LVU212
 831 0000 21B9     		cbnz	r1, .L38
 416:Drivers/GD32E23x_standard_peripheral/Source/gd32e23x_spi.c ****         SPI_CTL1(spi_periph) &= (uint32_t)(~SPI_CTL1_DMATEN);
 832              		.loc 1 416 9 is_stmt 1 view .LVU213
 833              		.loc 1 416 30 is_stmt 0 view .LVU214
 834 0002 4368     		ldr	r3, [r0, #4]
 835 0004 0222     		movs	r2, #2
 836 0006 9343     		bics	r3, r2
 837 0008 4360     		str	r3, [r0, #4]
 838              	.L37:
 417:Drivers/GD32E23x_standard_peripheral/Source/gd32e23x_spi.c ****     }else{
 418:Drivers/GD32E23x_standard_peripheral/Source/gd32e23x_spi.c ****         SPI_CTL1(spi_periph) &= (uint32_t)(~SPI_CTL1_DMAREN);
 419:Drivers/GD32E23x_standard_peripheral/Source/gd32e23x_spi.c ****     }
 420:Drivers/GD32E23x_standard_peripheral/Source/gd32e23x_spi.c **** }
 839              		.loc 1 420 1 view .LVU215
 840              		@ sp needed
 841 000a 7047     		bx	lr
 842              	.L38:
 418:Drivers/GD32E23x_standard_peripheral/Source/gd32e23x_spi.c ****     }
 843              		.loc 1 418 9 is_stmt 1 view .LVU216
 418:Drivers/GD32E23x_standard_peripheral/Source/gd32e23x_spi.c ****     }
 844              		.loc 1 418 30 is_stmt 0 view .LVU217
 845 000c 4368     		ldr	r3, [r0, #4]
 846 000e 0122     		movs	r2, #1
 847 0010 9343     		bics	r3, r2
 848 0012 4360     		str	r3, [r0, #4]
 849              		.loc 1 420 1 view .LVU218
 850 0014 F9E7     		b	.L37
 851              		.cfi_endproc
 852              	.LFE80:
 854              		.section	.text.spi_i2s_data_frame_format_config,"ax",%progbits
 855              		.align	1
 856              		.global	spi_i2s_data_frame_format_config
 857              		.syntax unified
 858              		.code	16
 859              		.thumb_func
 860              		.fpu softvfp
 862              	spi_i2s_data_frame_format_config:
 863              	.LVL86:
 864              	.LFB81:
 421:Drivers/GD32E23x_standard_peripheral/Source/gd32e23x_spi.c **** 
 422:Drivers/GD32E23x_standard_peripheral/Source/gd32e23x_spi.c **** /*!
 423:Drivers/GD32E23x_standard_peripheral/Source/gd32e23x_spi.c ****     \brief      configure SPI/I2S data frame format
 424:Drivers/GD32E23x_standard_peripheral/Source/gd32e23x_spi.c ****     \param[in]  spi_periph: SPIx(x=0,1)
 425:Drivers/GD32E23x_standard_peripheral/Source/gd32e23x_spi.c ****     \param[in]  frame_format: SPI frame size
 426:Drivers/GD32E23x_standard_peripheral/Source/gd32e23x_spi.c ****                 only one parameter can be selected which is shown as below:
 427:Drivers/GD32E23x_standard_peripheral/Source/gd32e23x_spi.c ****       \arg        SPI_FRAMESIZE_4BIT: SPI frame size is 4 bits
 428:Drivers/GD32E23x_standard_peripheral/Source/gd32e23x_spi.c ****       \arg        SPI_FRAMESIZE_5BIT: SPI frame size is 5 bits
 429:Drivers/GD32E23x_standard_peripheral/Source/gd32e23x_spi.c ****       \arg        SPI_FRAMESIZE_6BIT: SPI frame size is 6 bits
 430:Drivers/GD32E23x_standard_peripheral/Source/gd32e23x_spi.c ****       \arg        SPI_FRAMESIZE_7BIT: SPI frame size is 7 bits
 431:Drivers/GD32E23x_standard_peripheral/Source/gd32e23x_spi.c ****       \arg        SPI_FRAMESIZE_8BIT: SPI frame size is 8 bits
 432:Drivers/GD32E23x_standard_peripheral/Source/gd32e23x_spi.c ****       \arg        SPI_FRAMESIZE_9BIT: SPI frame size is 9 bits
 433:Drivers/GD32E23x_standard_peripheral/Source/gd32e23x_spi.c ****       \arg        SPI_FRAMESIZE_10BIT: SPI frame size is 10 bits
 434:Drivers/GD32E23x_standard_peripheral/Source/gd32e23x_spi.c ****       \arg        SPI_FRAMESIZE_11BIT: SPI frame size is 11 bits
 435:Drivers/GD32E23x_standard_peripheral/Source/gd32e23x_spi.c ****       \arg        SPI_FRAMESIZE_12BIT: SPI frame size is 12 bits
ARM GAS  /var/folders/rv/zq8s_02j1dj4vjvr1mm5zl2r0000gn/T//ccSJYVCc.s 			page 24


 436:Drivers/GD32E23x_standard_peripheral/Source/gd32e23x_spi.c ****       \arg        SPI_FRAMESIZE_13BIT: SPI frame size is 13 bits
 437:Drivers/GD32E23x_standard_peripheral/Source/gd32e23x_spi.c ****       \arg        SPI_FRAMESIZE_14BIT: SPI frame size is 14 bits
 438:Drivers/GD32E23x_standard_peripheral/Source/gd32e23x_spi.c ****       \arg        SPI_FRAMESIZE_15BIT: SPI frame size is 15 bits
 439:Drivers/GD32E23x_standard_peripheral/Source/gd32e23x_spi.c ****       \arg        SPI_FRAMESIZE_16BIT: SPI frame size is 16 bits
 440:Drivers/GD32E23x_standard_peripheral/Source/gd32e23x_spi.c ****     \param[out] none
 441:Drivers/GD32E23x_standard_peripheral/Source/gd32e23x_spi.c ****     \retval     ErrStatus: ERROR or SUCCESS
 442:Drivers/GD32E23x_standard_peripheral/Source/gd32e23x_spi.c **** */
 443:Drivers/GD32E23x_standard_peripheral/Source/gd32e23x_spi.c **** ErrStatus spi_i2s_data_frame_format_config(uint32_t spi_periph, uint16_t frame_format)
 444:Drivers/GD32E23x_standard_peripheral/Source/gd32e23x_spi.c **** {
 865              		.loc 1 444 1 is_stmt 1 view -0
 866              		.cfi_startproc
 867              		@ args = 0, pretend = 0, frame = 0
 868              		@ frame_needed = 0, uses_anonymous_args = 0
 869              		@ link register save eliminated.
 445:Drivers/GD32E23x_standard_peripheral/Source/gd32e23x_spi.c ****     if(SPI0 == spi_periph)
 870              		.loc 1 445 5 view .LVU220
 871              		.loc 1 445 7 is_stmt 0 view .LVU221
 872 0000 43F20003 		movw	r3, #12288
 873 0004 C4F20103 		movt	r3, 16385
 874 0008 9842     		cmp	r0, r3
 875 000a 08D0     		beq	.L45
 446:Drivers/GD32E23x_standard_peripheral/Source/gd32e23x_spi.c ****     {
 447:Drivers/GD32E23x_standard_peripheral/Source/gd32e23x_spi.c ****         /* check SPI0 frame size is 8bits/16bits or not*/
 448:Drivers/GD32E23x_standard_peripheral/Source/gd32e23x_spi.c ****         if((SPI_FRAMESIZE_8BIT != frame_format) && (SPI_FRAMESIZE_16BIT != frame_format))
 449:Drivers/GD32E23x_standard_peripheral/Source/gd32e23x_spi.c ****         {
 450:Drivers/GD32E23x_standard_peripheral/Source/gd32e23x_spi.c ****             return ERROR;
 451:Drivers/GD32E23x_standard_peripheral/Source/gd32e23x_spi.c ****         }else{
 452:Drivers/GD32E23x_standard_peripheral/Source/gd32e23x_spi.c ****             /* clear SPI_CTL0_FF16 bit */
 453:Drivers/GD32E23x_standard_peripheral/Source/gd32e23x_spi.c ****             SPI_CTL0(spi_periph) &= (uint32_t)(~SPI_CTL0_FF16);
 454:Drivers/GD32E23x_standard_peripheral/Source/gd32e23x_spi.c ****             /* configure SPI_CTL0_FF16 bit */
 455:Drivers/GD32E23x_standard_peripheral/Source/gd32e23x_spi.c ****             SPI_CTL0(spi_periph) |= ((uint32_t)frame_format & SPI_FRAMESIZE_MASK);
 456:Drivers/GD32E23x_standard_peripheral/Source/gd32e23x_spi.c ****         }
 457:Drivers/GD32E23x_standard_peripheral/Source/gd32e23x_spi.c ****     }
 458:Drivers/GD32E23x_standard_peripheral/Source/gd32e23x_spi.c ****     else{
 459:Drivers/GD32E23x_standard_peripheral/Source/gd32e23x_spi.c ****         /* clear SPI_CTL1_DZ bits */
 460:Drivers/GD32E23x_standard_peripheral/Source/gd32e23x_spi.c ****         SPI_CTL1(spi_periph) &= (uint32_t)(~SPI_CTL1_DZ);
 876              		.loc 1 460 9 is_stmt 1 view .LVU222
 877              		.loc 1 460 30 is_stmt 0 view .LVU223
 878 000c 4368     		ldr	r3, [r0, #4]
 879 000e 0F4A     		ldr	r2, .L46
 880 0010 1340     		ands	r3, r2
 881 0012 4360     		str	r3, [r0, #4]
 461:Drivers/GD32E23x_standard_peripheral/Source/gd32e23x_spi.c ****         /* confige SPI_CTL1_DZ bits */
 462:Drivers/GD32E23x_standard_peripheral/Source/gd32e23x_spi.c ****         SPI_CTL1(spi_periph) |= (uint32_t)frame_format;
 882              		.loc 1 462 9 is_stmt 1 view .LVU224
 883              		.loc 1 462 30 is_stmt 0 view .LVU225
 884 0014 4368     		ldr	r3, [r0, #4]
 885 0016 1943     		orrs	r1, r3
 886              	.LVL87:
 887              		.loc 1 462 30 view .LVU226
 888 0018 4160     		str	r1, [r0, #4]
 463:Drivers/GD32E23x_standard_peripheral/Source/gd32e23x_spi.c ****     }
 464:Drivers/GD32E23x_standard_peripheral/Source/gd32e23x_spi.c ****     return SUCCESS;
 889              		.loc 1 464 12 view .LVU227
 890 001a 0120     		movs	r0, #1
 891              	.LVL88:
 892              	.L43:
ARM GAS  /var/folders/rv/zq8s_02j1dj4vjvr1mm5zl2r0000gn/T//ccSJYVCc.s 			page 25


 465:Drivers/GD32E23x_standard_peripheral/Source/gd32e23x_spi.c **** }
 893              		.loc 1 465 1 view .LVU228
 894              		@ sp needed
 895 001c 7047     		bx	lr
 896              	.LVL89:
 897              	.L45:
 448:Drivers/GD32E23x_standard_peripheral/Source/gd32e23x_spi.c ****         {
 898              		.loc 1 448 9 is_stmt 1 view .LVU229
 448:Drivers/GD32E23x_standard_peripheral/Source/gd32e23x_spi.c ****         {
 899              		.loc 1 448 11 is_stmt 0 view .LVU230
 900 001e 40F20073 		movw	r3, #1792
 901 0022 9942     		cmp	r1, r3
 902 0024 03D0     		beq	.L42
 448:Drivers/GD32E23x_standard_peripheral/Source/gd32e23x_spi.c ****         {
 903              		.loc 1 448 49 discriminator 1 view .LVU231
 904 0026 40F60073 		movw	r3, #3840
 905 002a 9942     		cmp	r1, r3
 906 002c 0BD1     		bne	.L44
 907              	.L42:
 453:Drivers/GD32E23x_standard_peripheral/Source/gd32e23x_spi.c ****             /* configure SPI_CTL0_FF16 bit */
 908              		.loc 1 453 13 is_stmt 1 view .LVU232
 453:Drivers/GD32E23x_standard_peripheral/Source/gd32e23x_spi.c ****             /* configure SPI_CTL0_FF16 bit */
 909              		.loc 1 453 34 is_stmt 0 view .LVU233
 910 002e 0368     		ldr	r3, [r0]
 911 0030 074A     		ldr	r2, .L46+4
 912 0032 1340     		ands	r3, r2
 913 0034 0360     		str	r3, [r0]
 455:Drivers/GD32E23x_standard_peripheral/Source/gd32e23x_spi.c ****         }
 914              		.loc 1 455 13 is_stmt 1 view .LVU234
 455:Drivers/GD32E23x_standard_peripheral/Source/gd32e23x_spi.c ****         }
 915              		.loc 1 455 34 is_stmt 0 view .LVU235
 916 0036 0368     		ldr	r3, [r0]
 455:Drivers/GD32E23x_standard_peripheral/Source/gd32e23x_spi.c ****         }
 917              		.loc 1 455 61 view .LVU236
 918 0038 40F60002 		movw	r2, #2048
 919 003c 1140     		ands	r1, r2
 920              	.LVL90:
 455:Drivers/GD32E23x_standard_peripheral/Source/gd32e23x_spi.c ****         }
 921              		.loc 1 455 34 view .LVU237
 922 003e 1943     		orrs	r1, r3
 923 0040 0160     		str	r1, [r0]
 464:Drivers/GD32E23x_standard_peripheral/Source/gd32e23x_spi.c **** }
 924              		.loc 1 464 12 view .LVU238
 925 0042 0120     		movs	r0, #1
 926              	.LVL91:
 464:Drivers/GD32E23x_standard_peripheral/Source/gd32e23x_spi.c **** }
 927              		.loc 1 464 12 view .LVU239
 928 0044 EAE7     		b	.L43
 929              	.LVL92:
 930              	.L44:
 450:Drivers/GD32E23x_standard_peripheral/Source/gd32e23x_spi.c ****         }else{
 931              		.loc 1 450 20 view .LVU240
 932 0046 0020     		movs	r0, #0
 933              	.LVL93:
 450:Drivers/GD32E23x_standard_peripheral/Source/gd32e23x_spi.c ****         }else{
 934              		.loc 1 450 20 view .LVU241
 935 0048 E8E7     		b	.L43
ARM GAS  /var/folders/rv/zq8s_02j1dj4vjvr1mm5zl2r0000gn/T//ccSJYVCc.s 			page 26


 936              	.L47:
 937 004a C046     		.align	2
 938              	.L46:
 939 004c FFF0FFFF 		.word	-3841
 940 0050 FFF7FFFF 		.word	-2049
 941              		.cfi_endproc
 942              	.LFE81:
 944              		.section	.text.spi_i2s_data_transmit,"ax",%progbits
 945              		.align	1
 946              		.global	spi_i2s_data_transmit
 947              		.syntax unified
 948              		.code	16
 949              		.thumb_func
 950              		.fpu softvfp
 952              	spi_i2s_data_transmit:
 953              	.LVL94:
 954              	.LFB82:
 466:Drivers/GD32E23x_standard_peripheral/Source/gd32e23x_spi.c **** 
 467:Drivers/GD32E23x_standard_peripheral/Source/gd32e23x_spi.c **** /*!
 468:Drivers/GD32E23x_standard_peripheral/Source/gd32e23x_spi.c ****     \brief      SPI transmit data
 469:Drivers/GD32E23x_standard_peripheral/Source/gd32e23x_spi.c ****     \param[in]  spi_periph: SPIx(x=0,1)
 470:Drivers/GD32E23x_standard_peripheral/Source/gd32e23x_spi.c ****     \param[in]  data: 16-bit data
 471:Drivers/GD32E23x_standard_peripheral/Source/gd32e23x_spi.c ****     \param[out] none
 472:Drivers/GD32E23x_standard_peripheral/Source/gd32e23x_spi.c ****     \retval     none
 473:Drivers/GD32E23x_standard_peripheral/Source/gd32e23x_spi.c **** */
 474:Drivers/GD32E23x_standard_peripheral/Source/gd32e23x_spi.c **** void spi_i2s_data_transmit(uint32_t spi_periph, uint16_t data)
 475:Drivers/GD32E23x_standard_peripheral/Source/gd32e23x_spi.c **** {
 955              		.loc 1 475 1 is_stmt 1 view -0
 956              		.cfi_startproc
 957              		@ args = 0, pretend = 0, frame = 0
 958              		@ frame_needed = 0, uses_anonymous_args = 0
 959              		@ link register save eliminated.
 476:Drivers/GD32E23x_standard_peripheral/Source/gd32e23x_spi.c ****     uint32_t reg, byten;
 960              		.loc 1 476 5 view .LVU243
 477:Drivers/GD32E23x_standard_peripheral/Source/gd32e23x_spi.c ****     if(SPI0 == spi_periph)
 961              		.loc 1 477 5 view .LVU244
 962              		.loc 1 477 7 is_stmt 0 view .LVU245
 963 0000 43F20003 		movw	r3, #12288
 964 0004 C4F20103 		movt	r3, 16385
 965 0008 9842     		cmp	r0, r3
 966 000a 04D0     		beq	.L52
 478:Drivers/GD32E23x_standard_peripheral/Source/gd32e23x_spi.c ****     {
 479:Drivers/GD32E23x_standard_peripheral/Source/gd32e23x_spi.c ****         SPI_DATA(spi_periph) = (uint32_t)data;
 480:Drivers/GD32E23x_standard_peripheral/Source/gd32e23x_spi.c ****     }
 481:Drivers/GD32E23x_standard_peripheral/Source/gd32e23x_spi.c ****     else
 482:Drivers/GD32E23x_standard_peripheral/Source/gd32e23x_spi.c ****     {
 483:Drivers/GD32E23x_standard_peripheral/Source/gd32e23x_spi.c ****         /* get the access size to FIFO */
 484:Drivers/GD32E23x_standard_peripheral/Source/gd32e23x_spi.c ****         byten = SPI_CTL1(spi_periph) & SPI_BYTEN_MASK;
 967              		.loc 1 484 9 is_stmt 1 view .LVU246
 968              		.loc 1 484 17 is_stmt 0 view .LVU247
 969 000c 4368     		ldr	r3, [r0, #4]
 970              	.LVL95:
 485:Drivers/GD32E23x_standard_peripheral/Source/gd32e23x_spi.c ****         if(RESET != byten)
 971              		.loc 1 485 9 is_stmt 1 view .LVU248
 972              		.loc 1 485 11 is_stmt 0 view .LVU249
 973 000e DB04     		lsls	r3, r3, #19
 974 0010 03D5     		bpl	.L51
ARM GAS  /var/folders/rv/zq8s_02j1dj4vjvr1mm5zl2r0000gn/T//ccSJYVCc.s 			page 27


 975              	.LVL96:
 486:Drivers/GD32E23x_standard_peripheral/Source/gd32e23x_spi.c ****         {
 487:Drivers/GD32E23x_standard_peripheral/Source/gd32e23x_spi.c ****             reg = spi_periph + 0x0CU;
 976              		.loc 1 487 13 is_stmt 1 view .LVU250
 488:Drivers/GD32E23x_standard_peripheral/Source/gd32e23x_spi.c ****             *( uint8_t *)(reg) = (uint8_t)data;
 977              		.loc 1 488 13 view .LVU251
 978              		.loc 1 488 32 is_stmt 0 view .LVU252
 979 0012 0173     		strb	r1, [r0, #12]
 980 0014 00E0     		b	.L48
 981              	.LVL97:
 982              	.L52:
 479:Drivers/GD32E23x_standard_peripheral/Source/gd32e23x_spi.c ****     }
 983              		.loc 1 479 9 is_stmt 1 view .LVU253
 479:Drivers/GD32E23x_standard_peripheral/Source/gd32e23x_spi.c ****     }
 984              		.loc 1 479 30 is_stmt 0 view .LVU254
 985 0016 C160     		str	r1, [r0, #12]
 986              	.L48:
 489:Drivers/GD32E23x_standard_peripheral/Source/gd32e23x_spi.c ****         }else
 490:Drivers/GD32E23x_standard_peripheral/Source/gd32e23x_spi.c ****         {
 491:Drivers/GD32E23x_standard_peripheral/Source/gd32e23x_spi.c ****             SPI_DATA(spi_periph) = (uint16_t)data;
 492:Drivers/GD32E23x_standard_peripheral/Source/gd32e23x_spi.c ****         }
 493:Drivers/GD32E23x_standard_peripheral/Source/gd32e23x_spi.c ****     }
 494:Drivers/GD32E23x_standard_peripheral/Source/gd32e23x_spi.c **** }
 987              		.loc 1 494 1 view .LVU255
 988              		@ sp needed
 989 0018 7047     		bx	lr
 990              	.L51:
 491:Drivers/GD32E23x_standard_peripheral/Source/gd32e23x_spi.c ****         }
 991              		.loc 1 491 13 is_stmt 1 view .LVU256
 491:Drivers/GD32E23x_standard_peripheral/Source/gd32e23x_spi.c ****         }
 992              		.loc 1 491 34 is_stmt 0 view .LVU257
 993 001a C160     		str	r1, [r0, #12]
 994              		.loc 1 494 1 view .LVU258
 995 001c FCE7     		b	.L48
 996              		.cfi_endproc
 997              	.LFE82:
 999              		.section	.text.spi_i2s_data_receive,"ax",%progbits
 1000              		.align	1
 1001              		.global	spi_i2s_data_receive
 1002              		.syntax unified
 1003              		.code	16
 1004              		.thumb_func
 1005              		.fpu softvfp
 1007              	spi_i2s_data_receive:
 1008              	.LVL98:
 1009              	.LFB83:
 495:Drivers/GD32E23x_standard_peripheral/Source/gd32e23x_spi.c **** 
 496:Drivers/GD32E23x_standard_peripheral/Source/gd32e23x_spi.c **** /*!
 497:Drivers/GD32E23x_standard_peripheral/Source/gd32e23x_spi.c ****     \brief      SPI receive data
 498:Drivers/GD32E23x_standard_peripheral/Source/gd32e23x_spi.c ****     \param[in]  spi_periph: SPIx(x=0,1)
 499:Drivers/GD32E23x_standard_peripheral/Source/gd32e23x_spi.c ****     \param[out] none
 500:Drivers/GD32E23x_standard_peripheral/Source/gd32e23x_spi.c ****     \retval     16-bit data
 501:Drivers/GD32E23x_standard_peripheral/Source/gd32e23x_spi.c **** */
 502:Drivers/GD32E23x_standard_peripheral/Source/gd32e23x_spi.c **** uint16_t spi_i2s_data_receive(uint32_t spi_periph)
 503:Drivers/GD32E23x_standard_peripheral/Source/gd32e23x_spi.c **** {
 1010              		.loc 1 503 1 is_stmt 1 view -0
 1011              		.cfi_startproc
ARM GAS  /var/folders/rv/zq8s_02j1dj4vjvr1mm5zl2r0000gn/T//ccSJYVCc.s 			page 28


 1012              		@ args = 0, pretend = 0, frame = 0
 1013              		@ frame_needed = 0, uses_anonymous_args = 0
 1014              		@ link register save eliminated.
 504:Drivers/GD32E23x_standard_peripheral/Source/gd32e23x_spi.c ****     uint32_t reg, byten;
 1015              		.loc 1 504 5 view .LVU260
 505:Drivers/GD32E23x_standard_peripheral/Source/gd32e23x_spi.c ****     if(SPI0 == spi_periph)
 1016              		.loc 1 505 5 view .LVU261
 1017              		.loc 1 505 7 is_stmt 0 view .LVU262
 1018 0000 43F20003 		movw	r3, #12288
 1019 0004 C4F20103 		movt	r3, 16385
 1020 0008 9842     		cmp	r0, r3
 1021 000a 04D0     		beq	.L57
 506:Drivers/GD32E23x_standard_peripheral/Source/gd32e23x_spi.c ****     {
 507:Drivers/GD32E23x_standard_peripheral/Source/gd32e23x_spi.c ****         return ((uint16_t)SPI_DATA(spi_periph));
 508:Drivers/GD32E23x_standard_peripheral/Source/gd32e23x_spi.c ****     }
 509:Drivers/GD32E23x_standard_peripheral/Source/gd32e23x_spi.c ****     else
 510:Drivers/GD32E23x_standard_peripheral/Source/gd32e23x_spi.c ****     {
 511:Drivers/GD32E23x_standard_peripheral/Source/gd32e23x_spi.c ****         /* get the access size to FIFO */
 512:Drivers/GD32E23x_standard_peripheral/Source/gd32e23x_spi.c ****         byten = SPI_CTL1(spi_periph) & SPI_BYTEN_MASK;
 1022              		.loc 1 512 9 is_stmt 1 view .LVU263
 1023              		.loc 1 512 17 is_stmt 0 view .LVU264
 1024 000c 4368     		ldr	r3, [r0, #4]
 1025              	.LVL99:
 513:Drivers/GD32E23x_standard_peripheral/Source/gd32e23x_spi.c ****         if(RESET != byten)
 1026              		.loc 1 513 9 is_stmt 1 view .LVU265
 1027              		.loc 1 513 11 is_stmt 0 view .LVU266
 1028 000e DB04     		lsls	r3, r3, #19
 1029 0010 04D5     		bpl	.L56
 1030              	.LVL100:
 514:Drivers/GD32E23x_standard_peripheral/Source/gd32e23x_spi.c ****         {
 515:Drivers/GD32E23x_standard_peripheral/Source/gd32e23x_spi.c ****             reg = spi_periph + 0x0CU;
 1031              		.loc 1 515 13 is_stmt 1 view .LVU267
 516:Drivers/GD32E23x_standard_peripheral/Source/gd32e23x_spi.c ****             return (uint16_t)(*(uint8_t *)(reg));
 1032              		.loc 1 516 13 view .LVU268
 1033              		.loc 1 516 20 is_stmt 0 view .LVU269
 1034 0012 007B     		ldrb	r0, [r0, #12]
 1035              	.LVL101:
 1036              	.L55:
 517:Drivers/GD32E23x_standard_peripheral/Source/gd32e23x_spi.c ****         }else
 518:Drivers/GD32E23x_standard_peripheral/Source/gd32e23x_spi.c ****         {
 519:Drivers/GD32E23x_standard_peripheral/Source/gd32e23x_spi.c ****             return ((uint16_t)SPI_DATA(spi_periph));
 520:Drivers/GD32E23x_standard_peripheral/Source/gd32e23x_spi.c ****         }
 521:Drivers/GD32E23x_standard_peripheral/Source/gd32e23x_spi.c ****     }
 522:Drivers/GD32E23x_standard_peripheral/Source/gd32e23x_spi.c **** }
 1037              		.loc 1 522 1 view .LVU270
 1038              		@ sp needed
 1039 0014 7047     		bx	lr
 1040              	.LVL102:
 1041              	.L57:
 507:Drivers/GD32E23x_standard_peripheral/Source/gd32e23x_spi.c ****     }
 1042              		.loc 1 507 9 is_stmt 1 view .LVU271
 507:Drivers/GD32E23x_standard_peripheral/Source/gd32e23x_spi.c ****     }
 1043              		.loc 1 507 27 is_stmt 0 view .LVU272
 1044 0016 C068     		ldr	r0, [r0, #12]
 1045              	.LVL103:
 507:Drivers/GD32E23x_standard_peripheral/Source/gd32e23x_spi.c ****     }
 1046              		.loc 1 507 17 view .LVU273
ARM GAS  /var/folders/rv/zq8s_02j1dj4vjvr1mm5zl2r0000gn/T//ccSJYVCc.s 			page 29


 1047 0018 80B2     		uxth	r0, r0
 1048 001a FBE7     		b	.L55
 1049              	.LVL104:
 1050              	.L56:
 519:Drivers/GD32E23x_standard_peripheral/Source/gd32e23x_spi.c ****         }
 1051              		.loc 1 519 13 is_stmt 1 view .LVU274
 519:Drivers/GD32E23x_standard_peripheral/Source/gd32e23x_spi.c ****         }
 1052              		.loc 1 519 31 is_stmt 0 view .LVU275
 1053 001c C068     		ldr	r0, [r0, #12]
 1054              	.LVL105:
 519:Drivers/GD32E23x_standard_peripheral/Source/gd32e23x_spi.c ****         }
 1055              		.loc 1 519 21 view .LVU276
 1056 001e 80B2     		uxth	r0, r0
 1057 0020 F8E7     		b	.L55
 1058              		.cfi_endproc
 1059              	.LFE83:
 1061              		.section	.text.spi_bidirectional_transfer_config,"ax",%progbits
 1062              		.align	1
 1063              		.global	spi_bidirectional_transfer_config
 1064              		.syntax unified
 1065              		.code	16
 1066              		.thumb_func
 1067              		.fpu softvfp
 1069              	spi_bidirectional_transfer_config:
 1070              	.LVL106:
 1071              	.LFB84:
 523:Drivers/GD32E23x_standard_peripheral/Source/gd32e23x_spi.c **** 
 524:Drivers/GD32E23x_standard_peripheral/Source/gd32e23x_spi.c **** /*!
 525:Drivers/GD32E23x_standard_peripheral/Source/gd32e23x_spi.c ****     \brief      configure SPI bidirectional transfer direction
 526:Drivers/GD32E23x_standard_peripheral/Source/gd32e23x_spi.c ****     \param[in]  spi_periph: SPIx(x=0,1)
 527:Drivers/GD32E23x_standard_peripheral/Source/gd32e23x_spi.c ****     \param[in]  transfer_direction: SPI transfer direction
 528:Drivers/GD32E23x_standard_peripheral/Source/gd32e23x_spi.c ****                 only one parameter can be selected which is shown as below:
 529:Drivers/GD32E23x_standard_peripheral/Source/gd32e23x_spi.c ****       \arg        SPI_BIDIRECTIONAL_TRANSMIT: SPI work in transmit-only mode
 530:Drivers/GD32E23x_standard_peripheral/Source/gd32e23x_spi.c ****       \arg        SPI_BIDIRECTIONAL_RECEIVE: SPI work in receive-only mode
 531:Drivers/GD32E23x_standard_peripheral/Source/gd32e23x_spi.c ****     \param[out] none
 532:Drivers/GD32E23x_standard_peripheral/Source/gd32e23x_spi.c ****     \retval     none
 533:Drivers/GD32E23x_standard_peripheral/Source/gd32e23x_spi.c **** */
 534:Drivers/GD32E23x_standard_peripheral/Source/gd32e23x_spi.c **** void spi_bidirectional_transfer_config(uint32_t spi_periph, uint32_t transfer_direction)
 535:Drivers/GD32E23x_standard_peripheral/Source/gd32e23x_spi.c **** {
 1072              		.loc 1 535 1 is_stmt 1 view -0
 1073              		.cfi_startproc
 1074              		@ args = 0, pretend = 0, frame = 0
 1075              		@ frame_needed = 0, uses_anonymous_args = 0
 1076              		@ link register save eliminated.
 536:Drivers/GD32E23x_standard_peripheral/Source/gd32e23x_spi.c ****     if(SPI_BIDIRECTIONAL_TRANSMIT == transfer_direction){
 1077              		.loc 1 536 5 view .LVU278
 1078              		.loc 1 536 7 is_stmt 0 view .LVU279
 1079 0000 44F20003 		movw	r3, #16384
 1080 0004 9942     		cmp	r1, r3
 1081 0006 04D0     		beq	.L61
 537:Drivers/GD32E23x_standard_peripheral/Source/gd32e23x_spi.c ****         /* set the transmit-only mode */
 538:Drivers/GD32E23x_standard_peripheral/Source/gd32e23x_spi.c ****         SPI_CTL0(spi_periph) |= (uint32_t)SPI_BIDIRECTIONAL_TRANSMIT;
 539:Drivers/GD32E23x_standard_peripheral/Source/gd32e23x_spi.c ****     }else{
 540:Drivers/GD32E23x_standard_peripheral/Source/gd32e23x_spi.c ****         /* set the receive-only mode */
 541:Drivers/GD32E23x_standard_peripheral/Source/gd32e23x_spi.c ****         SPI_CTL0(spi_periph) &= SPI_BIDIRECTIONAL_RECEIVE;
 1082              		.loc 1 541 9 is_stmt 1 view .LVU280
 1083              		.loc 1 541 30 is_stmt 0 view .LVU281
ARM GAS  /var/folders/rv/zq8s_02j1dj4vjvr1mm5zl2r0000gn/T//ccSJYVCc.s 			page 30


 1084 0008 0368     		ldr	r3, [r0]
 1085 000a 054A     		ldr	r2, .L62
 1086 000c 1340     		ands	r3, r2
 1087 000e 0360     		str	r3, [r0]
 1088              	.L58:
 542:Drivers/GD32E23x_standard_peripheral/Source/gd32e23x_spi.c ****     }
 543:Drivers/GD32E23x_standard_peripheral/Source/gd32e23x_spi.c **** }
 1089              		.loc 1 543 1 view .LVU282
 1090              		@ sp needed
 1091 0010 7047     		bx	lr
 1092              	.L61:
 538:Drivers/GD32E23x_standard_peripheral/Source/gd32e23x_spi.c ****     }else{
 1093              		.loc 1 538 9 is_stmt 1 view .LVU283
 538:Drivers/GD32E23x_standard_peripheral/Source/gd32e23x_spi.c ****     }else{
 1094              		.loc 1 538 30 is_stmt 0 view .LVU284
 1095 0012 0368     		ldr	r3, [r0]
 1096 0014 44F20002 		movw	r2, #16384
 1097 0018 1343     		orrs	r3, r2
 1098 001a 0360     		str	r3, [r0]
 1099 001c F8E7     		b	.L58
 1100              	.L63:
 1101 001e C046     		.align	2
 1102              	.L62:
 1103 0020 FFBFFFFF 		.word	-16385
 1104              		.cfi_endproc
 1105              	.LFE84:
 1107              		.section	.text.spi_crc_polynomial_set,"ax",%progbits
 1108              		.align	1
 1109              		.global	spi_crc_polynomial_set
 1110              		.syntax unified
 1111              		.code	16
 1112              		.thumb_func
 1113              		.fpu softvfp
 1115              	spi_crc_polynomial_set:
 1116              	.LVL107:
 1117              	.LFB85:
 544:Drivers/GD32E23x_standard_peripheral/Source/gd32e23x_spi.c **** 
 545:Drivers/GD32E23x_standard_peripheral/Source/gd32e23x_spi.c **** /*!
 546:Drivers/GD32E23x_standard_peripheral/Source/gd32e23x_spi.c ****     \brief      set SPI CRC polynomial 
 547:Drivers/GD32E23x_standard_peripheral/Source/gd32e23x_spi.c ****     \param[in]  spi_periph: SPIx(x=0,1)
 548:Drivers/GD32E23x_standard_peripheral/Source/gd32e23x_spi.c ****     \param[in]  crc_poly: CRC polynomial value
 549:Drivers/GD32E23x_standard_peripheral/Source/gd32e23x_spi.c ****     \param[out] none
 550:Drivers/GD32E23x_standard_peripheral/Source/gd32e23x_spi.c ****     \retval     none
 551:Drivers/GD32E23x_standard_peripheral/Source/gd32e23x_spi.c **** */
 552:Drivers/GD32E23x_standard_peripheral/Source/gd32e23x_spi.c **** void spi_crc_polynomial_set(uint32_t spi_periph, uint16_t crc_poly)
 553:Drivers/GD32E23x_standard_peripheral/Source/gd32e23x_spi.c **** {
 1118              		.loc 1 553 1 is_stmt 1 view -0
 1119              		.cfi_startproc
 1120              		@ args = 0, pretend = 0, frame = 0
 1121              		@ frame_needed = 0, uses_anonymous_args = 0
 1122              		@ link register save eliminated.
 554:Drivers/GD32E23x_standard_peripheral/Source/gd32e23x_spi.c ****     /* enable SPI CRC */
 555:Drivers/GD32E23x_standard_peripheral/Source/gd32e23x_spi.c ****     SPI_CTL0(spi_periph) |= (uint32_t)SPI_CTL0_CRCEN;
 1123              		.loc 1 555 5 view .LVU286
 1124              		.loc 1 555 26 is_stmt 0 view .LVU287
 1125 0000 0368     		ldr	r3, [r0]
 1126 0002 42F20002 		movw	r2, #8192
ARM GAS  /var/folders/rv/zq8s_02j1dj4vjvr1mm5zl2r0000gn/T//ccSJYVCc.s 			page 31


 1127 0006 1343     		orrs	r3, r2
 1128 0008 0360     		str	r3, [r0]
 556:Drivers/GD32E23x_standard_peripheral/Source/gd32e23x_spi.c ****     /* set SPI CRC polynomial */
 557:Drivers/GD32E23x_standard_peripheral/Source/gd32e23x_spi.c ****     SPI_CRCPOLY(spi_periph) = (uint32_t)crc_poly;
 1129              		.loc 1 557 5 is_stmt 1 view .LVU288
 1130              		.loc 1 557 29 is_stmt 0 view .LVU289
 1131 000a 0161     		str	r1, [r0, #16]
 558:Drivers/GD32E23x_standard_peripheral/Source/gd32e23x_spi.c **** }
 1132              		.loc 1 558 1 view .LVU290
 1133              		@ sp needed
 1134 000c 7047     		bx	lr
 1135              		.cfi_endproc
 1136              	.LFE85:
 1138              		.section	.text.spi_crc_polynomial_get,"ax",%progbits
 1139              		.align	1
 1140              		.global	spi_crc_polynomial_get
 1141              		.syntax unified
 1142              		.code	16
 1143              		.thumb_func
 1144              		.fpu softvfp
 1146              	spi_crc_polynomial_get:
 1147              	.LVL108:
 1148              	.LFB86:
 559:Drivers/GD32E23x_standard_peripheral/Source/gd32e23x_spi.c **** 
 560:Drivers/GD32E23x_standard_peripheral/Source/gd32e23x_spi.c **** /*!
 561:Drivers/GD32E23x_standard_peripheral/Source/gd32e23x_spi.c ****     \brief      get SPI CRC polynomial 
 562:Drivers/GD32E23x_standard_peripheral/Source/gd32e23x_spi.c ****     \param[in]  spi_periph: SPIx(x=0,1)
 563:Drivers/GD32E23x_standard_peripheral/Source/gd32e23x_spi.c ****     \param[out] none
 564:Drivers/GD32E23x_standard_peripheral/Source/gd32e23x_spi.c ****     \retval     16-bit CRC polynomial
 565:Drivers/GD32E23x_standard_peripheral/Source/gd32e23x_spi.c **** */
 566:Drivers/GD32E23x_standard_peripheral/Source/gd32e23x_spi.c **** uint16_t spi_crc_polynomial_get(uint32_t spi_periph)
 567:Drivers/GD32E23x_standard_peripheral/Source/gd32e23x_spi.c **** {
 1149              		.loc 1 567 1 is_stmt 1 view -0
 1150              		.cfi_startproc
 1151              		@ args = 0, pretend = 0, frame = 0
 1152              		@ frame_needed = 0, uses_anonymous_args = 0
 1153              		@ link register save eliminated.
 568:Drivers/GD32E23x_standard_peripheral/Source/gd32e23x_spi.c ****     return ((uint16_t)SPI_CRCPOLY(spi_periph));
 1154              		.loc 1 568 5 view .LVU292
 1155              		.loc 1 568 23 is_stmt 0 view .LVU293
 1156 0000 0069     		ldr	r0, [r0, #16]
 1157              	.LVL109:
 1158              		.loc 1 568 13 view .LVU294
 1159 0002 80B2     		uxth	r0, r0
 569:Drivers/GD32E23x_standard_peripheral/Source/gd32e23x_spi.c **** }
 1160              		.loc 1 569 1 view .LVU295
 1161              		@ sp needed
 1162 0004 7047     		bx	lr
 1163              		.cfi_endproc
 1164              	.LFE86:
 1166              		.section	.text.spi_crc_on,"ax",%progbits
 1167              		.align	1
 1168              		.global	spi_crc_on
 1169              		.syntax unified
 1170              		.code	16
 1171              		.thumb_func
 1172              		.fpu softvfp
ARM GAS  /var/folders/rv/zq8s_02j1dj4vjvr1mm5zl2r0000gn/T//ccSJYVCc.s 			page 32


 1174              	spi_crc_on:
 1175              	.LVL110:
 1176              	.LFB87:
 570:Drivers/GD32E23x_standard_peripheral/Source/gd32e23x_spi.c **** 
 571:Drivers/GD32E23x_standard_peripheral/Source/gd32e23x_spi.c **** /*!
 572:Drivers/GD32E23x_standard_peripheral/Source/gd32e23x_spi.c ****     \brief      turn on CRC function 
 573:Drivers/GD32E23x_standard_peripheral/Source/gd32e23x_spi.c ****     \param[in]  spi_periph: SPIx(x=0,1)
 574:Drivers/GD32E23x_standard_peripheral/Source/gd32e23x_spi.c ****     \param[out] none
 575:Drivers/GD32E23x_standard_peripheral/Source/gd32e23x_spi.c ****     \retval     none
 576:Drivers/GD32E23x_standard_peripheral/Source/gd32e23x_spi.c **** */
 577:Drivers/GD32E23x_standard_peripheral/Source/gd32e23x_spi.c **** void spi_crc_on(uint32_t spi_periph)
 578:Drivers/GD32E23x_standard_peripheral/Source/gd32e23x_spi.c **** {
 1177              		.loc 1 578 1 is_stmt 1 view -0
 1178              		.cfi_startproc
 1179              		@ args = 0, pretend = 0, frame = 0
 1180              		@ frame_needed = 0, uses_anonymous_args = 0
 1181              		@ link register save eliminated.
 579:Drivers/GD32E23x_standard_peripheral/Source/gd32e23x_spi.c ****     SPI_CTL0(spi_periph) |= (uint32_t)SPI_CTL0_CRCEN;
 1182              		.loc 1 579 5 view .LVU297
 1183              		.loc 1 579 26 is_stmt 0 view .LVU298
 1184 0000 0368     		ldr	r3, [r0]
 1185 0002 42F20002 		movw	r2, #8192
 1186 0006 1343     		orrs	r3, r2
 1187 0008 0360     		str	r3, [r0]
 580:Drivers/GD32E23x_standard_peripheral/Source/gd32e23x_spi.c **** }
 1188              		.loc 1 580 1 view .LVU299
 1189              		@ sp needed
 1190 000a 7047     		bx	lr
 1191              		.cfi_endproc
 1192              	.LFE87:
 1194              		.section	.text.spi_crc_off,"ax",%progbits
 1195              		.align	1
 1196              		.global	spi_crc_off
 1197              		.syntax unified
 1198              		.code	16
 1199              		.thumb_func
 1200              		.fpu softvfp
 1202              	spi_crc_off:
 1203              	.LVL111:
 1204              	.LFB88:
 581:Drivers/GD32E23x_standard_peripheral/Source/gd32e23x_spi.c **** 
 582:Drivers/GD32E23x_standard_peripheral/Source/gd32e23x_spi.c **** /*!
 583:Drivers/GD32E23x_standard_peripheral/Source/gd32e23x_spi.c ****     \brief      turn off CRC function 
 584:Drivers/GD32E23x_standard_peripheral/Source/gd32e23x_spi.c ****     \param[in]  spi_periph: SPIx(x=0,1)
 585:Drivers/GD32E23x_standard_peripheral/Source/gd32e23x_spi.c ****     \param[out] none
 586:Drivers/GD32E23x_standard_peripheral/Source/gd32e23x_spi.c ****     \retval     none
 587:Drivers/GD32E23x_standard_peripheral/Source/gd32e23x_spi.c **** */
 588:Drivers/GD32E23x_standard_peripheral/Source/gd32e23x_spi.c **** void spi_crc_off(uint32_t spi_periph)
 589:Drivers/GD32E23x_standard_peripheral/Source/gd32e23x_spi.c **** {
 1205              		.loc 1 589 1 is_stmt 1 view -0
 1206              		.cfi_startproc
 1207              		@ args = 0, pretend = 0, frame = 0
 1208              		@ frame_needed = 0, uses_anonymous_args = 0
 1209              		@ link register save eliminated.
 590:Drivers/GD32E23x_standard_peripheral/Source/gd32e23x_spi.c ****     SPI_CTL0(spi_periph) &= (uint32_t)(~SPI_CTL0_CRCEN);
 1210              		.loc 1 590 5 view .LVU301
 1211              		.loc 1 590 26 is_stmt 0 view .LVU302
ARM GAS  /var/folders/rv/zq8s_02j1dj4vjvr1mm5zl2r0000gn/T//ccSJYVCc.s 			page 33


 1212 0000 0368     		ldr	r3, [r0]
 1213 0002 024A     		ldr	r2, .L68
 1214 0004 1340     		ands	r3, r2
 1215 0006 0360     		str	r3, [r0]
 591:Drivers/GD32E23x_standard_peripheral/Source/gd32e23x_spi.c **** }
 1216              		.loc 1 591 1 view .LVU303
 1217              		@ sp needed
 1218 0008 7047     		bx	lr
 1219              	.L69:
 1220 000a C046     		.align	2
 1221              	.L68:
 1222 000c FFDFFFFF 		.word	-8193
 1223              		.cfi_endproc
 1224              	.LFE88:
 1226              		.section	.text.spi_crc_next,"ax",%progbits
 1227              		.align	1
 1228              		.global	spi_crc_next
 1229              		.syntax unified
 1230              		.code	16
 1231              		.thumb_func
 1232              		.fpu softvfp
 1234              	spi_crc_next:
 1235              	.LVL112:
 1236              	.LFB89:
 592:Drivers/GD32E23x_standard_peripheral/Source/gd32e23x_spi.c **** 
 593:Drivers/GD32E23x_standard_peripheral/Source/gd32e23x_spi.c **** /*!
 594:Drivers/GD32E23x_standard_peripheral/Source/gd32e23x_spi.c ****     \brief      SPI next data is CRC value
 595:Drivers/GD32E23x_standard_peripheral/Source/gd32e23x_spi.c ****     \param[in]  spi_periph: SPIx(x=0,1)
 596:Drivers/GD32E23x_standard_peripheral/Source/gd32e23x_spi.c ****     \param[out] none
 597:Drivers/GD32E23x_standard_peripheral/Source/gd32e23x_spi.c ****     \retval     none
 598:Drivers/GD32E23x_standard_peripheral/Source/gd32e23x_spi.c **** */
 599:Drivers/GD32E23x_standard_peripheral/Source/gd32e23x_spi.c **** void spi_crc_next(uint32_t spi_periph)
 600:Drivers/GD32E23x_standard_peripheral/Source/gd32e23x_spi.c **** {
 1237              		.loc 1 600 1 is_stmt 1 view -0
 1238              		.cfi_startproc
 1239              		@ args = 0, pretend = 0, frame = 0
 1240              		@ frame_needed = 0, uses_anonymous_args = 0
 1241              		@ link register save eliminated.
 601:Drivers/GD32E23x_standard_peripheral/Source/gd32e23x_spi.c ****     SPI_CTL0(spi_periph) |= (uint32_t)SPI_CTL0_CRCNT;
 1242              		.loc 1 601 5 view .LVU305
 1243              		.loc 1 601 26 is_stmt 0 view .LVU306
 1244 0000 0368     		ldr	r3, [r0]
 1245 0002 41F20002 		movw	r2, #4096
 1246 0006 1343     		orrs	r3, r2
 1247 0008 0360     		str	r3, [r0]
 602:Drivers/GD32E23x_standard_peripheral/Source/gd32e23x_spi.c **** }
 1248              		.loc 1 602 1 view .LVU307
 1249              		@ sp needed
 1250 000a 7047     		bx	lr
 1251              		.cfi_endproc
 1252              	.LFE89:
 1254              		.section	.text.spi_crc_get,"ax",%progbits
 1255              		.align	1
 1256              		.global	spi_crc_get
 1257              		.syntax unified
 1258              		.code	16
 1259              		.thumb_func
ARM GAS  /var/folders/rv/zq8s_02j1dj4vjvr1mm5zl2r0000gn/T//ccSJYVCc.s 			page 34


 1260              		.fpu softvfp
 1262              	spi_crc_get:
 1263              	.LVL113:
 1264              	.LFB90:
 603:Drivers/GD32E23x_standard_peripheral/Source/gd32e23x_spi.c **** 
 604:Drivers/GD32E23x_standard_peripheral/Source/gd32e23x_spi.c **** /*!
 605:Drivers/GD32E23x_standard_peripheral/Source/gd32e23x_spi.c ****     \brief      get SPI CRC send value or receive value
 606:Drivers/GD32E23x_standard_peripheral/Source/gd32e23x_spi.c ****     \param[in]  spi_periph: SPIx(x=0,1)
 607:Drivers/GD32E23x_standard_peripheral/Source/gd32e23x_spi.c ****     \param[in]  crc: SPI crc value
 608:Drivers/GD32E23x_standard_peripheral/Source/gd32e23x_spi.c ****                 only one parameter can be selected which is shown as below:
 609:Drivers/GD32E23x_standard_peripheral/Source/gd32e23x_spi.c ****       \arg        SPI_CRC_TX: get transmit crc value
 610:Drivers/GD32E23x_standard_peripheral/Source/gd32e23x_spi.c ****       \arg        SPI_CRC_RX: get receive crc value
 611:Drivers/GD32E23x_standard_peripheral/Source/gd32e23x_spi.c ****     \param[out] none
 612:Drivers/GD32E23x_standard_peripheral/Source/gd32e23x_spi.c ****     \retval     16-bit CRC value
 613:Drivers/GD32E23x_standard_peripheral/Source/gd32e23x_spi.c **** */
 614:Drivers/GD32E23x_standard_peripheral/Source/gd32e23x_spi.c **** uint16_t spi_crc_get(uint32_t spi_periph, uint8_t crc)
 615:Drivers/GD32E23x_standard_peripheral/Source/gd32e23x_spi.c **** {
 1265              		.loc 1 615 1 is_stmt 1 view -0
 1266              		.cfi_startproc
 1267              		@ args = 0, pretend = 0, frame = 0
 1268              		@ frame_needed = 0, uses_anonymous_args = 0
 1269              		@ link register save eliminated.
 616:Drivers/GD32E23x_standard_peripheral/Source/gd32e23x_spi.c ****     if(SPI_CRC_TX == crc){
 1270              		.loc 1 616 5 view .LVU309
 1271              		.loc 1 616 7 is_stmt 0 view .LVU310
 1272 0000 11B9     		cbnz	r1, .L72
 617:Drivers/GD32E23x_standard_peripheral/Source/gd32e23x_spi.c ****         return ((uint16_t)(SPI_TCRC(spi_periph)));
 1273              		.loc 1 617 9 is_stmt 1 view .LVU311
 1274              		.loc 1 617 28 is_stmt 0 view .LVU312
 1275 0002 8069     		ldr	r0, [r0, #24]
 1276              	.LVL114:
 1277              		.loc 1 617 17 view .LVU313
 1278 0004 80B2     		uxth	r0, r0
 1279              	.L73:
 618:Drivers/GD32E23x_standard_peripheral/Source/gd32e23x_spi.c ****     }else{
 619:Drivers/GD32E23x_standard_peripheral/Source/gd32e23x_spi.c ****         return ((uint16_t)(SPI_RCRC(spi_periph)));
 620:Drivers/GD32E23x_standard_peripheral/Source/gd32e23x_spi.c ****     }
 621:Drivers/GD32E23x_standard_peripheral/Source/gd32e23x_spi.c **** }
 1280              		.loc 1 621 1 view .LVU314
 1281              		@ sp needed
 1282 0006 7047     		bx	lr
 1283              	.LVL115:
 1284              	.L72:
 619:Drivers/GD32E23x_standard_peripheral/Source/gd32e23x_spi.c ****     }
 1285              		.loc 1 619 9 is_stmt 1 view .LVU315
 619:Drivers/GD32E23x_standard_peripheral/Source/gd32e23x_spi.c ****     }
 1286              		.loc 1 619 28 is_stmt 0 view .LVU316
 1287 0008 4069     		ldr	r0, [r0, #20]
 1288              	.LVL116:
 619:Drivers/GD32E23x_standard_peripheral/Source/gd32e23x_spi.c ****     }
 1289              		.loc 1 619 17 view .LVU317
 1290 000a 80B2     		uxth	r0, r0
 1291 000c FBE7     		b	.L73
 1292              		.cfi_endproc
 1293              	.LFE90:
 1295              		.section	.text.spi_ti_mode_enable,"ax",%progbits
 1296              		.align	1
ARM GAS  /var/folders/rv/zq8s_02j1dj4vjvr1mm5zl2r0000gn/T//ccSJYVCc.s 			page 35


 1297              		.global	spi_ti_mode_enable
 1298              		.syntax unified
 1299              		.code	16
 1300              		.thumb_func
 1301              		.fpu softvfp
 1303              	spi_ti_mode_enable:
 1304              	.LVL117:
 1305              	.LFB91:
 622:Drivers/GD32E23x_standard_peripheral/Source/gd32e23x_spi.c **** 
 623:Drivers/GD32E23x_standard_peripheral/Source/gd32e23x_spi.c **** /*!
 624:Drivers/GD32E23x_standard_peripheral/Source/gd32e23x_spi.c ****     \brief      enable SPI TI mode
 625:Drivers/GD32E23x_standard_peripheral/Source/gd32e23x_spi.c ****     \param[in]  spi_periph: SPIx(x=0,1)
 626:Drivers/GD32E23x_standard_peripheral/Source/gd32e23x_spi.c ****     \param[out] none
 627:Drivers/GD32E23x_standard_peripheral/Source/gd32e23x_spi.c ****     \retval     none
 628:Drivers/GD32E23x_standard_peripheral/Source/gd32e23x_spi.c **** */
 629:Drivers/GD32E23x_standard_peripheral/Source/gd32e23x_spi.c **** void spi_ti_mode_enable(uint32_t spi_periph)
 630:Drivers/GD32E23x_standard_peripheral/Source/gd32e23x_spi.c **** {
 1306              		.loc 1 630 1 is_stmt 1 view -0
 1307              		.cfi_startproc
 1308              		@ args = 0, pretend = 0, frame = 0
 1309              		@ frame_needed = 0, uses_anonymous_args = 0
 1310              		@ link register save eliminated.
 631:Drivers/GD32E23x_standard_peripheral/Source/gd32e23x_spi.c ****     SPI_CTL1(spi_periph) |= (uint32_t)SPI_CTL1_TMOD;
 1311              		.loc 1 631 5 view .LVU319
 1312              		.loc 1 631 26 is_stmt 0 view .LVU320
 1313 0000 4368     		ldr	r3, [r0, #4]
 1314 0002 1022     		movs	r2, #16
 1315 0004 1343     		orrs	r3, r2
 1316 0006 4360     		str	r3, [r0, #4]
 632:Drivers/GD32E23x_standard_peripheral/Source/gd32e23x_spi.c **** }
 1317              		.loc 1 632 1 view .LVU321
 1318              		@ sp needed
 1319 0008 7047     		bx	lr
 1320              		.cfi_endproc
 1321              	.LFE91:
 1323              		.section	.text.spi_ti_mode_disable,"ax",%progbits
 1324              		.align	1
 1325              		.global	spi_ti_mode_disable
 1326              		.syntax unified
 1327              		.code	16
 1328              		.thumb_func
 1329              		.fpu softvfp
 1331              	spi_ti_mode_disable:
 1332              	.LVL118:
 1333              	.LFB92:
 633:Drivers/GD32E23x_standard_peripheral/Source/gd32e23x_spi.c **** 
 634:Drivers/GD32E23x_standard_peripheral/Source/gd32e23x_spi.c **** /*!
 635:Drivers/GD32E23x_standard_peripheral/Source/gd32e23x_spi.c ****     \brief      disable SPI TI mode
 636:Drivers/GD32E23x_standard_peripheral/Source/gd32e23x_spi.c ****     \param[in]  spi_periph: SPIx(x=0,1)
 637:Drivers/GD32E23x_standard_peripheral/Source/gd32e23x_spi.c ****     \param[out] none
 638:Drivers/GD32E23x_standard_peripheral/Source/gd32e23x_spi.c ****     \retval     none
 639:Drivers/GD32E23x_standard_peripheral/Source/gd32e23x_spi.c **** */
 640:Drivers/GD32E23x_standard_peripheral/Source/gd32e23x_spi.c **** void spi_ti_mode_disable(uint32_t spi_periph)
 641:Drivers/GD32E23x_standard_peripheral/Source/gd32e23x_spi.c **** {
 1334              		.loc 1 641 1 is_stmt 1 view -0
 1335              		.cfi_startproc
 1336              		@ args = 0, pretend = 0, frame = 0
ARM GAS  /var/folders/rv/zq8s_02j1dj4vjvr1mm5zl2r0000gn/T//ccSJYVCc.s 			page 36


 1337              		@ frame_needed = 0, uses_anonymous_args = 0
 1338              		@ link register save eliminated.
 642:Drivers/GD32E23x_standard_peripheral/Source/gd32e23x_spi.c ****     SPI_CTL1(spi_periph) &= (uint32_t)(~SPI_CTL1_TMOD);
 1339              		.loc 1 642 5 view .LVU323
 1340              		.loc 1 642 26 is_stmt 0 view .LVU324
 1341 0000 4368     		ldr	r3, [r0, #4]
 1342 0002 1022     		movs	r2, #16
 1343 0004 9343     		bics	r3, r2
 1344 0006 4360     		str	r3, [r0, #4]
 643:Drivers/GD32E23x_standard_peripheral/Source/gd32e23x_spi.c **** }
 1345              		.loc 1 643 1 view .LVU325
 1346              		@ sp needed
 1347 0008 7047     		bx	lr
 1348              		.cfi_endproc
 1349              	.LFE92:
 1351              		.section	.text.spi_nssp_mode_enable,"ax",%progbits
 1352              		.align	1
 1353              		.global	spi_nssp_mode_enable
 1354              		.syntax unified
 1355              		.code	16
 1356              		.thumb_func
 1357              		.fpu softvfp
 1359              	spi_nssp_mode_enable:
 1360              	.LVL119:
 1361              	.LFB93:
 644:Drivers/GD32E23x_standard_peripheral/Source/gd32e23x_spi.c **** 
 645:Drivers/GD32E23x_standard_peripheral/Source/gd32e23x_spi.c **** /*!
 646:Drivers/GD32E23x_standard_peripheral/Source/gd32e23x_spi.c ****     \brief      enable SPI NSS pulse mode
 647:Drivers/GD32E23x_standard_peripheral/Source/gd32e23x_spi.c ****     \param[in]  spi_periph: SPIx(x=0,1)
 648:Drivers/GD32E23x_standard_peripheral/Source/gd32e23x_spi.c ****     \param[out] none
 649:Drivers/GD32E23x_standard_peripheral/Source/gd32e23x_spi.c ****     \retval     none
 650:Drivers/GD32E23x_standard_peripheral/Source/gd32e23x_spi.c **** */
 651:Drivers/GD32E23x_standard_peripheral/Source/gd32e23x_spi.c **** void spi_nssp_mode_enable(uint32_t spi_periph)
 652:Drivers/GD32E23x_standard_peripheral/Source/gd32e23x_spi.c **** {
 1362              		.loc 1 652 1 is_stmt 1 view -0
 1363              		.cfi_startproc
 1364              		@ args = 0, pretend = 0, frame = 0
 1365              		@ frame_needed = 0, uses_anonymous_args = 0
 1366              		@ link register save eliminated.
 653:Drivers/GD32E23x_standard_peripheral/Source/gd32e23x_spi.c ****     SPI_CTL1(spi_periph) |= (uint32_t)SPI_CTL1_NSSP;
 1367              		.loc 1 653 5 view .LVU327
 1368              		.loc 1 653 26 is_stmt 0 view .LVU328
 1369 0000 4368     		ldr	r3, [r0, #4]
 1370 0002 0822     		movs	r2, #8
 1371 0004 1343     		orrs	r3, r2
 1372 0006 4360     		str	r3, [r0, #4]
 654:Drivers/GD32E23x_standard_peripheral/Source/gd32e23x_spi.c **** }
 1373              		.loc 1 654 1 view .LVU329
 1374              		@ sp needed
 1375 0008 7047     		bx	lr
 1376              		.cfi_endproc
 1377              	.LFE93:
 1379              		.section	.text.spi_nssp_mode_disable,"ax",%progbits
 1380              		.align	1
 1381              		.global	spi_nssp_mode_disable
 1382              		.syntax unified
 1383              		.code	16
ARM GAS  /var/folders/rv/zq8s_02j1dj4vjvr1mm5zl2r0000gn/T//ccSJYVCc.s 			page 37


 1384              		.thumb_func
 1385              		.fpu softvfp
 1387              	spi_nssp_mode_disable:
 1388              	.LVL120:
 1389              	.LFB94:
 655:Drivers/GD32E23x_standard_peripheral/Source/gd32e23x_spi.c **** 
 656:Drivers/GD32E23x_standard_peripheral/Source/gd32e23x_spi.c **** /*!
 657:Drivers/GD32E23x_standard_peripheral/Source/gd32e23x_spi.c ****     \brief      disable SPI NSS pulse mode
 658:Drivers/GD32E23x_standard_peripheral/Source/gd32e23x_spi.c ****     \param[in]  spi_periph: SPIx(x=0,1)
 659:Drivers/GD32E23x_standard_peripheral/Source/gd32e23x_spi.c ****     \param[out] none
 660:Drivers/GD32E23x_standard_peripheral/Source/gd32e23x_spi.c ****     \retval     none
 661:Drivers/GD32E23x_standard_peripheral/Source/gd32e23x_spi.c **** */
 662:Drivers/GD32E23x_standard_peripheral/Source/gd32e23x_spi.c **** void spi_nssp_mode_disable(uint32_t spi_periph)
 663:Drivers/GD32E23x_standard_peripheral/Source/gd32e23x_spi.c **** {
 1390              		.loc 1 663 1 is_stmt 1 view -0
 1391              		.cfi_startproc
 1392              		@ args = 0, pretend = 0, frame = 0
 1393              		@ frame_needed = 0, uses_anonymous_args = 0
 1394              		@ link register save eliminated.
 664:Drivers/GD32E23x_standard_peripheral/Source/gd32e23x_spi.c ****     SPI_CTL1(spi_periph) &= (uint32_t)(~SPI_CTL1_NSSP);
 1395              		.loc 1 664 5 view .LVU331
 1396              		.loc 1 664 26 is_stmt 0 view .LVU332
 1397 0000 4368     		ldr	r3, [r0, #4]
 1398 0002 0822     		movs	r2, #8
 1399 0004 9343     		bics	r3, r2
 1400 0006 4360     		str	r3, [r0, #4]
 665:Drivers/GD32E23x_standard_peripheral/Source/gd32e23x_spi.c **** }
 1401              		.loc 1 665 1 view .LVU333
 1402              		@ sp needed
 1403 0008 7047     		bx	lr
 1404              		.cfi_endproc
 1405              	.LFE94:
 1407              		.section	.text.qspi_enable,"ax",%progbits
 1408              		.align	1
 1409              		.global	qspi_enable
 1410              		.syntax unified
 1411              		.code	16
 1412              		.thumb_func
 1413              		.fpu softvfp
 1415              	qspi_enable:
 1416              	.LVL121:
 1417              	.LFB95:
 666:Drivers/GD32E23x_standard_peripheral/Source/gd32e23x_spi.c **** 
 667:Drivers/GD32E23x_standard_peripheral/Source/gd32e23x_spi.c **** /*!
 668:Drivers/GD32E23x_standard_peripheral/Source/gd32e23x_spi.c ****     \brief      enable quad wire SPI
 669:Drivers/GD32E23x_standard_peripheral/Source/gd32e23x_spi.c ****     \param[in]  spi_periph: SPIx(x=1)
 670:Drivers/GD32E23x_standard_peripheral/Source/gd32e23x_spi.c ****     \param[out] none
 671:Drivers/GD32E23x_standard_peripheral/Source/gd32e23x_spi.c ****     \retval     none
 672:Drivers/GD32E23x_standard_peripheral/Source/gd32e23x_spi.c **** */
 673:Drivers/GD32E23x_standard_peripheral/Source/gd32e23x_spi.c **** void qspi_enable(uint32_t spi_periph)
 674:Drivers/GD32E23x_standard_peripheral/Source/gd32e23x_spi.c **** {
 1418              		.loc 1 674 1 is_stmt 1 view -0
 1419              		.cfi_startproc
 1420              		@ args = 0, pretend = 0, frame = 0
 1421              		@ frame_needed = 0, uses_anonymous_args = 0
 1422              		@ link register save eliminated.
 675:Drivers/GD32E23x_standard_peripheral/Source/gd32e23x_spi.c ****     SPI_QCTL(spi_periph) |= (uint32_t)SPI_QCTL_QMOD;
ARM GAS  /var/folders/rv/zq8s_02j1dj4vjvr1mm5zl2r0000gn/T//ccSJYVCc.s 			page 38


 1423              		.loc 1 675 5 view .LVU335
 1424              		.loc 1 675 26 is_stmt 0 view .LVU336
 1425 0000 8030     		adds	r0, r0, #128
 1426              	.LVL122:
 1427              		.loc 1 675 26 view .LVU337
 1428 0002 0368     		ldr	r3, [r0]
 1429 0004 0122     		movs	r2, #1
 1430 0006 1343     		orrs	r3, r2
 1431 0008 0360     		str	r3, [r0]
 676:Drivers/GD32E23x_standard_peripheral/Source/gd32e23x_spi.c **** }
 1432              		.loc 1 676 1 view .LVU338
 1433              		@ sp needed
 1434 000a 7047     		bx	lr
 1435              		.cfi_endproc
 1436              	.LFE95:
 1438              		.section	.text.qspi_disable,"ax",%progbits
 1439              		.align	1
 1440              		.global	qspi_disable
 1441              		.syntax unified
 1442              		.code	16
 1443              		.thumb_func
 1444              		.fpu softvfp
 1446              	qspi_disable:
 1447              	.LVL123:
 1448              	.LFB96:
 677:Drivers/GD32E23x_standard_peripheral/Source/gd32e23x_spi.c **** 
 678:Drivers/GD32E23x_standard_peripheral/Source/gd32e23x_spi.c **** /*!
 679:Drivers/GD32E23x_standard_peripheral/Source/gd32e23x_spi.c ****     \brief      disable quad wire SPI 
 680:Drivers/GD32E23x_standard_peripheral/Source/gd32e23x_spi.c ****     \param[in]  spi_periph: SPIx(x=1)
 681:Drivers/GD32E23x_standard_peripheral/Source/gd32e23x_spi.c ****     \param[out] none
 682:Drivers/GD32E23x_standard_peripheral/Source/gd32e23x_spi.c ****     \retval     none
 683:Drivers/GD32E23x_standard_peripheral/Source/gd32e23x_spi.c **** */
 684:Drivers/GD32E23x_standard_peripheral/Source/gd32e23x_spi.c **** void qspi_disable(uint32_t spi_periph)
 685:Drivers/GD32E23x_standard_peripheral/Source/gd32e23x_spi.c **** {
 1449              		.loc 1 685 1 is_stmt 1 view -0
 1450              		.cfi_startproc
 1451              		@ args = 0, pretend = 0, frame = 0
 1452              		@ frame_needed = 0, uses_anonymous_args = 0
 1453              		@ link register save eliminated.
 686:Drivers/GD32E23x_standard_peripheral/Source/gd32e23x_spi.c ****     SPI_QCTL(spi_periph) &= (uint32_t)(~SPI_QCTL_QMOD);
 1454              		.loc 1 686 5 view .LVU340
 1455              		.loc 1 686 26 is_stmt 0 view .LVU341
 1456 0000 8030     		adds	r0, r0, #128
 1457              	.LVL124:
 1458              		.loc 1 686 26 view .LVU342
 1459 0002 0368     		ldr	r3, [r0]
 1460 0004 0122     		movs	r2, #1
 1461 0006 9343     		bics	r3, r2
 1462 0008 0360     		str	r3, [r0]
 687:Drivers/GD32E23x_standard_peripheral/Source/gd32e23x_spi.c **** }
 1463              		.loc 1 687 1 view .LVU343
 1464              		@ sp needed
 1465 000a 7047     		bx	lr
 1466              		.cfi_endproc
 1467              	.LFE96:
 1469              		.section	.text.qspi_write_enable,"ax",%progbits
 1470              		.align	1
ARM GAS  /var/folders/rv/zq8s_02j1dj4vjvr1mm5zl2r0000gn/T//ccSJYVCc.s 			page 39


 1471              		.global	qspi_write_enable
 1472              		.syntax unified
 1473              		.code	16
 1474              		.thumb_func
 1475              		.fpu softvfp
 1477              	qspi_write_enable:
 1478              	.LVL125:
 1479              	.LFB97:
 688:Drivers/GD32E23x_standard_peripheral/Source/gd32e23x_spi.c **** 
 689:Drivers/GD32E23x_standard_peripheral/Source/gd32e23x_spi.c **** /*!
 690:Drivers/GD32E23x_standard_peripheral/Source/gd32e23x_spi.c ****     \brief      enable quad wire SPI write 
 691:Drivers/GD32E23x_standard_peripheral/Source/gd32e23x_spi.c ****     \param[in]  spi_periph: SPIx(x=1)
 692:Drivers/GD32E23x_standard_peripheral/Source/gd32e23x_spi.c ****     \param[out] none
 693:Drivers/GD32E23x_standard_peripheral/Source/gd32e23x_spi.c ****     \retval     none
 694:Drivers/GD32E23x_standard_peripheral/Source/gd32e23x_spi.c **** */
 695:Drivers/GD32E23x_standard_peripheral/Source/gd32e23x_spi.c **** void qspi_write_enable(uint32_t spi_periph)
 696:Drivers/GD32E23x_standard_peripheral/Source/gd32e23x_spi.c **** {
 1480              		.loc 1 696 1 is_stmt 1 view -0
 1481              		.cfi_startproc
 1482              		@ args = 0, pretend = 0, frame = 0
 1483              		@ frame_needed = 0, uses_anonymous_args = 0
 1484              		@ link register save eliminated.
 697:Drivers/GD32E23x_standard_peripheral/Source/gd32e23x_spi.c ****     SPI_QCTL(spi_periph) &= (uint32_t)(~SPI_QCTL_QRD);
 1485              		.loc 1 697 5 view .LVU345
 1486              		.loc 1 697 26 is_stmt 0 view .LVU346
 1487 0000 8030     		adds	r0, r0, #128
 1488              	.LVL126:
 1489              		.loc 1 697 26 view .LVU347
 1490 0002 0368     		ldr	r3, [r0]
 1491 0004 0222     		movs	r2, #2
 1492 0006 9343     		bics	r3, r2
 1493 0008 0360     		str	r3, [r0]
 698:Drivers/GD32E23x_standard_peripheral/Source/gd32e23x_spi.c **** }
 1494              		.loc 1 698 1 view .LVU348
 1495              		@ sp needed
 1496 000a 7047     		bx	lr
 1497              		.cfi_endproc
 1498              	.LFE97:
 1500              		.section	.text.qspi_read_enable,"ax",%progbits
 1501              		.align	1
 1502              		.global	qspi_read_enable
 1503              		.syntax unified
 1504              		.code	16
 1505              		.thumb_func
 1506              		.fpu softvfp
 1508              	qspi_read_enable:
 1509              	.LVL127:
 1510              	.LFB98:
 699:Drivers/GD32E23x_standard_peripheral/Source/gd32e23x_spi.c **** 
 700:Drivers/GD32E23x_standard_peripheral/Source/gd32e23x_spi.c **** /*!
 701:Drivers/GD32E23x_standard_peripheral/Source/gd32e23x_spi.c ****     \brief      enable quad wire SPI read 
 702:Drivers/GD32E23x_standard_peripheral/Source/gd32e23x_spi.c ****     \param[in]  spi_periph: SPIx(x=1)
 703:Drivers/GD32E23x_standard_peripheral/Source/gd32e23x_spi.c ****     \param[out] none
 704:Drivers/GD32E23x_standard_peripheral/Source/gd32e23x_spi.c ****     \retval     none
 705:Drivers/GD32E23x_standard_peripheral/Source/gd32e23x_spi.c **** */
 706:Drivers/GD32E23x_standard_peripheral/Source/gd32e23x_spi.c **** void qspi_read_enable(uint32_t spi_periph)
 707:Drivers/GD32E23x_standard_peripheral/Source/gd32e23x_spi.c **** {
ARM GAS  /var/folders/rv/zq8s_02j1dj4vjvr1mm5zl2r0000gn/T//ccSJYVCc.s 			page 40


 1511              		.loc 1 707 1 is_stmt 1 view -0
 1512              		.cfi_startproc
 1513              		@ args = 0, pretend = 0, frame = 0
 1514              		@ frame_needed = 0, uses_anonymous_args = 0
 1515              		@ link register save eliminated.
 708:Drivers/GD32E23x_standard_peripheral/Source/gd32e23x_spi.c ****     SPI_QCTL(spi_periph) |= (uint32_t)SPI_QCTL_QRD;
 1516              		.loc 1 708 5 view .LVU350
 1517              		.loc 1 708 26 is_stmt 0 view .LVU351
 1518 0000 8030     		adds	r0, r0, #128
 1519              	.LVL128:
 1520              		.loc 1 708 26 view .LVU352
 1521 0002 0368     		ldr	r3, [r0]
 1522 0004 0222     		movs	r2, #2
 1523 0006 1343     		orrs	r3, r2
 1524 0008 0360     		str	r3, [r0]
 709:Drivers/GD32E23x_standard_peripheral/Source/gd32e23x_spi.c **** }
 1525              		.loc 1 709 1 view .LVU353
 1526              		@ sp needed
 1527 000a 7047     		bx	lr
 1528              		.cfi_endproc
 1529              	.LFE98:
 1531              		.section	.text.qspi_io23_output_enable,"ax",%progbits
 1532              		.align	1
 1533              		.global	qspi_io23_output_enable
 1534              		.syntax unified
 1535              		.code	16
 1536              		.thumb_func
 1537              		.fpu softvfp
 1539              	qspi_io23_output_enable:
 1540              	.LVL129:
 1541              	.LFB99:
 710:Drivers/GD32E23x_standard_peripheral/Source/gd32e23x_spi.c **** 
 711:Drivers/GD32E23x_standard_peripheral/Source/gd32e23x_spi.c **** /*!
 712:Drivers/GD32E23x_standard_peripheral/Source/gd32e23x_spi.c ****     \brief      enable SPI_IO2 and SPI_IO3 pin output 
 713:Drivers/GD32E23x_standard_peripheral/Source/gd32e23x_spi.c ****     \param[in]  spi_periph: SPIx(x=1)
 714:Drivers/GD32E23x_standard_peripheral/Source/gd32e23x_spi.c ****     \param[out] none
 715:Drivers/GD32E23x_standard_peripheral/Source/gd32e23x_spi.c ****     \retval     none
 716:Drivers/GD32E23x_standard_peripheral/Source/gd32e23x_spi.c **** */
 717:Drivers/GD32E23x_standard_peripheral/Source/gd32e23x_spi.c **** void qspi_io23_output_enable(uint32_t spi_periph)
 718:Drivers/GD32E23x_standard_peripheral/Source/gd32e23x_spi.c **** {
 1542              		.loc 1 718 1 is_stmt 1 view -0
 1543              		.cfi_startproc
 1544              		@ args = 0, pretend = 0, frame = 0
 1545              		@ frame_needed = 0, uses_anonymous_args = 0
 1546              		@ link register save eliminated.
 719:Drivers/GD32E23x_standard_peripheral/Source/gd32e23x_spi.c ****     SPI_QCTL(spi_periph) |= (uint32_t)SPI_QCTL_IO23_DRV;
 1547              		.loc 1 719 5 view .LVU355
 1548              		.loc 1 719 26 is_stmt 0 view .LVU356
 1549 0000 8030     		adds	r0, r0, #128
 1550              	.LVL130:
 1551              		.loc 1 719 26 view .LVU357
 1552 0002 0368     		ldr	r3, [r0]
 1553 0004 0422     		movs	r2, #4
 1554 0006 1343     		orrs	r3, r2
 1555 0008 0360     		str	r3, [r0]
 720:Drivers/GD32E23x_standard_peripheral/Source/gd32e23x_spi.c **** }
 1556              		.loc 1 720 1 view .LVU358
ARM GAS  /var/folders/rv/zq8s_02j1dj4vjvr1mm5zl2r0000gn/T//ccSJYVCc.s 			page 41


 1557              		@ sp needed
 1558 000a 7047     		bx	lr
 1559              		.cfi_endproc
 1560              	.LFE99:
 1562              		.section	.text.qspi_io23_output_disable,"ax",%progbits
 1563              		.align	1
 1564              		.global	qspi_io23_output_disable
 1565              		.syntax unified
 1566              		.code	16
 1567              		.thumb_func
 1568              		.fpu softvfp
 1570              	qspi_io23_output_disable:
 1571              	.LVL131:
 1572              	.LFB100:
 721:Drivers/GD32E23x_standard_peripheral/Source/gd32e23x_spi.c **** 
 722:Drivers/GD32E23x_standard_peripheral/Source/gd32e23x_spi.c ****  /*!
 723:Drivers/GD32E23x_standard_peripheral/Source/gd32e23x_spi.c ****     \brief      disable SPI_IO2 and SPI_IO3 pin output 
 724:Drivers/GD32E23x_standard_peripheral/Source/gd32e23x_spi.c ****     \param[in]  spi_periph: SPIx(x=1)
 725:Drivers/GD32E23x_standard_peripheral/Source/gd32e23x_spi.c ****     \param[out] none
 726:Drivers/GD32E23x_standard_peripheral/Source/gd32e23x_spi.c ****     \retval     none
 727:Drivers/GD32E23x_standard_peripheral/Source/gd32e23x_spi.c **** */
 728:Drivers/GD32E23x_standard_peripheral/Source/gd32e23x_spi.c ****  void qspi_io23_output_disable(uint32_t spi_periph)
 729:Drivers/GD32E23x_standard_peripheral/Source/gd32e23x_spi.c **** {
 1573              		.loc 1 729 1 is_stmt 1 view -0
 1574              		.cfi_startproc
 1575              		@ args = 0, pretend = 0, frame = 0
 1576              		@ frame_needed = 0, uses_anonymous_args = 0
 1577              		@ link register save eliminated.
 730:Drivers/GD32E23x_standard_peripheral/Source/gd32e23x_spi.c ****     SPI_QCTL(spi_periph) &= (uint32_t)(~SPI_QCTL_IO23_DRV);
 1578              		.loc 1 730 5 view .LVU360
 1579              		.loc 1 730 26 is_stmt 0 view .LVU361
 1580 0000 8030     		adds	r0, r0, #128
 1581              	.LVL132:
 1582              		.loc 1 730 26 view .LVU362
 1583 0002 0368     		ldr	r3, [r0]
 1584 0004 0422     		movs	r2, #4
 1585 0006 9343     		bics	r3, r2
 1586 0008 0360     		str	r3, [r0]
 731:Drivers/GD32E23x_standard_peripheral/Source/gd32e23x_spi.c **** }
 1587              		.loc 1 731 1 view .LVU363
 1588              		@ sp needed
 1589 000a 7047     		bx	lr
 1590              		.cfi_endproc
 1591              	.LFE100:
 1593              		.section	.text.spi_i2s_interrupt_enable,"ax",%progbits
 1594              		.align	1
 1595              		.global	spi_i2s_interrupt_enable
 1596              		.syntax unified
 1597              		.code	16
 1598              		.thumb_func
 1599              		.fpu softvfp
 1601              	spi_i2s_interrupt_enable:
 1602              	.LVL133:
 1603              	.LFB101:
 732:Drivers/GD32E23x_standard_peripheral/Source/gd32e23x_spi.c **** 
 733:Drivers/GD32E23x_standard_peripheral/Source/gd32e23x_spi.c **** /*!
 734:Drivers/GD32E23x_standard_peripheral/Source/gd32e23x_spi.c ****     \brief      enable SPI and I2S interrupt 
ARM GAS  /var/folders/rv/zq8s_02j1dj4vjvr1mm5zl2r0000gn/T//ccSJYVCc.s 			page 42


 735:Drivers/GD32E23x_standard_peripheral/Source/gd32e23x_spi.c ****     \param[in]  spi_periph: SPIx(x=0,1)
 736:Drivers/GD32E23x_standard_peripheral/Source/gd32e23x_spi.c ****     \param[in]  interrupt: SPI/I2S interrupt
 737:Drivers/GD32E23x_standard_peripheral/Source/gd32e23x_spi.c ****                 only one parameter can be selected which is shown as below:
 738:Drivers/GD32E23x_standard_peripheral/Source/gd32e23x_spi.c ****       \arg        SPI_I2S_INT_TBE: transmit buffer empty interrupt
 739:Drivers/GD32E23x_standard_peripheral/Source/gd32e23x_spi.c ****       \arg        SPI_I2S_INT_RBNE: receive buffer not empty interrupt
 740:Drivers/GD32E23x_standard_peripheral/Source/gd32e23x_spi.c ****       \arg        SPI_I2S_INT_ERR: CRC error,configuration error,reception overrun error,
 741:Drivers/GD32E23x_standard_peripheral/Source/gd32e23x_spi.c ****                                    transmission underrun error and format error interrupt
 742:Drivers/GD32E23x_standard_peripheral/Source/gd32e23x_spi.c ****     \param[out] none
 743:Drivers/GD32E23x_standard_peripheral/Source/gd32e23x_spi.c ****     \retval     none
 744:Drivers/GD32E23x_standard_peripheral/Source/gd32e23x_spi.c **** */
 745:Drivers/GD32E23x_standard_peripheral/Source/gd32e23x_spi.c **** void spi_i2s_interrupt_enable(uint32_t spi_periph, uint8_t interrupt)
 746:Drivers/GD32E23x_standard_peripheral/Source/gd32e23x_spi.c **** {
 1604              		.loc 1 746 1 is_stmt 1 view -0
 1605              		.cfi_startproc
 1606              		@ args = 0, pretend = 0, frame = 0
 1607              		@ frame_needed = 0, uses_anonymous_args = 0
 1608              		@ link register save eliminated.
 747:Drivers/GD32E23x_standard_peripheral/Source/gd32e23x_spi.c ****     switch(interrupt){
 1609              		.loc 1 747 5 view .LVU365
 1610 0000 0129     		cmp	r1, #1
 1611 0002 08D0     		beq	.L85
 1612 0004 0229     		cmp	r1, #2
 1613 0006 0BD0     		beq	.L86
 1614 0008 01B1     		cbz	r1, .L88
 1615              	.L84:
 748:Drivers/GD32E23x_standard_peripheral/Source/gd32e23x_spi.c ****     /* SPI/I2S transmit buffer empty interrupt */
 749:Drivers/GD32E23x_standard_peripheral/Source/gd32e23x_spi.c ****     case SPI_I2S_INT_TBE:
 750:Drivers/GD32E23x_standard_peripheral/Source/gd32e23x_spi.c ****         SPI_CTL1(spi_periph) |= (uint32_t)SPI_CTL1_TBEIE;
 751:Drivers/GD32E23x_standard_peripheral/Source/gd32e23x_spi.c ****         break;
 752:Drivers/GD32E23x_standard_peripheral/Source/gd32e23x_spi.c ****     /* SPI/I2S receive buffer not empty interrupt */
 753:Drivers/GD32E23x_standard_peripheral/Source/gd32e23x_spi.c ****     case SPI_I2S_INT_RBNE:
 754:Drivers/GD32E23x_standard_peripheral/Source/gd32e23x_spi.c ****         SPI_CTL1(spi_periph) |= (uint32_t)SPI_CTL1_RBNEIE;
 755:Drivers/GD32E23x_standard_peripheral/Source/gd32e23x_spi.c ****         break;
 756:Drivers/GD32E23x_standard_peripheral/Source/gd32e23x_spi.c ****     /* SPI/I2S error */
 757:Drivers/GD32E23x_standard_peripheral/Source/gd32e23x_spi.c ****     case SPI_I2S_INT_ERR:
 758:Drivers/GD32E23x_standard_peripheral/Source/gd32e23x_spi.c ****         SPI_CTL1(spi_periph) |= (uint32_t)SPI_CTL1_ERRIE;
 759:Drivers/GD32E23x_standard_peripheral/Source/gd32e23x_spi.c ****         break;
 760:Drivers/GD32E23x_standard_peripheral/Source/gd32e23x_spi.c ****     default:
 761:Drivers/GD32E23x_standard_peripheral/Source/gd32e23x_spi.c ****         break;
 762:Drivers/GD32E23x_standard_peripheral/Source/gd32e23x_spi.c ****     }
 763:Drivers/GD32E23x_standard_peripheral/Source/gd32e23x_spi.c **** }
 1616              		.loc 1 763 1 is_stmt 0 view .LVU366
 1617              		@ sp needed
 1618 000a 7047     		bx	lr
 1619              	.L88:
 750:Drivers/GD32E23x_standard_peripheral/Source/gd32e23x_spi.c ****         break;
 1620              		.loc 1 750 9 is_stmt 1 view .LVU367
 750:Drivers/GD32E23x_standard_peripheral/Source/gd32e23x_spi.c ****         break;
 1621              		.loc 1 750 30 is_stmt 0 view .LVU368
 1622 000c 4368     		ldr	r3, [r0, #4]
 1623 000e 8022     		movs	r2, #128
 1624 0010 1343     		orrs	r3, r2
 1625 0012 4360     		str	r3, [r0, #4]
 751:Drivers/GD32E23x_standard_peripheral/Source/gd32e23x_spi.c ****     /* SPI/I2S receive buffer not empty interrupt */
 1626              		.loc 1 751 9 is_stmt 1 view .LVU369
 1627 0014 F9E7     		b	.L84
 1628              	.L85:
ARM GAS  /var/folders/rv/zq8s_02j1dj4vjvr1mm5zl2r0000gn/T//ccSJYVCc.s 			page 43


 754:Drivers/GD32E23x_standard_peripheral/Source/gd32e23x_spi.c ****         break;
 1629              		.loc 1 754 9 view .LVU370
 754:Drivers/GD32E23x_standard_peripheral/Source/gd32e23x_spi.c ****         break;
 1630              		.loc 1 754 30 is_stmt 0 view .LVU371
 1631 0016 4368     		ldr	r3, [r0, #4]
 1632 0018 4022     		movs	r2, #64
 1633 001a 1343     		orrs	r3, r2
 1634 001c 4360     		str	r3, [r0, #4]
 755:Drivers/GD32E23x_standard_peripheral/Source/gd32e23x_spi.c ****     /* SPI/I2S error */
 1635              		.loc 1 755 9 is_stmt 1 view .LVU372
 1636 001e F4E7     		b	.L84
 1637              	.L86:
 758:Drivers/GD32E23x_standard_peripheral/Source/gd32e23x_spi.c ****         break;
 1638              		.loc 1 758 9 view .LVU373
 758:Drivers/GD32E23x_standard_peripheral/Source/gd32e23x_spi.c ****         break;
 1639              		.loc 1 758 30 is_stmt 0 view .LVU374
 1640 0020 4368     		ldr	r3, [r0, #4]
 1641 0022 2022     		movs	r2, #32
 1642 0024 1343     		orrs	r3, r2
 1643 0026 4360     		str	r3, [r0, #4]
 759:Drivers/GD32E23x_standard_peripheral/Source/gd32e23x_spi.c ****     default:
 1644              		.loc 1 759 9 is_stmt 1 view .LVU375
 1645              		.loc 1 763 1 is_stmt 0 view .LVU376
 1646 0028 EFE7     		b	.L84
 1647              		.cfi_endproc
 1648              	.LFE101:
 1650              		.section	.text.spi_i2s_interrupt_disable,"ax",%progbits
 1651              		.align	1
 1652              		.global	spi_i2s_interrupt_disable
 1653              		.syntax unified
 1654              		.code	16
 1655              		.thumb_func
 1656              		.fpu softvfp
 1658              	spi_i2s_interrupt_disable:
 1659              	.LVL134:
 1660              	.LFB102:
 764:Drivers/GD32E23x_standard_peripheral/Source/gd32e23x_spi.c **** 
 765:Drivers/GD32E23x_standard_peripheral/Source/gd32e23x_spi.c **** /*!
 766:Drivers/GD32E23x_standard_peripheral/Source/gd32e23x_spi.c ****     \brief      disable SPI and I2S interrupt 
 767:Drivers/GD32E23x_standard_peripheral/Source/gd32e23x_spi.c ****     \param[in]  spi_periph: SPIx(x=0,1)
 768:Drivers/GD32E23x_standard_peripheral/Source/gd32e23x_spi.c ****     \param[in]  interrupt: SPI/I2S interrupt
 769:Drivers/GD32E23x_standard_peripheral/Source/gd32e23x_spi.c ****                 only one parameter can be selected which is shown as below:
 770:Drivers/GD32E23x_standard_peripheral/Source/gd32e23x_spi.c ****       \arg        SPI_I2S_INT_TBE: transmit buffer empty interrupt
 771:Drivers/GD32E23x_standard_peripheral/Source/gd32e23x_spi.c ****       \arg        SPI_I2S_INT_RBNE: receive buffer not empty interrupt
 772:Drivers/GD32E23x_standard_peripheral/Source/gd32e23x_spi.c ****       \arg        SPI_I2S_INT_ERR: CRC error,configuration error,reception overrun error,
 773:Drivers/GD32E23x_standard_peripheral/Source/gd32e23x_spi.c ****                                    transmission underrun error and format error interrupt
 774:Drivers/GD32E23x_standard_peripheral/Source/gd32e23x_spi.c ****     \param[out] none
 775:Drivers/GD32E23x_standard_peripheral/Source/gd32e23x_spi.c ****     \retval     none
 776:Drivers/GD32E23x_standard_peripheral/Source/gd32e23x_spi.c **** */
 777:Drivers/GD32E23x_standard_peripheral/Source/gd32e23x_spi.c **** void spi_i2s_interrupt_disable(uint32_t spi_periph, uint8_t interrupt)
 778:Drivers/GD32E23x_standard_peripheral/Source/gd32e23x_spi.c **** {
 1661              		.loc 1 778 1 is_stmt 1 view -0
 1662              		.cfi_startproc
 1663              		@ args = 0, pretend = 0, frame = 0
 1664              		@ frame_needed = 0, uses_anonymous_args = 0
 1665              		@ link register save eliminated.
 779:Drivers/GD32E23x_standard_peripheral/Source/gd32e23x_spi.c ****     switch(interrupt){
ARM GAS  /var/folders/rv/zq8s_02j1dj4vjvr1mm5zl2r0000gn/T//ccSJYVCc.s 			page 44


 1666              		.loc 1 779 5 view .LVU378
 1667 0000 0129     		cmp	r1, #1
 1668 0002 08D0     		beq	.L90
 1669 0004 0229     		cmp	r1, #2
 1670 0006 0BD0     		beq	.L91
 1671 0008 01B1     		cbz	r1, .L93
 1672              	.L89:
 780:Drivers/GD32E23x_standard_peripheral/Source/gd32e23x_spi.c ****     /* SPI/I2S transmit buffer empty interrupt */
 781:Drivers/GD32E23x_standard_peripheral/Source/gd32e23x_spi.c ****     case SPI_I2S_INT_TBE:
 782:Drivers/GD32E23x_standard_peripheral/Source/gd32e23x_spi.c ****         SPI_CTL1(spi_periph) &= (uint32_t)(~SPI_CTL1_TBEIE);
 783:Drivers/GD32E23x_standard_peripheral/Source/gd32e23x_spi.c ****         break;
 784:Drivers/GD32E23x_standard_peripheral/Source/gd32e23x_spi.c ****     /* SPI/I2S receive buffer not empty interrupt */
 785:Drivers/GD32E23x_standard_peripheral/Source/gd32e23x_spi.c ****     case SPI_I2S_INT_RBNE:
 786:Drivers/GD32E23x_standard_peripheral/Source/gd32e23x_spi.c ****         SPI_CTL1(spi_periph) &= (uint32_t)(~SPI_CTL1_RBNEIE);
 787:Drivers/GD32E23x_standard_peripheral/Source/gd32e23x_spi.c ****         break;
 788:Drivers/GD32E23x_standard_peripheral/Source/gd32e23x_spi.c ****     /* SPI/I2S error */
 789:Drivers/GD32E23x_standard_peripheral/Source/gd32e23x_spi.c ****     case SPI_I2S_INT_ERR:
 790:Drivers/GD32E23x_standard_peripheral/Source/gd32e23x_spi.c ****         SPI_CTL1(spi_periph) &= (uint32_t)(~SPI_CTL1_ERRIE);
 791:Drivers/GD32E23x_standard_peripheral/Source/gd32e23x_spi.c ****         break;
 792:Drivers/GD32E23x_standard_peripheral/Source/gd32e23x_spi.c ****     default :
 793:Drivers/GD32E23x_standard_peripheral/Source/gd32e23x_spi.c ****         break;
 794:Drivers/GD32E23x_standard_peripheral/Source/gd32e23x_spi.c ****     }
 795:Drivers/GD32E23x_standard_peripheral/Source/gd32e23x_spi.c **** }
 1673              		.loc 1 795 1 is_stmt 0 view .LVU379
 1674              		@ sp needed
 1675 000a 7047     		bx	lr
 1676              	.L93:
 782:Drivers/GD32E23x_standard_peripheral/Source/gd32e23x_spi.c ****         break;
 1677              		.loc 1 782 9 is_stmt 1 view .LVU380
 782:Drivers/GD32E23x_standard_peripheral/Source/gd32e23x_spi.c ****         break;
 1678              		.loc 1 782 30 is_stmt 0 view .LVU381
 1679 000c 4368     		ldr	r3, [r0, #4]
 1680 000e 8022     		movs	r2, #128
 1681 0010 9343     		bics	r3, r2
 1682 0012 4360     		str	r3, [r0, #4]
 783:Drivers/GD32E23x_standard_peripheral/Source/gd32e23x_spi.c ****     /* SPI/I2S receive buffer not empty interrupt */
 1683              		.loc 1 783 9 is_stmt 1 view .LVU382
 1684 0014 F9E7     		b	.L89
 1685              	.L90:
 786:Drivers/GD32E23x_standard_peripheral/Source/gd32e23x_spi.c ****         break;
 1686              		.loc 1 786 9 view .LVU383
 786:Drivers/GD32E23x_standard_peripheral/Source/gd32e23x_spi.c ****         break;
 1687              		.loc 1 786 30 is_stmt 0 view .LVU384
 1688 0016 4368     		ldr	r3, [r0, #4]
 1689 0018 4022     		movs	r2, #64
 1690 001a 9343     		bics	r3, r2
 1691 001c 4360     		str	r3, [r0, #4]
 787:Drivers/GD32E23x_standard_peripheral/Source/gd32e23x_spi.c ****     /* SPI/I2S error */
 1692              		.loc 1 787 9 is_stmt 1 view .LVU385
 1693 001e F4E7     		b	.L89
 1694              	.L91:
 790:Drivers/GD32E23x_standard_peripheral/Source/gd32e23x_spi.c ****         break;
 1695              		.loc 1 790 9 view .LVU386
 790:Drivers/GD32E23x_standard_peripheral/Source/gd32e23x_spi.c ****         break;
 1696              		.loc 1 790 30 is_stmt 0 view .LVU387
 1697 0020 4368     		ldr	r3, [r0, #4]
 1698 0022 2022     		movs	r2, #32
ARM GAS  /var/folders/rv/zq8s_02j1dj4vjvr1mm5zl2r0000gn/T//ccSJYVCc.s 			page 45


 1699 0024 9343     		bics	r3, r2
 1700 0026 4360     		str	r3, [r0, #4]
 791:Drivers/GD32E23x_standard_peripheral/Source/gd32e23x_spi.c ****     default :
 1701              		.loc 1 791 9 is_stmt 1 view .LVU388
 1702              		.loc 1 795 1 is_stmt 0 view .LVU389
 1703 0028 EFE7     		b	.L89
 1704              		.cfi_endproc
 1705              	.LFE102:
 1707              		.section	.text.spi_i2s_interrupt_flag_get,"ax",%progbits
 1708              		.align	1
 1709              		.global	spi_i2s_interrupt_flag_get
 1710              		.syntax unified
 1711              		.code	16
 1712              		.thumb_func
 1713              		.fpu softvfp
 1715              	spi_i2s_interrupt_flag_get:
 1716              	.LVL135:
 1717              	.LFB103:
 796:Drivers/GD32E23x_standard_peripheral/Source/gd32e23x_spi.c **** 
 797:Drivers/GD32E23x_standard_peripheral/Source/gd32e23x_spi.c **** /*!
 798:Drivers/GD32E23x_standard_peripheral/Source/gd32e23x_spi.c ****     \brief      get SPI and I2S interrupt flag status
 799:Drivers/GD32E23x_standard_peripheral/Source/gd32e23x_spi.c ****     \param[in]  spi_periph: SPIx(x=0,1)
 800:Drivers/GD32E23x_standard_peripheral/Source/gd32e23x_spi.c ****     \param[in]  interrupt: SPI/I2S interrupt flag status
 801:Drivers/GD32E23x_standard_peripheral/Source/gd32e23x_spi.c ****                 only one parameter can be selected which is shown as below:
 802:Drivers/GD32E23x_standard_peripheral/Source/gd32e23x_spi.c ****       \arg        SPI_I2S_INT_FLAG_TBE: transmit buffer empty interrupt flag
 803:Drivers/GD32E23x_standard_peripheral/Source/gd32e23x_spi.c ****       \arg        SPI_I2S_INT_FLAG_RBNE: receive buffer not empty interrupt flag
 804:Drivers/GD32E23x_standard_peripheral/Source/gd32e23x_spi.c ****       \arg        SPI_I2S_INT_FLAG_RXORERR: overrun interrupt flag
 805:Drivers/GD32E23x_standard_peripheral/Source/gd32e23x_spi.c ****       \arg        SPI_INT_FLAG_CONFERR: config error interrupt flag
 806:Drivers/GD32E23x_standard_peripheral/Source/gd32e23x_spi.c ****       \arg        SPI_INT_FLAG_CRCERR: CRC error interrupt flag
 807:Drivers/GD32E23x_standard_peripheral/Source/gd32e23x_spi.c ****       \arg        I2S_INT_FLAG_TXURERR: underrun error interrupt flag
 808:Drivers/GD32E23x_standard_peripheral/Source/gd32e23x_spi.c ****       \arg        SPI_I2S_INT_FLAG_FERR: format error interrupt flag
 809:Drivers/GD32E23x_standard_peripheral/Source/gd32e23x_spi.c ****     \param[out] none
 810:Drivers/GD32E23x_standard_peripheral/Source/gd32e23x_spi.c ****     \retval     FlagStatus: SET or RESET
 811:Drivers/GD32E23x_standard_peripheral/Source/gd32e23x_spi.c **** */
 812:Drivers/GD32E23x_standard_peripheral/Source/gd32e23x_spi.c **** FlagStatus spi_i2s_interrupt_flag_get(uint32_t spi_periph, uint8_t interrupt)
 813:Drivers/GD32E23x_standard_peripheral/Source/gd32e23x_spi.c **** {
 1718              		.loc 1 813 1 is_stmt 1 view -0
 1719              		.cfi_startproc
 1720              		@ args = 0, pretend = 0, frame = 0
 1721              		@ frame_needed = 0, uses_anonymous_args = 0
 1722              		@ link register save eliminated.
 814:Drivers/GD32E23x_standard_peripheral/Source/gd32e23x_spi.c ****     uint32_t reg1 = SPI_STAT(spi_periph);
 1723              		.loc 1 814 5 view .LVU391
 1724              		.loc 1 814 14 is_stmt 0 view .LVU392
 1725 0000 8368     		ldr	r3, [r0, #8]
 1726              	.LVL136:
 815:Drivers/GD32E23x_standard_peripheral/Source/gd32e23x_spi.c ****     uint32_t reg2 = SPI_CTL1(spi_periph);
 1727              		.loc 1 815 5 is_stmt 1 view .LVU393
 1728              		.loc 1 815 14 is_stmt 0 view .LVU394
 1729 0002 4268     		ldr	r2, [r0, #4]
 1730              	.LVL137:
 816:Drivers/GD32E23x_standard_peripheral/Source/gd32e23x_spi.c **** 
 817:Drivers/GD32E23x_standard_peripheral/Source/gd32e23x_spi.c ****     switch(interrupt){
 1731              		.loc 1 817 5 is_stmt 1 view .LVU395
 1732 0004 0629     		cmp	r1, #6
 1733 0006 07D8     		bhi	.L95
 1734 0008 8900     		lsls	r1, r1, #2
ARM GAS  /var/folders/rv/zq8s_02j1dj4vjvr1mm5zl2r0000gn/T//ccSJYVCc.s 			page 46


 1735              	.LVL138:
 1736              		.loc 1 817 5 is_stmt 0 view .LVU396
 1737 000a 1648     		ldr	r0, .L107
 1738              	.LVL139:
 1739              		.loc 1 817 5 view .LVU397
 1740 000c 4158     		ldr	r1, [r0, r1]
 1741 000e 8F46     		mov	pc, r1
 1742              		.section	.rodata.spi_i2s_interrupt_flag_get,"a",%progbits
 1743              		.align	2
 1744              	.L97:
 1745 0000 10000000 		.word	.L103
 1746 0004 20000000 		.word	.L102
 1747 0008 2A000000 		.word	.L101
 1748 000c 34000000 		.word	.L100
 1749 0010 3C000000 		.word	.L99
 1750 0014 46000000 		.word	.L98
 1751 0018 50000000 		.word	.L96
 1752              		.section	.text.spi_i2s_interrupt_flag_get
 1753              	.L103:
 818:Drivers/GD32E23x_standard_peripheral/Source/gd32e23x_spi.c ****     /* SPI/I2S transmit buffer empty interrupt */
 819:Drivers/GD32E23x_standard_peripheral/Source/gd32e23x_spi.c ****     case SPI_I2S_INT_FLAG_TBE:
 820:Drivers/GD32E23x_standard_peripheral/Source/gd32e23x_spi.c ****         reg1 = reg1 & SPI_STAT_TBE;
 1754              		.loc 1 820 9 is_stmt 1 view .LVU398
 1755              		.loc 1 820 14 is_stmt 0 view .LVU399
 1756 0010 0221     		movs	r1, #2
 1757 0012 0B40     		ands	r3, r1
 1758              	.LVL140:
 821:Drivers/GD32E23x_standard_peripheral/Source/gd32e23x_spi.c ****         reg2 = reg2 & SPI_CTL1_TBEIE;
 1759              		.loc 1 821 9 is_stmt 1 view .LVU400
 1760              		.loc 1 821 14 is_stmt 0 view .LVU401
 1761 0014 7E31     		adds	r1, r1, #126
 1762 0016 0A40     		ands	r2, r1
 1763              	.LVL141:
 822:Drivers/GD32E23x_standard_peripheral/Source/gd32e23x_spi.c ****         break;
 1764              		.loc 1 822 9 is_stmt 1 view .LVU402
 1765              	.L95:
 823:Drivers/GD32E23x_standard_peripheral/Source/gd32e23x_spi.c ****     /* SPI/I2S receive buffer not empty interrupt */
 824:Drivers/GD32E23x_standard_peripheral/Source/gd32e23x_spi.c ****     case SPI_I2S_INT_FLAG_RBNE:
 825:Drivers/GD32E23x_standard_peripheral/Source/gd32e23x_spi.c ****         reg1 = reg1 & SPI_STAT_RBNE;
 826:Drivers/GD32E23x_standard_peripheral/Source/gd32e23x_spi.c ****         reg2 = reg2 & SPI_CTL1_RBNEIE;
 827:Drivers/GD32E23x_standard_peripheral/Source/gd32e23x_spi.c ****         break;
 828:Drivers/GD32E23x_standard_peripheral/Source/gd32e23x_spi.c ****     /* SPI/I2S overrun interrupt */
 829:Drivers/GD32E23x_standard_peripheral/Source/gd32e23x_spi.c ****     case SPI_I2S_INT_FLAG_RXORERR:
 830:Drivers/GD32E23x_standard_peripheral/Source/gd32e23x_spi.c ****         reg1 = reg1 & SPI_STAT_RXORERR;
 831:Drivers/GD32E23x_standard_peripheral/Source/gd32e23x_spi.c ****         reg2 = reg2 & SPI_CTL1_ERRIE;
 832:Drivers/GD32E23x_standard_peripheral/Source/gd32e23x_spi.c ****         break;
 833:Drivers/GD32E23x_standard_peripheral/Source/gd32e23x_spi.c ****     /* SPI config error interrupt */
 834:Drivers/GD32E23x_standard_peripheral/Source/gd32e23x_spi.c ****     case SPI_INT_FLAG_CONFERR:
 835:Drivers/GD32E23x_standard_peripheral/Source/gd32e23x_spi.c ****         reg1 = reg1 & SPI_STAT_CONFERR;
 836:Drivers/GD32E23x_standard_peripheral/Source/gd32e23x_spi.c ****         reg2 = reg2 & SPI_CTL1_ERRIE;
 837:Drivers/GD32E23x_standard_peripheral/Source/gd32e23x_spi.c ****         break;
 838:Drivers/GD32E23x_standard_peripheral/Source/gd32e23x_spi.c ****     /* SPI CRC error interrupt */
 839:Drivers/GD32E23x_standard_peripheral/Source/gd32e23x_spi.c ****     case SPI_INT_FLAG_CRCERR:
 840:Drivers/GD32E23x_standard_peripheral/Source/gd32e23x_spi.c ****         reg1 = reg1 & SPI_STAT_CRCERR;
 841:Drivers/GD32E23x_standard_peripheral/Source/gd32e23x_spi.c ****         reg2 = reg2 & SPI_CTL1_ERRIE;
 842:Drivers/GD32E23x_standard_peripheral/Source/gd32e23x_spi.c ****         break;
 843:Drivers/GD32E23x_standard_peripheral/Source/gd32e23x_spi.c ****     /* I2S underrun error interrupt */
ARM GAS  /var/folders/rv/zq8s_02j1dj4vjvr1mm5zl2r0000gn/T//ccSJYVCc.s 			page 47


 844:Drivers/GD32E23x_standard_peripheral/Source/gd32e23x_spi.c ****     case I2S_INT_FLAG_TXURERR:
 845:Drivers/GD32E23x_standard_peripheral/Source/gd32e23x_spi.c ****         reg1 = reg1 & SPI_STAT_TXURERR;
 846:Drivers/GD32E23x_standard_peripheral/Source/gd32e23x_spi.c ****         reg2 = reg2 & SPI_CTL1_ERRIE;
 847:Drivers/GD32E23x_standard_peripheral/Source/gd32e23x_spi.c ****         break;
 848:Drivers/GD32E23x_standard_peripheral/Source/gd32e23x_spi.c ****     /* SPI/I2S format error interrupt */
 849:Drivers/GD32E23x_standard_peripheral/Source/gd32e23x_spi.c ****     case SPI_I2S_INT_FLAG_FERR:
 850:Drivers/GD32E23x_standard_peripheral/Source/gd32e23x_spi.c ****         reg1 = reg1 & SPI_STAT_FERR;
 851:Drivers/GD32E23x_standard_peripheral/Source/gd32e23x_spi.c ****         reg2 = reg2 & SPI_CTL1_ERRIE;
 852:Drivers/GD32E23x_standard_peripheral/Source/gd32e23x_spi.c ****         break;
 853:Drivers/GD32E23x_standard_peripheral/Source/gd32e23x_spi.c ****     default :
 854:Drivers/GD32E23x_standard_peripheral/Source/gd32e23x_spi.c ****         break;
 855:Drivers/GD32E23x_standard_peripheral/Source/gd32e23x_spi.c ****     }
 856:Drivers/GD32E23x_standard_peripheral/Source/gd32e23x_spi.c ****     /*get SPI/I2S interrupt flag status */
 857:Drivers/GD32E23x_standard_peripheral/Source/gd32e23x_spi.c ****     if((0U != reg1) && (0U != reg2)){
 1766              		.loc 1 857 5 view .LVU403
 1767              		.loc 1 857 7 is_stmt 0 view .LVU404
 1768 0018 03B3     		cbz	r3, .L105
 1769              		.loc 1 857 21 discriminator 1 view .LVU405
 1770 001a 0ABB     		cbnz	r2, .L106
 858:Drivers/GD32E23x_standard_peripheral/Source/gd32e23x_spi.c ****         return SET;
 859:Drivers/GD32E23x_standard_peripheral/Source/gd32e23x_spi.c ****     }else{
 860:Drivers/GD32E23x_standard_peripheral/Source/gd32e23x_spi.c ****         return RESET;
 1771              		.loc 1 860 16 view .LVU406
 1772 001c 0020     		movs	r0, #0
 1773 001e 1EE0     		b	.L104
 1774              	.L102:
 825:Drivers/GD32E23x_standard_peripheral/Source/gd32e23x_spi.c ****         reg2 = reg2 & SPI_CTL1_RBNEIE;
 1775              		.loc 1 825 9 is_stmt 1 view .LVU407
 825:Drivers/GD32E23x_standard_peripheral/Source/gd32e23x_spi.c ****         reg2 = reg2 & SPI_CTL1_RBNEIE;
 1776              		.loc 1 825 14 is_stmt 0 view .LVU408
 1777 0020 0121     		movs	r1, #1
 1778 0022 0B40     		ands	r3, r1
 1779              	.LVL142:
 826:Drivers/GD32E23x_standard_peripheral/Source/gd32e23x_spi.c ****         break;
 1780              		.loc 1 826 9 is_stmt 1 view .LVU409
 826:Drivers/GD32E23x_standard_peripheral/Source/gd32e23x_spi.c ****         break;
 1781              		.loc 1 826 14 is_stmt 0 view .LVU410
 1782 0024 3F31     		adds	r1, r1, #63
 1783 0026 0A40     		ands	r2, r1
 1784              	.LVL143:
 827:Drivers/GD32E23x_standard_peripheral/Source/gd32e23x_spi.c ****     /* SPI/I2S overrun interrupt */
 1785              		.loc 1 827 9 is_stmt 1 view .LVU411
 1786 0028 F6E7     		b	.L95
 1787              	.L101:
 830:Drivers/GD32E23x_standard_peripheral/Source/gd32e23x_spi.c ****         reg2 = reg2 & SPI_CTL1_ERRIE;
 1788              		.loc 1 830 9 view .LVU412
 830:Drivers/GD32E23x_standard_peripheral/Source/gd32e23x_spi.c ****         reg2 = reg2 & SPI_CTL1_ERRIE;
 1789              		.loc 1 830 14 is_stmt 0 view .LVU413
 1790 002a 4021     		movs	r1, #64
 1791 002c 0B40     		ands	r3, r1
 1792              	.LVL144:
 831:Drivers/GD32E23x_standard_peripheral/Source/gd32e23x_spi.c ****         break;
 1793              		.loc 1 831 9 is_stmt 1 view .LVU414
 831:Drivers/GD32E23x_standard_peripheral/Source/gd32e23x_spi.c ****         break;
 1794              		.loc 1 831 14 is_stmt 0 view .LVU415
 1795 002e 2039     		subs	r1, r1, #32
 1796 0030 0A40     		ands	r2, r1
ARM GAS  /var/folders/rv/zq8s_02j1dj4vjvr1mm5zl2r0000gn/T//ccSJYVCc.s 			page 48


 1797              	.LVL145:
 832:Drivers/GD32E23x_standard_peripheral/Source/gd32e23x_spi.c ****     /* SPI config error interrupt */
 1798              		.loc 1 832 9 is_stmt 1 view .LVU416
 1799 0032 F1E7     		b	.L95
 1800              	.L100:
 835:Drivers/GD32E23x_standard_peripheral/Source/gd32e23x_spi.c ****         reg2 = reg2 & SPI_CTL1_ERRIE;
 1801              		.loc 1 835 9 view .LVU417
 835:Drivers/GD32E23x_standard_peripheral/Source/gd32e23x_spi.c ****         reg2 = reg2 & SPI_CTL1_ERRIE;
 1802              		.loc 1 835 14 is_stmt 0 view .LVU418
 1803 0034 2021     		movs	r1, #32
 1804 0036 0B40     		ands	r3, r1
 1805              	.LVL146:
 836:Drivers/GD32E23x_standard_peripheral/Source/gd32e23x_spi.c ****         break;
 1806              		.loc 1 836 9 is_stmt 1 view .LVU419
 836:Drivers/GD32E23x_standard_peripheral/Source/gd32e23x_spi.c ****         break;
 1807              		.loc 1 836 14 is_stmt 0 view .LVU420
 1808 0038 0A40     		ands	r2, r1
 1809              	.LVL147:
 837:Drivers/GD32E23x_standard_peripheral/Source/gd32e23x_spi.c ****     /* SPI CRC error interrupt */
 1810              		.loc 1 837 9 is_stmt 1 view .LVU421
 1811 003a EDE7     		b	.L95
 1812              	.L99:
 840:Drivers/GD32E23x_standard_peripheral/Source/gd32e23x_spi.c ****         reg2 = reg2 & SPI_CTL1_ERRIE;
 1813              		.loc 1 840 9 view .LVU422
 840:Drivers/GD32E23x_standard_peripheral/Source/gd32e23x_spi.c ****         reg2 = reg2 & SPI_CTL1_ERRIE;
 1814              		.loc 1 840 14 is_stmt 0 view .LVU423
 1815 003c 1021     		movs	r1, #16
 1816 003e 0B40     		ands	r3, r1
 1817              	.LVL148:
 841:Drivers/GD32E23x_standard_peripheral/Source/gd32e23x_spi.c ****         break;
 1818              		.loc 1 841 9 is_stmt 1 view .LVU424
 841:Drivers/GD32E23x_standard_peripheral/Source/gd32e23x_spi.c ****         break;
 1819              		.loc 1 841 14 is_stmt 0 view .LVU425
 1820 0040 1031     		adds	r1, r1, #16
 1821 0042 0A40     		ands	r2, r1
 1822              	.LVL149:
 842:Drivers/GD32E23x_standard_peripheral/Source/gd32e23x_spi.c ****     /* I2S underrun error interrupt */
 1823              		.loc 1 842 9 is_stmt 1 view .LVU426
 1824 0044 E8E7     		b	.L95
 1825              	.L98:
 845:Drivers/GD32E23x_standard_peripheral/Source/gd32e23x_spi.c ****         reg2 = reg2 & SPI_CTL1_ERRIE;
 1826              		.loc 1 845 9 view .LVU427
 845:Drivers/GD32E23x_standard_peripheral/Source/gd32e23x_spi.c ****         reg2 = reg2 & SPI_CTL1_ERRIE;
 1827              		.loc 1 845 14 is_stmt 0 view .LVU428
 1828 0046 0821     		movs	r1, #8
 1829 0048 0B40     		ands	r3, r1
 1830              	.LVL150:
 846:Drivers/GD32E23x_standard_peripheral/Source/gd32e23x_spi.c ****         break;
 1831              		.loc 1 846 9 is_stmt 1 view .LVU429
 846:Drivers/GD32E23x_standard_peripheral/Source/gd32e23x_spi.c ****         break;
 1832              		.loc 1 846 14 is_stmt 0 view .LVU430
 1833 004a 1831     		adds	r1, r1, #24
 1834 004c 0A40     		ands	r2, r1
 1835              	.LVL151:
 847:Drivers/GD32E23x_standard_peripheral/Source/gd32e23x_spi.c ****     /* SPI/I2S format error interrupt */
 1836              		.loc 1 847 9 is_stmt 1 view .LVU431
 1837 004e E3E7     		b	.L95
ARM GAS  /var/folders/rv/zq8s_02j1dj4vjvr1mm5zl2r0000gn/T//ccSJYVCc.s 			page 49


 1838              	.L96:
 850:Drivers/GD32E23x_standard_peripheral/Source/gd32e23x_spi.c ****         reg2 = reg2 & SPI_CTL1_ERRIE;
 1839              		.loc 1 850 9 view .LVU432
 850:Drivers/GD32E23x_standard_peripheral/Source/gd32e23x_spi.c ****         reg2 = reg2 & SPI_CTL1_ERRIE;
 1840              		.loc 1 850 14 is_stmt 0 view .LVU433
 1841 0050 40F20011 		movw	r1, #256
 1842 0054 0B40     		ands	r3, r1
 1843              	.LVL152:
 851:Drivers/GD32E23x_standard_peripheral/Source/gd32e23x_spi.c ****         break;
 1844              		.loc 1 851 9 is_stmt 1 view .LVU434
 851:Drivers/GD32E23x_standard_peripheral/Source/gd32e23x_spi.c ****         break;
 1845              		.loc 1 851 14 is_stmt 0 view .LVU435
 1846 0056 E039     		subs	r1, r1, #224
 1847 0058 0A40     		ands	r2, r1
 1848              	.LVL153:
 852:Drivers/GD32E23x_standard_peripheral/Source/gd32e23x_spi.c ****     default :
 1849              		.loc 1 852 9 is_stmt 1 view .LVU436
 1850 005a DDE7     		b	.L95
 1851              	.L105:
 1852              		.loc 1 860 16 is_stmt 0 view .LVU437
 1853 005c 0020     		movs	r0, #0
 1854              	.L104:
 861:Drivers/GD32E23x_standard_peripheral/Source/gd32e23x_spi.c ****     }
 862:Drivers/GD32E23x_standard_peripheral/Source/gd32e23x_spi.c **** }
 1855              		.loc 1 862 1 view .LVU438
 1856              		@ sp needed
 1857 005e 7047     		bx	lr
 1858              	.L106:
 858:Drivers/GD32E23x_standard_peripheral/Source/gd32e23x_spi.c ****     }else{
 1859              		.loc 1 858 16 view .LVU439
 1860 0060 0120     		movs	r0, #1
 1861 0062 FCE7     		b	.L104
 1862              	.L108:
 1863              		.align	2
 1864              	.L107:
 1865 0064 00000000 		.word	.L97
 1866              		.cfi_endproc
 1867              	.LFE103:
 1869              		.section	.text.spi_i2s_flag_get,"ax",%progbits
 1870              		.align	1
 1871              		.global	spi_i2s_flag_get
 1872              		.syntax unified
 1873              		.code	16
 1874              		.thumb_func
 1875              		.fpu softvfp
 1877              	spi_i2s_flag_get:
 1878              	.LVL154:
 1879              	.LFB104:
 863:Drivers/GD32E23x_standard_peripheral/Source/gd32e23x_spi.c **** 
 864:Drivers/GD32E23x_standard_peripheral/Source/gd32e23x_spi.c **** /*!
 865:Drivers/GD32E23x_standard_peripheral/Source/gd32e23x_spi.c ****     \brief      get SPI and I2S flag status
 866:Drivers/GD32E23x_standard_peripheral/Source/gd32e23x_spi.c ****     \param[in]  spi_periph: SPIx(x=0,1)
 867:Drivers/GD32E23x_standard_peripheral/Source/gd32e23x_spi.c ****     \param[in]  flag: SPI/I2S flag status
 868:Drivers/GD32E23x_standard_peripheral/Source/gd32e23x_spi.c ****                 only one parameter can be selected which are shown as below:
 869:Drivers/GD32E23x_standard_peripheral/Source/gd32e23x_spi.c ****       \arg        SPI_FLAG_TBE: transmit buffer empty flag
 870:Drivers/GD32E23x_standard_peripheral/Source/gd32e23x_spi.c ****       \arg        SPI_FLAG_RBNE: receive buffer not empty flag
 871:Drivers/GD32E23x_standard_peripheral/Source/gd32e23x_spi.c ****       \arg        SPI_FLAG_TRANS: transmit on-going flag
ARM GAS  /var/folders/rv/zq8s_02j1dj4vjvr1mm5zl2r0000gn/T//ccSJYVCc.s 			page 50


 872:Drivers/GD32E23x_standard_peripheral/Source/gd32e23x_spi.c ****       \arg        SPI_FLAG_RXORERR: receive overrun error flag
 873:Drivers/GD32E23x_standard_peripheral/Source/gd32e23x_spi.c ****       \arg        SPI_FLAG_CONFERR: mode config error flag
 874:Drivers/GD32E23x_standard_peripheral/Source/gd32e23x_spi.c ****       \arg        SPI_FLAG_CRCERR: CRC error flag
 875:Drivers/GD32E23x_standard_peripheral/Source/gd32e23x_spi.c ****       \arg        SPI_FLAG_FERR: SPI format error interrupt flag
 876:Drivers/GD32E23x_standard_peripheral/Source/gd32e23x_spi.c ****       \arg        I2S_FLAG_TBE: transmit buffer empty flag
 877:Drivers/GD32E23x_standard_peripheral/Source/gd32e23x_spi.c ****       \arg        I2S_FLAG_RBNE: receive buffer not empty flag
 878:Drivers/GD32E23x_standard_peripheral/Source/gd32e23x_spi.c ****       \arg        I2S_FLAG_TRANS: transmit on-going flag
 879:Drivers/GD32E23x_standard_peripheral/Source/gd32e23x_spi.c ****       \arg        I2S_FLAG_RXORERR: overrun error flag
 880:Drivers/GD32E23x_standard_peripheral/Source/gd32e23x_spi.c ****       \arg        I2S_FLAG_TXURERR: underrun error flag
 881:Drivers/GD32E23x_standard_peripheral/Source/gd32e23x_spi.c ****       \arg        I2S_FLAG_CH: channel side flag
 882:Drivers/GD32E23x_standard_peripheral/Source/gd32e23x_spi.c ****       \arg        I2S_FLAG_FERR: I2S format error interrupt flag
 883:Drivers/GD32E23x_standard_peripheral/Source/gd32e23x_spi.c ****                 only for SPI1:
 884:Drivers/GD32E23x_standard_peripheral/Source/gd32e23x_spi.c ****       \arg        SPI_TXLVL_EMPTY: SPI TXFIFO is empty
 885:Drivers/GD32E23x_standard_peripheral/Source/gd32e23x_spi.c ****       \arg        SPI_TXLVL_QUARTER_FULL: SPI TXFIFO is a quarter of full
 886:Drivers/GD32E23x_standard_peripheral/Source/gd32e23x_spi.c ****       \arg        SPI_TXLVL_HAlF_FULL: SPI TXFIFO is a half of full
 887:Drivers/GD32E23x_standard_peripheral/Source/gd32e23x_spi.c ****       \arg        SPI_TXLVL_FULL: SPI TXFIFO is full
 888:Drivers/GD32E23x_standard_peripheral/Source/gd32e23x_spi.c ****       \arg        SPI_RXLVL_EMPTY: SPI RXFIFO is empty
 889:Drivers/GD32E23x_standard_peripheral/Source/gd32e23x_spi.c ****       \arg        SPI_RXLVL_QUARTER_FULL: SPI RXFIFO is a quarter of full
 890:Drivers/GD32E23x_standard_peripheral/Source/gd32e23x_spi.c ****       \arg        SPI_RXLVL_HAlF_FULL: SPI RXFIFO is a half of full
 891:Drivers/GD32E23x_standard_peripheral/Source/gd32e23x_spi.c ****       \arg        SPI_RXLVL_FULL: SPI RXFIFO is full
 892:Drivers/GD32E23x_standard_peripheral/Source/gd32e23x_spi.c ****     \param[out] none
 893:Drivers/GD32E23x_standard_peripheral/Source/gd32e23x_spi.c ****     \retval     FlagStatus: SET or RESET
 894:Drivers/GD32E23x_standard_peripheral/Source/gd32e23x_spi.c **** */
 895:Drivers/GD32E23x_standard_peripheral/Source/gd32e23x_spi.c **** FlagStatus spi_i2s_flag_get(uint32_t spi_periph, uint32_t flag)
 896:Drivers/GD32E23x_standard_peripheral/Source/gd32e23x_spi.c **** {
 1880              		.loc 1 896 1 is_stmt 1 view -0
 1881              		.cfi_startproc
 1882              		@ args = 0, pretend = 0, frame = 0
 1883              		@ frame_needed = 0, uses_anonymous_args = 0
 1884              		@ link register save eliminated.
 897:Drivers/GD32E23x_standard_peripheral/Source/gd32e23x_spi.c ****     if(RESET != (SPI_STAT(spi_periph) & flag)){
 1885              		.loc 1 897 5 view .LVU441
 1886              		.loc 1 897 18 is_stmt 0 view .LVU442
 1887 0000 8368     		ldr	r3, [r0, #8]
 1888              		.loc 1 897 7 view .LVU443
 1889 0002 1942     		tst	r1, r3
 1890 0004 0DD1     		bne	.L111
 898:Drivers/GD32E23x_standard_peripheral/Source/gd32e23x_spi.c ****         return SET;
 899:Drivers/GD32E23x_standard_peripheral/Source/gd32e23x_spi.c ****     }else{
 900:Drivers/GD32E23x_standard_peripheral/Source/gd32e23x_spi.c ****         if(SPI1 == spi_periph){
 1891              		.loc 1 900 9 is_stmt 1 view .LVU444
 1892              		.loc 1 900 11 is_stmt 0 view .LVU445
 1893 0006 43F60003 		movw	r3, #14336
 1894 000a C4F20003 		movt	r3, 16384
 1895 000e 9842     		cmp	r0, r3
 1896 0010 09D1     		bne	.L112
 901:Drivers/GD32E23x_standard_peripheral/Source/gd32e23x_spi.c ****             /* check TXFIFO is empty or not */
 902:Drivers/GD32E23x_standard_peripheral/Source/gd32e23x_spi.c ****             if(SPI_TXLVL_EMPTY == flag){
 1897              		.loc 1 902 13 is_stmt 1 view .LVU446
 1898              		.loc 1 902 15 is_stmt 0 view .LVU447
 1899 0012 51B9     		cbnz	r1, .L113
 903:Drivers/GD32E23x_standard_peripheral/Source/gd32e23x_spi.c ****                 if(RESET != (SPI_STAT(spi_periph) & SPI_TXLVL_EMPTY_MASK)){
 1900              		.loc 1 903 17 is_stmt 1 view .LVU448
 1901              		.loc 1 903 30 is_stmt 0 view .LVU449
 1902 0014 8368     		ldr	r3, [r0, #8]
 1903              		.loc 1 903 51 view .LVU450
 1904 0016 41F60002 		movw	r2, #6144
ARM GAS  /var/folders/rv/zq8s_02j1dj4vjvr1mm5zl2r0000gn/T//ccSJYVCc.s 			page 51


 1905              		.loc 1 903 19 view .LVU451
 1906 001a 1A42     		tst	r2, r3
 1907 001c 07D0     		beq	.L114
 904:Drivers/GD32E23x_standard_peripheral/Source/gd32e23x_spi.c ****                     return RESET;
 1908              		.loc 1 904 28 view .LVU452
 1909 001e 0020     		movs	r0, #0
 1910              	.LVL155:
 1911              		.loc 1 904 28 view .LVU453
 1912 0020 00E0     		b	.L110
 1913              	.LVL156:
 1914              	.L111:
 898:Drivers/GD32E23x_standard_peripheral/Source/gd32e23x_spi.c ****     }else{
 1915              		.loc 1 898 16 view .LVU454
 1916 0022 0120     		movs	r0, #1
 1917              	.LVL157:
 1918              	.L110:
 905:Drivers/GD32E23x_standard_peripheral/Source/gd32e23x_spi.c ****                 }else{
 906:Drivers/GD32E23x_standard_peripheral/Source/gd32e23x_spi.c ****                     return SET;
 907:Drivers/GD32E23x_standard_peripheral/Source/gd32e23x_spi.c ****                 }
 908:Drivers/GD32E23x_standard_peripheral/Source/gd32e23x_spi.c ****             }
 909:Drivers/GD32E23x_standard_peripheral/Source/gd32e23x_spi.c ****             /* check RXFIFO is empty or not */
 910:Drivers/GD32E23x_standard_peripheral/Source/gd32e23x_spi.c ****             if(SPI_RXLVL_EMPTY == flag){
 911:Drivers/GD32E23x_standard_peripheral/Source/gd32e23x_spi.c ****                 if(RESET != (SPI_STAT(spi_periph) & SPI_RXLVL_EMPTY_MASK)){
 912:Drivers/GD32E23x_standard_peripheral/Source/gd32e23x_spi.c ****                     return RESET;
 913:Drivers/GD32E23x_standard_peripheral/Source/gd32e23x_spi.c ****                 }else{
 914:Drivers/GD32E23x_standard_peripheral/Source/gd32e23x_spi.c ****                     return SET;
 915:Drivers/GD32E23x_standard_peripheral/Source/gd32e23x_spi.c ****                 }
 916:Drivers/GD32E23x_standard_peripheral/Source/gd32e23x_spi.c ****             }
 917:Drivers/GD32E23x_standard_peripheral/Source/gd32e23x_spi.c ****         }
 918:Drivers/GD32E23x_standard_peripheral/Source/gd32e23x_spi.c ****         return RESET;
 919:Drivers/GD32E23x_standard_peripheral/Source/gd32e23x_spi.c ****     }
 920:Drivers/GD32E23x_standard_peripheral/Source/gd32e23x_spi.c **** }
 1919              		.loc 1 920 1 view .LVU455
 1920              		@ sp needed
 1921 0024 7047     		bx	lr
 1922              	.LVL158:
 1923              	.L112:
 918:Drivers/GD32E23x_standard_peripheral/Source/gd32e23x_spi.c ****     }
 1924              		.loc 1 918 16 view .LVU456
 1925 0026 0020     		movs	r0, #0
 1926              	.LVL159:
 918:Drivers/GD32E23x_standard_peripheral/Source/gd32e23x_spi.c ****     }
 1927              		.loc 1 918 16 view .LVU457
 1928 0028 FCE7     		b	.L110
 1929              	.LVL160:
 1930              	.L113:
 918:Drivers/GD32E23x_standard_peripheral/Source/gd32e23x_spi.c ****     }
 1931              		.loc 1 918 16 view .LVU458
 1932 002a 0020     		movs	r0, #0
 1933              	.LVL161:
 918:Drivers/GD32E23x_standard_peripheral/Source/gd32e23x_spi.c ****     }
 1934              		.loc 1 918 16 view .LVU459
 1935 002c FAE7     		b	.L110
 1936              	.LVL162:
 1937              	.L114:
 906:Drivers/GD32E23x_standard_peripheral/Source/gd32e23x_spi.c ****                 }
 1938              		.loc 1 906 28 view .LVU460
ARM GAS  /var/folders/rv/zq8s_02j1dj4vjvr1mm5zl2r0000gn/T//ccSJYVCc.s 			page 52


 1939 002e 0120     		movs	r0, #1
 1940              	.LVL163:
 906:Drivers/GD32E23x_standard_peripheral/Source/gd32e23x_spi.c ****                 }
 1941              		.loc 1 906 28 view .LVU461
 1942 0030 F8E7     		b	.L110
 1943              		.cfi_endproc
 1944              	.LFE104:
 1946              		.section	.text.spi_crc_error_clear,"ax",%progbits
 1947              		.align	1
 1948              		.global	spi_crc_error_clear
 1949              		.syntax unified
 1950              		.code	16
 1951              		.thumb_func
 1952              		.fpu softvfp
 1954              	spi_crc_error_clear:
 1955              	.LVL164:
 1956              	.LFB105:
 921:Drivers/GD32E23x_standard_peripheral/Source/gd32e23x_spi.c **** 
 922:Drivers/GD32E23x_standard_peripheral/Source/gd32e23x_spi.c **** /*!
 923:Drivers/GD32E23x_standard_peripheral/Source/gd32e23x_spi.c ****     \brief      clear SPI CRC error flag status
 924:Drivers/GD32E23x_standard_peripheral/Source/gd32e23x_spi.c ****     \param[in]  spi_periph: SPIx(x=0,1)
 925:Drivers/GD32E23x_standard_peripheral/Source/gd32e23x_spi.c ****     \param[out] none
 926:Drivers/GD32E23x_standard_peripheral/Source/gd32e23x_spi.c ****     \retval     none
 927:Drivers/GD32E23x_standard_peripheral/Source/gd32e23x_spi.c **** */
 928:Drivers/GD32E23x_standard_peripheral/Source/gd32e23x_spi.c **** void spi_crc_error_clear(uint32_t spi_periph)
 929:Drivers/GD32E23x_standard_peripheral/Source/gd32e23x_spi.c **** {
 1957              		.loc 1 929 1 is_stmt 1 view -0
 1958              		.cfi_startproc
 1959              		@ args = 0, pretend = 0, frame = 0
 1960              		@ frame_needed = 0, uses_anonymous_args = 0
 1961              		@ link register save eliminated.
 930:Drivers/GD32E23x_standard_peripheral/Source/gd32e23x_spi.c ****     SPI_STAT(spi_periph) &= (uint32_t)(~SPI_FLAG_CRCERR);
 1962              		.loc 1 930 5 view .LVU463
 1963              		.loc 1 930 26 is_stmt 0 view .LVU464
 1964 0000 8368     		ldr	r3, [r0, #8]
 1965 0002 1022     		movs	r2, #16
 1966 0004 9343     		bics	r3, r2
 1967 0006 8360     		str	r3, [r0, #8]
 931:Drivers/GD32E23x_standard_peripheral/Source/gd32e23x_spi.c **** }
 1968              		.loc 1 931 1 view .LVU465
 1969              		@ sp needed
 1970 0008 7047     		bx	lr
 1971              		.cfi_endproc
 1972              	.LFE105:
 1974              		.section	.text.spi_fifo_access_size_config,"ax",%progbits
 1975              		.align	1
 1976              		.global	spi_fifo_access_size_config
 1977              		.syntax unified
 1978              		.code	16
 1979              		.thumb_func
 1980              		.fpu softvfp
 1982              	spi_fifo_access_size_config:
 1983              	.LVL165:
 1984              	.LFB106:
 932:Drivers/GD32E23x_standard_peripheral/Source/gd32e23x_spi.c **** 
 933:Drivers/GD32E23x_standard_peripheral/Source/gd32e23x_spi.c **** /*!
 934:Drivers/GD32E23x_standard_peripheral/Source/gd32e23x_spi.c ****     \brief      configure SPI1 access size to FIFO(8bit or 16bit)
ARM GAS  /var/folders/rv/zq8s_02j1dj4vjvr1mm5zl2r0000gn/T//ccSJYVCc.s 			page 53


 935:Drivers/GD32E23x_standard_peripheral/Source/gd32e23x_spi.c ****     \param[in]  spi_periph: SPIx(x=1)
 936:Drivers/GD32E23x_standard_peripheral/Source/gd32e23x_spi.c ****     \param[in]  fifo_access_size: byte access enable
 937:Drivers/GD32E23x_standard_peripheral/Source/gd32e23x_spi.c ****                 only one parameter can be selected which is shown as below:
 938:Drivers/GD32E23x_standard_peripheral/Source/gd32e23x_spi.c ****       \arg        SPI_HALFWORD_ACCESS: half-word access to FIFO
 939:Drivers/GD32E23x_standard_peripheral/Source/gd32e23x_spi.c ****       \arg        SPI_BYTE_ACCESS: byte access to FIFO
 940:Drivers/GD32E23x_standard_peripheral/Source/gd32e23x_spi.c ****     \param[out] none
 941:Drivers/GD32E23x_standard_peripheral/Source/gd32e23x_spi.c ****     \retval     none
 942:Drivers/GD32E23x_standard_peripheral/Source/gd32e23x_spi.c **** */
 943:Drivers/GD32E23x_standard_peripheral/Source/gd32e23x_spi.c **** void spi_fifo_access_size_config(uint32_t spi_periph, uint16_t fifo_access_size)
 944:Drivers/GD32E23x_standard_peripheral/Source/gd32e23x_spi.c **** {
 1985              		.loc 1 944 1 is_stmt 1 view -0
 1986              		.cfi_startproc
 1987              		@ args = 0, pretend = 0, frame = 0
 1988              		@ frame_needed = 0, uses_anonymous_args = 0
 1989              		@ link register save eliminated.
 945:Drivers/GD32E23x_standard_peripheral/Source/gd32e23x_spi.c ****     /* clear SPI_CTL1_BYTEN bit */
 946:Drivers/GD32E23x_standard_peripheral/Source/gd32e23x_spi.c ****     SPI_CTL1(spi_periph) &= (uint32_t)(~SPI_CTL1_BYTEN);
 1990              		.loc 1 946 5 view .LVU467
 1991              		.loc 1 946 26 is_stmt 0 view .LVU468
 1992 0000 4268     		ldr	r2, [r0, #4]
 1993 0002 034B     		ldr	r3, .L117
 1994 0004 1A40     		ands	r2, r3
 1995 0006 4260     		str	r2, [r0, #4]
 947:Drivers/GD32E23x_standard_peripheral/Source/gd32e23x_spi.c ****     /* confige SPI_CTL1_BYTEN bit */
 948:Drivers/GD32E23x_standard_peripheral/Source/gd32e23x_spi.c ****     SPI_CTL1(spi_periph) |= (uint32_t)fifo_access_size;
 1996              		.loc 1 948 5 is_stmt 1 view .LVU469
 1997              		.loc 1 948 26 is_stmt 0 view .LVU470
 1998 0008 4368     		ldr	r3, [r0, #4]
 1999 000a 0B43     		orrs	r3, r1
 2000 000c 4360     		str	r3, [r0, #4]
 949:Drivers/GD32E23x_standard_peripheral/Source/gd32e23x_spi.c **** }
 2001              		.loc 1 949 1 view .LVU471
 2002              		@ sp needed
 2003 000e 7047     		bx	lr
 2004              	.L118:
 2005              		.align	2
 2006              	.L117:
 2007 0010 FFEFFFFF 		.word	-4097
 2008              		.cfi_endproc
 2009              	.LFE106:
 2011              		.section	.text.spi_transmit_odd_config,"ax",%progbits
 2012              		.align	1
 2013              		.global	spi_transmit_odd_config
 2014              		.syntax unified
 2015              		.code	16
 2016              		.thumb_func
 2017              		.fpu softvfp
 2019              	spi_transmit_odd_config:
 2020              	.LVL166:
 2021              	.LFB107:
 950:Drivers/GD32E23x_standard_peripheral/Source/gd32e23x_spi.c **** 
 951:Drivers/GD32E23x_standard_peripheral/Source/gd32e23x_spi.c **** /*!
 952:Drivers/GD32E23x_standard_peripheral/Source/gd32e23x_spi.c ****     \brief      configure SPI1 total number of data to transmit by DMA is odd or not
 953:Drivers/GD32E23x_standard_peripheral/Source/gd32e23x_spi.c ****     \param[in]  spi_periph: SPIx(x=1)
 954:Drivers/GD32E23x_standard_peripheral/Source/gd32e23x_spi.c ****     \param[in]  odd: odd bytes in TX DMA channel
 955:Drivers/GD32E23x_standard_peripheral/Source/gd32e23x_spi.c ****                 only one parameter can be selected which is shown as below:
 956:Drivers/GD32E23x_standard_peripheral/Source/gd32e23x_spi.c ****       \arg        SPI_TXDMA_EVEN: number of byte in TX DMA channel is even
ARM GAS  /var/folders/rv/zq8s_02j1dj4vjvr1mm5zl2r0000gn/T//ccSJYVCc.s 			page 54


 957:Drivers/GD32E23x_standard_peripheral/Source/gd32e23x_spi.c ****       \arg        SPI_TXDMA_ODD: number of byte in TX DMA channel is odd
 958:Drivers/GD32E23x_standard_peripheral/Source/gd32e23x_spi.c ****     \param[out] none
 959:Drivers/GD32E23x_standard_peripheral/Source/gd32e23x_spi.c ****     \retval     none
 960:Drivers/GD32E23x_standard_peripheral/Source/gd32e23x_spi.c **** */
 961:Drivers/GD32E23x_standard_peripheral/Source/gd32e23x_spi.c **** void spi_transmit_odd_config(uint32_t spi_periph, uint16_t odd)
 962:Drivers/GD32E23x_standard_peripheral/Source/gd32e23x_spi.c **** {
 2022              		.loc 1 962 1 is_stmt 1 view -0
 2023              		.cfi_startproc
 2024              		@ args = 0, pretend = 0, frame = 0
 2025              		@ frame_needed = 0, uses_anonymous_args = 0
 2026              		@ link register save eliminated.
 963:Drivers/GD32E23x_standard_peripheral/Source/gd32e23x_spi.c ****     /* clear SPI_CTL1_TXDMA_ODD bit */
 964:Drivers/GD32E23x_standard_peripheral/Source/gd32e23x_spi.c ****     SPI_CTL1(spi_periph) &= (uint32_t)(~SPI_CTL1_TXDMA_ODD);
 2027              		.loc 1 964 5 view .LVU473
 2028              		.loc 1 964 26 is_stmt 0 view .LVU474
 2029 0000 4268     		ldr	r2, [r0, #4]
 2030 0002 034B     		ldr	r3, .L120
 2031 0004 1A40     		ands	r2, r3
 2032 0006 4260     		str	r2, [r0, #4]
 965:Drivers/GD32E23x_standard_peripheral/Source/gd32e23x_spi.c ****     /* confige SPI_CTL1_TXDMA_ODD bit */
 966:Drivers/GD32E23x_standard_peripheral/Source/gd32e23x_spi.c ****     SPI_CTL1(spi_periph) |= (uint32_t)odd;
 2033              		.loc 1 966 5 is_stmt 1 view .LVU475
 2034              		.loc 1 966 26 is_stmt 0 view .LVU476
 2035 0008 4368     		ldr	r3, [r0, #4]
 2036 000a 0B43     		orrs	r3, r1
 2037 000c 4360     		str	r3, [r0, #4]
 967:Drivers/GD32E23x_standard_peripheral/Source/gd32e23x_spi.c **** }
 2038              		.loc 1 967 1 view .LVU477
 2039              		@ sp needed
 2040 000e 7047     		bx	lr
 2041              	.L121:
 2042              		.align	2
 2043              	.L120:
 2044 0010 FFBFFFFF 		.word	-16385
 2045              		.cfi_endproc
 2046              	.LFE107:
 2048              		.section	.text.spi_receive_odd_config,"ax",%progbits
 2049              		.align	1
 2050              		.global	spi_receive_odd_config
 2051              		.syntax unified
 2052              		.code	16
 2053              		.thumb_func
 2054              		.fpu softvfp
 2056              	spi_receive_odd_config:
 2057              	.LVL167:
 2058              	.LFB108:
 968:Drivers/GD32E23x_standard_peripheral/Source/gd32e23x_spi.c **** 
 969:Drivers/GD32E23x_standard_peripheral/Source/gd32e23x_spi.c **** /*!
 970:Drivers/GD32E23x_standard_peripheral/Source/gd32e23x_spi.c ****     \brief      configure SPI1 total number of data to receive by DMA is odd or not
 971:Drivers/GD32E23x_standard_peripheral/Source/gd32e23x_spi.c ****     \param[in]  spi_periph: SPIx(x=1)
 972:Drivers/GD32E23x_standard_peripheral/Source/gd32e23x_spi.c ****     \param[in]  odd: odd bytes in RX DMA channel
 973:Drivers/GD32E23x_standard_peripheral/Source/gd32e23x_spi.c ****                 only one parameter can be selected which is shown as below:
 974:Drivers/GD32E23x_standard_peripheral/Source/gd32e23x_spi.c ****       \arg        SPI_RXDMA_EVEN: number of bytes in RX DMA channel is even
 975:Drivers/GD32E23x_standard_peripheral/Source/gd32e23x_spi.c ****       \arg        SPI_RXDMA_ODD: number of bytes in RX DMA channel is odd
 976:Drivers/GD32E23x_standard_peripheral/Source/gd32e23x_spi.c ****     \param[out] none
 977:Drivers/GD32E23x_standard_peripheral/Source/gd32e23x_spi.c ****     \retval     none
 978:Drivers/GD32E23x_standard_peripheral/Source/gd32e23x_spi.c **** */
ARM GAS  /var/folders/rv/zq8s_02j1dj4vjvr1mm5zl2r0000gn/T//ccSJYVCc.s 			page 55


 979:Drivers/GD32E23x_standard_peripheral/Source/gd32e23x_spi.c **** void spi_receive_odd_config(uint32_t spi_periph, uint16_t odd)
 980:Drivers/GD32E23x_standard_peripheral/Source/gd32e23x_spi.c **** {
 2059              		.loc 1 980 1 is_stmt 1 view -0
 2060              		.cfi_startproc
 2061              		@ args = 0, pretend = 0, frame = 0
 2062              		@ frame_needed = 0, uses_anonymous_args = 0
 2063              		@ link register save eliminated.
 981:Drivers/GD32E23x_standard_peripheral/Source/gd32e23x_spi.c ****     /* clear SPI_CTL1_RXDMA_ODD bit */
 982:Drivers/GD32E23x_standard_peripheral/Source/gd32e23x_spi.c ****     SPI_CTL1(spi_periph) &= (uint32_t)(~SPI_CTL1_RXDMA_ODD);
 2064              		.loc 1 982 5 view .LVU479
 2065              		.loc 1 982 26 is_stmt 0 view .LVU480
 2066 0000 4268     		ldr	r2, [r0, #4]
 2067 0002 034B     		ldr	r3, .L123
 2068 0004 1A40     		ands	r2, r3
 2069 0006 4260     		str	r2, [r0, #4]
 983:Drivers/GD32E23x_standard_peripheral/Source/gd32e23x_spi.c ****     /* confige SPI_CTL1_RXDMA_ODD bit */
 984:Drivers/GD32E23x_standard_peripheral/Source/gd32e23x_spi.c ****     SPI_CTL1(spi_periph) |= (uint32_t)odd;
 2070              		.loc 1 984 5 is_stmt 1 view .LVU481
 2071              		.loc 1 984 26 is_stmt 0 view .LVU482
 2072 0008 4368     		ldr	r3, [r0, #4]
 2073 000a 0B43     		orrs	r3, r1
 2074 000c 4360     		str	r3, [r0, #4]
 985:Drivers/GD32E23x_standard_peripheral/Source/gd32e23x_spi.c **** }
 2075              		.loc 1 985 1 view .LVU483
 2076              		@ sp needed
 2077 000e 7047     		bx	lr
 2078              	.L124:
 2079              		.align	2
 2080              	.L123:
 2081 0010 FFDFFFFF 		.word	-8193
 2082              		.cfi_endproc
 2083              	.LFE108:
 2085              		.section	.text.spi_crc_length_set,"ax",%progbits
 2086              		.align	1
 2087              		.global	spi_crc_length_set
 2088              		.syntax unified
 2089              		.code	16
 2090              		.thumb_func
 2091              		.fpu softvfp
 2093              	spi_crc_length_set:
 2094              	.LVL168:
 2095              	.LFB109:
 986:Drivers/GD32E23x_standard_peripheral/Source/gd32e23x_spi.c **** 
 987:Drivers/GD32E23x_standard_peripheral/Source/gd32e23x_spi.c **** /*!
 988:Drivers/GD32E23x_standard_peripheral/Source/gd32e23x_spi.c ****     \brief      set CRC length
 989:Drivers/GD32E23x_standard_peripheral/Source/gd32e23x_spi.c ****     \param[in]  spi_periph: SPIx(x=1)
 990:Drivers/GD32E23x_standard_peripheral/Source/gd32e23x_spi.c ****     \param[in]  crc_length: CRC length
 991:Drivers/GD32E23x_standard_peripheral/Source/gd32e23x_spi.c ****                 only one parameter can be selected which is shown as below:
 992:Drivers/GD32E23x_standard_peripheral/Source/gd32e23x_spi.c ****       \arg        SPI_CRC_8BIT: CRC length is 8 bits
 993:Drivers/GD32E23x_standard_peripheral/Source/gd32e23x_spi.c ****       \arg        SPI_CRC_16BIT: CRC length is 16 bits
 994:Drivers/GD32E23x_standard_peripheral/Source/gd32e23x_spi.c ****     \param[out] none
 995:Drivers/GD32E23x_standard_peripheral/Source/gd32e23x_spi.c ****     \retval     none
 996:Drivers/GD32E23x_standard_peripheral/Source/gd32e23x_spi.c **** */
 997:Drivers/GD32E23x_standard_peripheral/Source/gd32e23x_spi.c **** void spi_crc_length_set(uint32_t spi_periph, uint16_t crc_length)
 998:Drivers/GD32E23x_standard_peripheral/Source/gd32e23x_spi.c **** {
 2096              		.loc 1 998 1 is_stmt 1 view -0
 2097              		.cfi_startproc
ARM GAS  /var/folders/rv/zq8s_02j1dj4vjvr1mm5zl2r0000gn/T//ccSJYVCc.s 			page 56


 2098              		@ args = 0, pretend = 0, frame = 0
 2099              		@ frame_needed = 0, uses_anonymous_args = 0
 2100              		@ link register save eliminated.
 999:Drivers/GD32E23x_standard_peripheral/Source/gd32e23x_spi.c ****     /* clear SPI_CTL0_CRCL bit */
1000:Drivers/GD32E23x_standard_peripheral/Source/gd32e23x_spi.c ****     SPI_CTL0(spi_periph) &= (uint32_t)(~SPI_CTL0_CRCL);
 2101              		.loc 1 1000 5 view .LVU485
 2102              		.loc 1 1000 26 is_stmt 0 view .LVU486
 2103 0000 0268     		ldr	r2, [r0]
 2104 0002 034B     		ldr	r3, .L126
 2105 0004 1A40     		ands	r2, r3
 2106 0006 0260     		str	r2, [r0]
1001:Drivers/GD32E23x_standard_peripheral/Source/gd32e23x_spi.c ****     /* confige SPI_CTL0_CRCL bit */
1002:Drivers/GD32E23x_standard_peripheral/Source/gd32e23x_spi.c ****     SPI_CTL0(spi_periph) |= (uint32_t)crc_length;
 2107              		.loc 1 1002 5 is_stmt 1 view .LVU487
 2108              		.loc 1 1002 26 is_stmt 0 view .LVU488
 2109 0008 0368     		ldr	r3, [r0]
 2110 000a 0B43     		orrs	r3, r1
 2111 000c 0360     		str	r3, [r0]
1003:Drivers/GD32E23x_standard_peripheral/Source/gd32e23x_spi.c **** }
 2112              		.loc 1 1003 1 view .LVU489
 2113              		@ sp needed
 2114 000e 7047     		bx	lr
 2115              	.L127:
 2116              		.align	2
 2117              	.L126:
 2118 0010 FFF7FFFF 		.word	-2049
 2119              		.cfi_endproc
 2120              	.LFE109:
 2122              		.text
 2123              	.Letext0:
 2124              		.file 2 "/Users/jgiles/projects/gcc-arm-none-eabi-10.3-2021.07/arm-none-eabi/include/machine/_defa
 2125              		.file 3 "/Users/jgiles/projects/gcc-arm-none-eabi-10.3-2021.07/arm-none-eabi/include/sys/_stdint.h
 2126              		.file 4 "Drivers/CMSIS/Device/GD/GD32E23x/Include/gd32e23x.h"
 2127              		.file 5 "Drivers/GD32E23x_standard_peripheral/Include/gd32e23x_rcu.h"
 2128              		.file 6 "Drivers/GD32E23x_standard_peripheral/Include/gd32e23x_spi.h"
ARM GAS  /var/folders/rv/zq8s_02j1dj4vjvr1mm5zl2r0000gn/T//ccSJYVCc.s 			page 57

