ARM GAS  /var/folders/rv/zq8s_02j1dj4vjvr1mm5zl2r0000gn/T//ccRmrgHB.s 			page 1


   1              		.cpu cortex-m23
   2              		.eabi_attribute 20, 1
   3              		.eabi_attribute 21, 1
   4              		.eabi_attribute 23, 3
   5              		.eabi_attribute 24, 1
   6              		.eabi_attribute 25, 1
   7              		.eabi_attribute 26, 1
   8              		.eabi_attribute 30, 1
   9              		.eabi_attribute 34, 0
  10              		.eabi_attribute 18, 4
  11              		.file	"gd32e23x_dbg.c"
  12              		.text
  13              	.Ltext0:
  14              		.cfi_sections	.debug_frame
  15              		.section	.text.dbg_deinit,"ax",%progbits
  16              		.align	1
  17              		.global	dbg_deinit
  18              		.arch armv8-m.base
  19              		.syntax unified
  20              		.code	16
  21              		.thumb_func
  22              		.fpu softvfp
  24              	dbg_deinit:
  25              	.LFB66:
  26              		.file 1 "Drivers/GD32E23x_standard_peripheral/Source/gd32e23x_dbg.c"
   1:Drivers/GD32E23x_standard_peripheral/Source/gd32e23x_dbg.c **** /*!
   2:Drivers/GD32E23x_standard_peripheral/Source/gd32e23x_dbg.c ****     \file    gd32e23x_dbg.c
   3:Drivers/GD32E23x_standard_peripheral/Source/gd32e23x_dbg.c ****     \brief   DBG driver
   4:Drivers/GD32E23x_standard_peripheral/Source/gd32e23x_dbg.c ****     
   5:Drivers/GD32E23x_standard_peripheral/Source/gd32e23x_dbg.c ****     \version 2019-02-19, V1.0.0, firmware for GD32E23x
   6:Drivers/GD32E23x_standard_peripheral/Source/gd32e23x_dbg.c ****     \version 2020-12-12, V1.1.0, firmware for GD32E23x
   7:Drivers/GD32E23x_standard_peripheral/Source/gd32e23x_dbg.c **** */
   8:Drivers/GD32E23x_standard_peripheral/Source/gd32e23x_dbg.c **** 
   9:Drivers/GD32E23x_standard_peripheral/Source/gd32e23x_dbg.c **** /*
  10:Drivers/GD32E23x_standard_peripheral/Source/gd32e23x_dbg.c ****     Copyright (c) 2020, GigaDevice Semiconductor Inc.
  11:Drivers/GD32E23x_standard_peripheral/Source/gd32e23x_dbg.c **** 
  12:Drivers/GD32E23x_standard_peripheral/Source/gd32e23x_dbg.c ****     Redistribution and use in source and binary forms, with or without modification, 
  13:Drivers/GD32E23x_standard_peripheral/Source/gd32e23x_dbg.c **** are permitted provided that the following conditions are met:
  14:Drivers/GD32E23x_standard_peripheral/Source/gd32e23x_dbg.c **** 
  15:Drivers/GD32E23x_standard_peripheral/Source/gd32e23x_dbg.c ****     1. Redistributions of source code must retain the above copyright notice, this 
  16:Drivers/GD32E23x_standard_peripheral/Source/gd32e23x_dbg.c ****        list of conditions and the following disclaimer.
  17:Drivers/GD32E23x_standard_peripheral/Source/gd32e23x_dbg.c ****     2. Redistributions in binary form must reproduce the above copyright notice, 
  18:Drivers/GD32E23x_standard_peripheral/Source/gd32e23x_dbg.c ****        this list of conditions and the following disclaimer in the documentation 
  19:Drivers/GD32E23x_standard_peripheral/Source/gd32e23x_dbg.c ****        and/or other materials provided with the distribution.
  20:Drivers/GD32E23x_standard_peripheral/Source/gd32e23x_dbg.c ****     3. Neither the name of the copyright holder nor the names of its contributors 
  21:Drivers/GD32E23x_standard_peripheral/Source/gd32e23x_dbg.c ****        may be used to endorse or promote products derived from this software without 
  22:Drivers/GD32E23x_standard_peripheral/Source/gd32e23x_dbg.c ****        specific prior written permission.
  23:Drivers/GD32E23x_standard_peripheral/Source/gd32e23x_dbg.c **** 
  24:Drivers/GD32E23x_standard_peripheral/Source/gd32e23x_dbg.c ****     THIS SOFTWARE IS PROVIDED BY THE COPYRIGHT HOLDERS AND CONTRIBUTORS "AS IS" 
  25:Drivers/GD32E23x_standard_peripheral/Source/gd32e23x_dbg.c **** AND ANY EXPRESS OR IMPLIED WARRANTIES, INCLUDING, BUT NOT LIMITED TO, THE IMPLIED 
  26:Drivers/GD32E23x_standard_peripheral/Source/gd32e23x_dbg.c **** WARRANTIES OF MERCHANTABILITY AND FITNESS FOR A PARTICULAR PURPOSE ARE DISCLAIMED. 
  27:Drivers/GD32E23x_standard_peripheral/Source/gd32e23x_dbg.c **** IN NO EVENT SHALL THE COPYRIGHT HOLDER OR CONTRIBUTORS BE LIABLE FOR ANY DIRECT, 
  28:Drivers/GD32E23x_standard_peripheral/Source/gd32e23x_dbg.c **** INDIRECT, INCIDENTAL, SPECIAL, EXEMPLARY, OR CONSEQUENTIAL DAMAGES (INCLUDING, BUT 
  29:Drivers/GD32E23x_standard_peripheral/Source/gd32e23x_dbg.c **** NOT LIMITED TO, PROCUREMENT OF SUBSTITUTE GOODS OR SERVICES; LOSS OF USE, DATA, OR 
  30:Drivers/GD32E23x_standard_peripheral/Source/gd32e23x_dbg.c **** PROFITS; OR BUSINESS INTERRUPTION) HOWEVER CAUSED AND ON ANY THEORY OF LIABILITY, 
  31:Drivers/GD32E23x_standard_peripheral/Source/gd32e23x_dbg.c **** WHETHER IN CONTRACT, STRICT LIABILITY, OR TORT (INCLUDING NEGLIGENCE OR OTHERWISE) 
  32:Drivers/GD32E23x_standard_peripheral/Source/gd32e23x_dbg.c **** ARISING IN ANY WAY OUT OF THE USE OF THIS SOFTWARE, EVEN IF ADVISED OF THE POSSIBILITY 
ARM GAS  /var/folders/rv/zq8s_02j1dj4vjvr1mm5zl2r0000gn/T//ccRmrgHB.s 			page 2


  33:Drivers/GD32E23x_standard_peripheral/Source/gd32e23x_dbg.c **** OF SUCH DAMAGE.
  34:Drivers/GD32E23x_standard_peripheral/Source/gd32e23x_dbg.c **** */
  35:Drivers/GD32E23x_standard_peripheral/Source/gd32e23x_dbg.c **** 
  36:Drivers/GD32E23x_standard_peripheral/Source/gd32e23x_dbg.c **** #include "gd32e23x_dbg.h"
  37:Drivers/GD32E23x_standard_peripheral/Source/gd32e23x_dbg.c **** 
  38:Drivers/GD32E23x_standard_peripheral/Source/gd32e23x_dbg.c **** #define DBG_RESET_VAL       0x00000000U
  39:Drivers/GD32E23x_standard_peripheral/Source/gd32e23x_dbg.c **** 
  40:Drivers/GD32E23x_standard_peripheral/Source/gd32e23x_dbg.c **** /*!
  41:Drivers/GD32E23x_standard_peripheral/Source/gd32e23x_dbg.c ****     \brief      deinitialize the DBG
  42:Drivers/GD32E23x_standard_peripheral/Source/gd32e23x_dbg.c ****     \param[in]  none
  43:Drivers/GD32E23x_standard_peripheral/Source/gd32e23x_dbg.c ****     \param[out] none
  44:Drivers/GD32E23x_standard_peripheral/Source/gd32e23x_dbg.c ****     \retval     none
  45:Drivers/GD32E23x_standard_peripheral/Source/gd32e23x_dbg.c **** */
  46:Drivers/GD32E23x_standard_peripheral/Source/gd32e23x_dbg.c **** void dbg_deinit(void)
  47:Drivers/GD32E23x_standard_peripheral/Source/gd32e23x_dbg.c **** {
  27              		.loc 1 47 1 view -0
  28              		.cfi_startproc
  29              		@ args = 0, pretend = 0, frame = 0
  30              		@ frame_needed = 0, uses_anonymous_args = 0
  31              		@ link register save eliminated.
  48:Drivers/GD32E23x_standard_peripheral/Source/gd32e23x_dbg.c ****     DBG_CTL0 = DBG_RESET_VAL;
  32              		.loc 1 48 5 view .LVU1
  33              		.loc 1 48 14 is_stmt 0 view .LVU2
  34 0000 45F60403 		movw	r3, #22532
  35 0004 C4F20103 		movt	r3, 16385
  36 0008 0022     		movs	r2, #0
  37 000a 1A60     		str	r2, [r3]
  49:Drivers/GD32E23x_standard_peripheral/Source/gd32e23x_dbg.c ****     DBG_CTL1 = DBG_RESET_VAL;
  38              		.loc 1 49 5 is_stmt 1 view .LVU3
  39              		.loc 1 49 14 is_stmt 0 view .LVU4
  40 000c 45F60803 		movw	r3, #22536
  41 0010 C4F20103 		movt	r3, 16385
  42 0014 1A60     		str	r2, [r3]
  50:Drivers/GD32E23x_standard_peripheral/Source/gd32e23x_dbg.c **** }
  43              		.loc 1 50 1 view .LVU5
  44              		@ sp needed
  45 0016 7047     		bx	lr
  46              		.cfi_endproc
  47              	.LFE66:
  49              		.section	.text.dbg_id_get,"ax",%progbits
  50              		.align	1
  51              		.global	dbg_id_get
  52              		.syntax unified
  53              		.code	16
  54              		.thumb_func
  55              		.fpu softvfp
  57              	dbg_id_get:
  58              	.LFB67:
  51:Drivers/GD32E23x_standard_peripheral/Source/gd32e23x_dbg.c **** 
  52:Drivers/GD32E23x_standard_peripheral/Source/gd32e23x_dbg.c **** /*!
  53:Drivers/GD32E23x_standard_peripheral/Source/gd32e23x_dbg.c ****     \brief      read DBG_ID code register
  54:Drivers/GD32E23x_standard_peripheral/Source/gd32e23x_dbg.c ****     \param[in]  none
  55:Drivers/GD32E23x_standard_peripheral/Source/gd32e23x_dbg.c ****     \param[out] none
  56:Drivers/GD32E23x_standard_peripheral/Source/gd32e23x_dbg.c ****     \retval     DBG_ID code
  57:Drivers/GD32E23x_standard_peripheral/Source/gd32e23x_dbg.c **** */
  58:Drivers/GD32E23x_standard_peripheral/Source/gd32e23x_dbg.c **** uint32_t dbg_id_get(void)
  59:Drivers/GD32E23x_standard_peripheral/Source/gd32e23x_dbg.c **** {
ARM GAS  /var/folders/rv/zq8s_02j1dj4vjvr1mm5zl2r0000gn/T//ccRmrgHB.s 			page 3


  59              		.loc 1 59 1 is_stmt 1 view -0
  60              		.cfi_startproc
  61              		@ args = 0, pretend = 0, frame = 0
  62              		@ frame_needed = 0, uses_anonymous_args = 0
  63              		@ link register save eliminated.
  60:Drivers/GD32E23x_standard_peripheral/Source/gd32e23x_dbg.c ****     return DBG_ID;
  64              		.loc 1 60 5 view .LVU7
  65              		.loc 1 60 12 is_stmt 0 view .LVU8
  66 0000 45F60003 		movw	r3, #22528
  67 0004 C4F20103 		movt	r3, 16385
  68 0008 1868     		ldr	r0, [r3]
  61:Drivers/GD32E23x_standard_peripheral/Source/gd32e23x_dbg.c **** }
  69              		.loc 1 61 1 view .LVU9
  70              		@ sp needed
  71 000a 7047     		bx	lr
  72              		.cfi_endproc
  73              	.LFE67:
  75              		.section	.text.dbg_low_power_enable,"ax",%progbits
  76              		.align	1
  77              		.global	dbg_low_power_enable
  78              		.syntax unified
  79              		.code	16
  80              		.thumb_func
  81              		.fpu softvfp
  83              	dbg_low_power_enable:
  84              	.LVL0:
  85              	.LFB68:
  62:Drivers/GD32E23x_standard_peripheral/Source/gd32e23x_dbg.c **** 
  63:Drivers/GD32E23x_standard_peripheral/Source/gd32e23x_dbg.c **** /*!
  64:Drivers/GD32E23x_standard_peripheral/Source/gd32e23x_dbg.c ****     \brief      enable low power behavior when the mcu is in debug mode
  65:Drivers/GD32E23x_standard_peripheral/Source/gd32e23x_dbg.c ****     \param[in]  dbg_low_power:
  66:Drivers/GD32E23x_standard_peripheral/Source/gd32e23x_dbg.c ****                 this parameter can be any combination of the following values:
  67:Drivers/GD32E23x_standard_peripheral/Source/gd32e23x_dbg.c ****       \arg        DBG_LOW_POWER_SLEEP: keep debugger connection during sleep mode
  68:Drivers/GD32E23x_standard_peripheral/Source/gd32e23x_dbg.c ****       \arg        DBG_LOW_POWER_DEEPSLEEP: keep debugger connection during deepsleep mode
  69:Drivers/GD32E23x_standard_peripheral/Source/gd32e23x_dbg.c ****       \arg        DBG_LOW_POWER_STANDBY: keep debugger connection during standby mode
  70:Drivers/GD32E23x_standard_peripheral/Source/gd32e23x_dbg.c ****     \param[out] none
  71:Drivers/GD32E23x_standard_peripheral/Source/gd32e23x_dbg.c ****     \retval     none
  72:Drivers/GD32E23x_standard_peripheral/Source/gd32e23x_dbg.c **** */
  73:Drivers/GD32E23x_standard_peripheral/Source/gd32e23x_dbg.c **** void dbg_low_power_enable(uint32_t dbg_low_power)
  74:Drivers/GD32E23x_standard_peripheral/Source/gd32e23x_dbg.c **** {
  86              		.loc 1 74 1 is_stmt 1 view -0
  87              		.cfi_startproc
  88              		@ args = 0, pretend = 0, frame = 0
  89              		@ frame_needed = 0, uses_anonymous_args = 0
  90              		@ link register save eliminated.
  75:Drivers/GD32E23x_standard_peripheral/Source/gd32e23x_dbg.c ****     DBG_CTL0 |= dbg_low_power;
  91              		.loc 1 75 5 view .LVU11
  92              		.loc 1 75 14 is_stmt 0 view .LVU12
  93 0000 45F60403 		movw	r3, #22532
  94 0004 C4F20103 		movt	r3, 16385
  95 0008 1A68     		ldr	r2, [r3]
  96 000a 0243     		orrs	r2, r0
  97 000c 1A60     		str	r2, [r3]
  76:Drivers/GD32E23x_standard_peripheral/Source/gd32e23x_dbg.c **** }
  98              		.loc 1 76 1 view .LVU13
  99              		@ sp needed
 100 000e 7047     		bx	lr
ARM GAS  /var/folders/rv/zq8s_02j1dj4vjvr1mm5zl2r0000gn/T//ccRmrgHB.s 			page 4


 101              		.cfi_endproc
 102              	.LFE68:
 104              		.section	.text.dbg_low_power_disable,"ax",%progbits
 105              		.align	1
 106              		.global	dbg_low_power_disable
 107              		.syntax unified
 108              		.code	16
 109              		.thumb_func
 110              		.fpu softvfp
 112              	dbg_low_power_disable:
 113              	.LVL1:
 114              	.LFB69:
  77:Drivers/GD32E23x_standard_peripheral/Source/gd32e23x_dbg.c **** 
  78:Drivers/GD32E23x_standard_peripheral/Source/gd32e23x_dbg.c **** /*!
  79:Drivers/GD32E23x_standard_peripheral/Source/gd32e23x_dbg.c ****     \brief      disable low power behavior when the mcu is in debug mode
  80:Drivers/GD32E23x_standard_peripheral/Source/gd32e23x_dbg.c ****     \param[in]  dbg_low_power:
  81:Drivers/GD32E23x_standard_peripheral/Source/gd32e23x_dbg.c ****                 this parameter can be any combination of the following values:
  82:Drivers/GD32E23x_standard_peripheral/Source/gd32e23x_dbg.c ****       \arg        DBG_LOW_POWER_SLEEP: donot keep debugger connection during sleep mode
  83:Drivers/GD32E23x_standard_peripheral/Source/gd32e23x_dbg.c ****       \arg        DBG_LOW_POWER_DEEPSLEEP: donot keep debugger connection during deepsleep mode
  84:Drivers/GD32E23x_standard_peripheral/Source/gd32e23x_dbg.c ****       \arg        DBG_LOW_POWER_STANDBY: donot keep debugger connection during standby mode
  85:Drivers/GD32E23x_standard_peripheral/Source/gd32e23x_dbg.c ****     \param[out] none
  86:Drivers/GD32E23x_standard_peripheral/Source/gd32e23x_dbg.c ****     \retval     none
  87:Drivers/GD32E23x_standard_peripheral/Source/gd32e23x_dbg.c **** */
  88:Drivers/GD32E23x_standard_peripheral/Source/gd32e23x_dbg.c **** void dbg_low_power_disable(uint32_t dbg_low_power)
  89:Drivers/GD32E23x_standard_peripheral/Source/gd32e23x_dbg.c **** {
 115              		.loc 1 89 1 is_stmt 1 view -0
 116              		.cfi_startproc
 117              		@ args = 0, pretend = 0, frame = 0
 118              		@ frame_needed = 0, uses_anonymous_args = 0
 119              		@ link register save eliminated.
  90:Drivers/GD32E23x_standard_peripheral/Source/gd32e23x_dbg.c ****     DBG_CTL0 &= ~dbg_low_power;
 120              		.loc 1 90 5 view .LVU15
 121              		.loc 1 90 14 is_stmt 0 view .LVU16
 122 0000 45F60403 		movw	r3, #22532
 123 0004 C4F20103 		movt	r3, 16385
 124 0008 1A68     		ldr	r2, [r3]
 125 000a 8243     		bics	r2, r0
 126 000c 1A60     		str	r2, [r3]
  91:Drivers/GD32E23x_standard_peripheral/Source/gd32e23x_dbg.c **** }
 127              		.loc 1 91 1 view .LVU17
 128              		@ sp needed
 129 000e 7047     		bx	lr
 130              		.cfi_endproc
 131              	.LFE69:
 133              		.section	.text.dbg_periph_enable,"ax",%progbits
 134              		.align	1
 135              		.global	dbg_periph_enable
 136              		.syntax unified
 137              		.code	16
 138              		.thumb_func
 139              		.fpu softvfp
 141              	dbg_periph_enable:
 142              	.LVL2:
 143              	.LFB70:
  92:Drivers/GD32E23x_standard_peripheral/Source/gd32e23x_dbg.c **** 
  93:Drivers/GD32E23x_standard_peripheral/Source/gd32e23x_dbg.c **** /*!
  94:Drivers/GD32E23x_standard_peripheral/Source/gd32e23x_dbg.c ****     \brief      enable peripheral behavior when the mcu is in debug mode
ARM GAS  /var/folders/rv/zq8s_02j1dj4vjvr1mm5zl2r0000gn/T//ccRmrgHB.s 			page 5


  95:Drivers/GD32E23x_standard_peripheral/Source/gd32e23x_dbg.c ****     \param[in]  dbg_periph: DBG peripheral 
  96:Drivers/GD32E23x_standard_peripheral/Source/gd32e23x_dbg.c ****                 only one parameter can be selected which is shown as below:
  97:Drivers/GD32E23x_standard_peripheral/Source/gd32e23x_dbg.c ****       \arg        DBG_FWDGT_HOLD: debug FWDGT kept when core is halted
  98:Drivers/GD32E23x_standard_peripheral/Source/gd32e23x_dbg.c ****       \arg        DBG_WWDGT_HOLD: debug WWDGT kept when core is halted
  99:Drivers/GD32E23x_standard_peripheral/Source/gd32e23x_dbg.c ****       \arg        DBG_TIMER0_HOLD: TIMER0 counter kept when core is halted
 100:Drivers/GD32E23x_standard_peripheral/Source/gd32e23x_dbg.c ****       \arg        DBG_TIMER2_HOLD: TIMER2 counter kept when core is halted
 101:Drivers/GD32E23x_standard_peripheral/Source/gd32e23x_dbg.c ****       \arg        DBG_TIMER5_HOLD: hold TIMER5 counter when core is halted
 102:Drivers/GD32E23x_standard_peripheral/Source/gd32e23x_dbg.c ****       \arg        DBG_TIMER13_HOLD: hold TIMER13 counter when core is halted
 103:Drivers/GD32E23x_standard_peripheral/Source/gd32e23x_dbg.c ****       \arg        DBG_TIMER14_HOLD: hold TIMER14 counter when core is halted
 104:Drivers/GD32E23x_standard_peripheral/Source/gd32e23x_dbg.c ****       \arg        DBG_TIMER15_HOLD: hold TIMER15 counter when core is halted
 105:Drivers/GD32E23x_standard_peripheral/Source/gd32e23x_dbg.c ****       \arg        DBG_TIMER16_HOLD: hold TIMER16 counter when core is halted
 106:Drivers/GD32E23x_standard_peripheral/Source/gd32e23x_dbg.c ****       \arg        DBG_I2C0_HOLD: hold I2C0 SMBUS when core is halted
 107:Drivers/GD32E23x_standard_peripheral/Source/gd32e23x_dbg.c ****       \arg        DBG_I2C1_HOLD: hold I2C1 SMBUS when core is halted
 108:Drivers/GD32E23x_standard_peripheral/Source/gd32e23x_dbg.c ****       \arg        DBG_RTC_HOLD: hold RTC calendar and wakeup counter when core is halted
 109:Drivers/GD32E23x_standard_peripheral/Source/gd32e23x_dbg.c ****     \param[out] none
 110:Drivers/GD32E23x_standard_peripheral/Source/gd32e23x_dbg.c ****     \retval     none
 111:Drivers/GD32E23x_standard_peripheral/Source/gd32e23x_dbg.c **** */
 112:Drivers/GD32E23x_standard_peripheral/Source/gd32e23x_dbg.c **** void dbg_periph_enable(dbg_periph_enum dbg_periph)
 113:Drivers/GD32E23x_standard_peripheral/Source/gd32e23x_dbg.c **** {
 144              		.loc 1 113 1 is_stmt 1 view -0
 145              		.cfi_startproc
 146              		@ args = 0, pretend = 0, frame = 0
 147              		@ frame_needed = 0, uses_anonymous_args = 0
 148              		@ link register save eliminated.
 114:Drivers/GD32E23x_standard_peripheral/Source/gd32e23x_dbg.c ****     DBG_REG_VAL(dbg_periph) |= BIT(DBG_BIT_POS(dbg_periph));
 149              		.loc 1 114 5 view .LVU19
 150              		.loc 1 114 29 is_stmt 0 view .LVU20
 151 0000 8309     		lsrs	r3, r0, #6
 152 0002 45F6000C 		movw	ip, #22528
 153 0006 C4F2010C 		movt	ip, 16385
 154 000a 6344     		add	r3, r3, ip
 155 000c 1A68     		ldr	r2, [r3]
 156              		.loc 1 114 32 view .LVU21
 157 000e 1F21     		movs	r1, #31
 158 0010 0840     		ands	r0, r1
 159              	.LVL3:
 160              		.loc 1 114 32 view .LVU22
 161 0012 1E39     		subs	r1, r1, #30
 162 0014 8140     		lsls	r1, r1, r0
 163              		.loc 1 114 29 view .LVU23
 164 0016 0A43     		orrs	r2, r1
 165 0018 1A60     		str	r2, [r3]
 115:Drivers/GD32E23x_standard_peripheral/Source/gd32e23x_dbg.c **** }
 166              		.loc 1 115 1 view .LVU24
 167              		@ sp needed
 168 001a 7047     		bx	lr
 169              		.cfi_endproc
 170              	.LFE70:
 172              		.section	.text.dbg_periph_disable,"ax",%progbits
 173              		.align	1
 174              		.global	dbg_periph_disable
 175              		.syntax unified
 176              		.code	16
 177              		.thumb_func
 178              		.fpu softvfp
 180              	dbg_periph_disable:
 181              	.LVL4:
ARM GAS  /var/folders/rv/zq8s_02j1dj4vjvr1mm5zl2r0000gn/T//ccRmrgHB.s 			page 6


 182              	.LFB71:
 116:Drivers/GD32E23x_standard_peripheral/Source/gd32e23x_dbg.c **** 
 117:Drivers/GD32E23x_standard_peripheral/Source/gd32e23x_dbg.c **** /*!
 118:Drivers/GD32E23x_standard_peripheral/Source/gd32e23x_dbg.c ****     \brief      disable peripheral behavior when the mcu is in debug mode
 119:Drivers/GD32E23x_standard_peripheral/Source/gd32e23x_dbg.c ****     \param[in]  dbg_periph: DBG peripheral 
 120:Drivers/GD32E23x_standard_peripheral/Source/gd32e23x_dbg.c ****                 only one parameter can be selected which is shown as below:
 121:Drivers/GD32E23x_standard_peripheral/Source/gd32e23x_dbg.c ****       \arg        DBG_FWDGT_HOLD: debug FWDGT kept when core is halted
 122:Drivers/GD32E23x_standard_peripheral/Source/gd32e23x_dbg.c ****       \arg        DBG_WWDGT_HOLD: debug WWDGT kept when core is halted
 123:Drivers/GD32E23x_standard_peripheral/Source/gd32e23x_dbg.c ****       \arg        DBG_TIMER0_HOLD: TIMER0 counter kept when core is halted
 124:Drivers/GD32E23x_standard_peripheral/Source/gd32e23x_dbg.c ****       \arg        DBG_TIMER2_HOLD: TIMER2 counter kept when core is halted
 125:Drivers/GD32E23x_standard_peripheral/Source/gd32e23x_dbg.c ****       \arg        DBG_TIMER5_HOLD: hold TIMER5 counter when core is halted
 126:Drivers/GD32E23x_standard_peripheral/Source/gd32e23x_dbg.c ****       \arg        DBG_TIMER13_HOLD: hold TIMER13 counter when core is halted
 127:Drivers/GD32E23x_standard_peripheral/Source/gd32e23x_dbg.c ****       \arg        DBG_TIMER14_HOLD: hold TIMER14 counter when core is halted
 128:Drivers/GD32E23x_standard_peripheral/Source/gd32e23x_dbg.c ****       \arg        DBG_TIMER15_HOLD: hold TIMER15 counter when core is halted
 129:Drivers/GD32E23x_standard_peripheral/Source/gd32e23x_dbg.c ****       \arg        DBG_TIMER16_HOLD: hold TIMER16 counter when core is halted
 130:Drivers/GD32E23x_standard_peripheral/Source/gd32e23x_dbg.c ****       \arg        DBG_I2C0_HOLD: hold I2C0 SMBUS when core is halted
 131:Drivers/GD32E23x_standard_peripheral/Source/gd32e23x_dbg.c ****       \arg        DBG_I2C1_HOLD: hold I2C1 SMBUS when core is halted
 132:Drivers/GD32E23x_standard_peripheral/Source/gd32e23x_dbg.c ****       \arg        DBG_RTC_HOLD: hold RTC calendar and wakeup counter when core is halted
 133:Drivers/GD32E23x_standard_peripheral/Source/gd32e23x_dbg.c ****     \param[out] none
 134:Drivers/GD32E23x_standard_peripheral/Source/gd32e23x_dbg.c ****     \retval     none
 135:Drivers/GD32E23x_standard_peripheral/Source/gd32e23x_dbg.c **** */
 136:Drivers/GD32E23x_standard_peripheral/Source/gd32e23x_dbg.c **** void dbg_periph_disable(dbg_periph_enum dbg_periph)
 137:Drivers/GD32E23x_standard_peripheral/Source/gd32e23x_dbg.c **** {
 183              		.loc 1 137 1 is_stmt 1 view -0
 184              		.cfi_startproc
 185              		@ args = 0, pretend = 0, frame = 0
 186              		@ frame_needed = 0, uses_anonymous_args = 0
 187              		@ link register save eliminated.
 138:Drivers/GD32E23x_standard_peripheral/Source/gd32e23x_dbg.c ****     DBG_REG_VAL(dbg_periph) &= ~BIT(DBG_BIT_POS(dbg_periph));
 188              		.loc 1 138 5 view .LVU26
 189              		.loc 1 138 29 is_stmt 0 view .LVU27
 190 0000 8309     		lsrs	r3, r0, #6
 191 0002 45F6000C 		movw	ip, #22528
 192 0006 C4F2010C 		movt	ip, 16385
 193 000a 6344     		add	r3, r3, ip
 194 000c 1A68     		ldr	r2, [r3]
 195              		.loc 1 138 33 view .LVU28
 196 000e 1F21     		movs	r1, #31
 197 0010 0840     		ands	r0, r1
 198              	.LVL5:
 199              		.loc 1 138 33 view .LVU29
 200 0012 1E39     		subs	r1, r1, #30
 201 0014 8140     		lsls	r1, r1, r0
 202              		.loc 1 138 29 view .LVU30
 203 0016 8A43     		bics	r2, r1
 204 0018 1A60     		str	r2, [r3]
 139:Drivers/GD32E23x_standard_peripheral/Source/gd32e23x_dbg.c **** }
 205              		.loc 1 139 1 view .LVU31
 206              		@ sp needed
 207 001a 7047     		bx	lr
 208              		.cfi_endproc
 209              	.LFE71:
 211              		.text
 212              	.Letext0:
 213              		.file 2 "/Users/jgiles/projects/gcc-arm-none-eabi-10.3-2021.07/arm-none-eabi/include/machine/_defa
 214              		.file 3 "/Users/jgiles/projects/gcc-arm-none-eabi-10.3-2021.07/arm-none-eabi/include/sys/_stdint.h
 215              		.file 4 "Drivers/GD32E23x_standard_peripheral/Include/gd32e23x_dbg.h"
ARM GAS  /var/folders/rv/zq8s_02j1dj4vjvr1mm5zl2r0000gn/T//ccRmrgHB.s 			page 7


ARM GAS  /var/folders/rv/zq8s_02j1dj4vjvr1mm5zl2r0000gn/T//ccRmrgHB.s 			page 8

