ARM GAS  /var/folders/rv/zq8s_02j1dj4vjvr1mm5zl2r0000gn/T//ccsprPZw.s 			page 1


   1              		.cpu cortex-m23
   2              		.eabi_attribute 20, 1
   3              		.eabi_attribute 21, 1
   4              		.eabi_attribute 23, 3
   5              		.eabi_attribute 24, 1
   6              		.eabi_attribute 25, 1
   7              		.eabi_attribute 26, 1
   8              		.eabi_attribute 30, 1
   9              		.eabi_attribute 34, 0
  10              		.eabi_attribute 18, 4
  11              		.file	"gd32e23x_adc.c"
  12              		.text
  13              	.Ltext0:
  14              		.cfi_sections	.debug_frame
  15              		.section	.text.adc_deinit,"ax",%progbits
  16              		.align	1
  17              		.global	adc_deinit
  18              		.arch armv8-m.base
  19              		.syntax unified
  20              		.code	16
  21              		.thumb_func
  22              		.fpu softvfp
  24              	adc_deinit:
  25              	.LFB66:
  26              		.file 1 "Drivers/GD32E23x_standard_peripheral/Source/gd32e23x_adc.c"
   1:Drivers/GD32E23x_standard_peripheral/Source/gd32e23x_adc.c **** /*!
   2:Drivers/GD32E23x_standard_peripheral/Source/gd32e23x_adc.c ****     \file    gd32e23x_adc.c
   3:Drivers/GD32E23x_standard_peripheral/Source/gd32e23x_adc.c ****     \brief   ADC driver
   4:Drivers/GD32E23x_standard_peripheral/Source/gd32e23x_adc.c ****     
   5:Drivers/GD32E23x_standard_peripheral/Source/gd32e23x_adc.c ****     \version 2019-02-19, V1.0.0, firmware for GD32E23x
   6:Drivers/GD32E23x_standard_peripheral/Source/gd32e23x_adc.c ****     \version 2020-12-12, V1.1.0, firmware for GD32E23x
   7:Drivers/GD32E23x_standard_peripheral/Source/gd32e23x_adc.c **** */
   8:Drivers/GD32E23x_standard_peripheral/Source/gd32e23x_adc.c **** 
   9:Drivers/GD32E23x_standard_peripheral/Source/gd32e23x_adc.c **** /*
  10:Drivers/GD32E23x_standard_peripheral/Source/gd32e23x_adc.c ****     Copyright (c) 2020, GigaDevice Semiconductor Inc.
  11:Drivers/GD32E23x_standard_peripheral/Source/gd32e23x_adc.c **** 
  12:Drivers/GD32E23x_standard_peripheral/Source/gd32e23x_adc.c ****     Redistribution and use in source and binary forms, with or without modification, 
  13:Drivers/GD32E23x_standard_peripheral/Source/gd32e23x_adc.c **** are permitted provided that the following conditions are met:
  14:Drivers/GD32E23x_standard_peripheral/Source/gd32e23x_adc.c **** 
  15:Drivers/GD32E23x_standard_peripheral/Source/gd32e23x_adc.c ****     1. Redistributions of source code must retain the above copyright notice, this 
  16:Drivers/GD32E23x_standard_peripheral/Source/gd32e23x_adc.c ****        list of conditions and the following disclaimer.
  17:Drivers/GD32E23x_standard_peripheral/Source/gd32e23x_adc.c ****     2. Redistributions in binary form must reproduce the above copyright notice, 
  18:Drivers/GD32E23x_standard_peripheral/Source/gd32e23x_adc.c ****        this list of conditions and the following disclaimer in the documentation 
  19:Drivers/GD32E23x_standard_peripheral/Source/gd32e23x_adc.c ****        and/or other materials provided with the distribution.
  20:Drivers/GD32E23x_standard_peripheral/Source/gd32e23x_adc.c ****     3. Neither the name of the copyright holder nor the names of its contributors 
  21:Drivers/GD32E23x_standard_peripheral/Source/gd32e23x_adc.c ****        may be used to endorse or promote products derived from this software without 
  22:Drivers/GD32E23x_standard_peripheral/Source/gd32e23x_adc.c ****        specific prior written permission.
  23:Drivers/GD32E23x_standard_peripheral/Source/gd32e23x_adc.c **** 
  24:Drivers/GD32E23x_standard_peripheral/Source/gd32e23x_adc.c ****     THIS SOFTWARE IS PROVIDED BY THE COPYRIGHT HOLDERS AND CONTRIBUTORS "AS IS" 
  25:Drivers/GD32E23x_standard_peripheral/Source/gd32e23x_adc.c **** AND ANY EXPRESS OR IMPLIED WARRANTIES, INCLUDING, BUT NOT LIMITED TO, THE IMPLIED 
  26:Drivers/GD32E23x_standard_peripheral/Source/gd32e23x_adc.c **** WARRANTIES OF MERCHANTABILITY AND FITNESS FOR A PARTICULAR PURPOSE ARE DISCLAIMED. 
  27:Drivers/GD32E23x_standard_peripheral/Source/gd32e23x_adc.c **** IN NO EVENT SHALL THE COPYRIGHT HOLDER OR CONTRIBUTORS BE LIABLE FOR ANY DIRECT, 
  28:Drivers/GD32E23x_standard_peripheral/Source/gd32e23x_adc.c **** INDIRECT, INCIDENTAL, SPECIAL, EXEMPLARY, OR CONSEQUENTIAL DAMAGES (INCLUDING, BUT 
  29:Drivers/GD32E23x_standard_peripheral/Source/gd32e23x_adc.c **** NOT LIMITED TO, PROCUREMENT OF SUBSTITUTE GOODS OR SERVICES; LOSS OF USE, DATA, OR 
  30:Drivers/GD32E23x_standard_peripheral/Source/gd32e23x_adc.c **** PROFITS; OR BUSINESS INTERRUPTION) HOWEVER CAUSED AND ON ANY THEORY OF LIABILITY, 
  31:Drivers/GD32E23x_standard_peripheral/Source/gd32e23x_adc.c **** WHETHER IN CONTRACT, STRICT LIABILITY, OR TORT (INCLUDING NEGLIGENCE OR OTHERWISE) 
  32:Drivers/GD32E23x_standard_peripheral/Source/gd32e23x_adc.c **** ARISING IN ANY WAY OUT OF THE USE OF THIS SOFTWARE, EVEN IF ADVISED OF THE POSSIBILITY 
ARM GAS  /var/folders/rv/zq8s_02j1dj4vjvr1mm5zl2r0000gn/T//ccsprPZw.s 			page 2


  33:Drivers/GD32E23x_standard_peripheral/Source/gd32e23x_adc.c **** OF SUCH DAMAGE.
  34:Drivers/GD32E23x_standard_peripheral/Source/gd32e23x_adc.c **** */
  35:Drivers/GD32E23x_standard_peripheral/Source/gd32e23x_adc.c **** 
  36:Drivers/GD32E23x_standard_peripheral/Source/gd32e23x_adc.c **** #include "gd32e23x_adc.h"
  37:Drivers/GD32E23x_standard_peripheral/Source/gd32e23x_adc.c **** 
  38:Drivers/GD32E23x_standard_peripheral/Source/gd32e23x_adc.c **** /*!
  39:Drivers/GD32E23x_standard_peripheral/Source/gd32e23x_adc.c ****     \brief      reset ADC
  40:Drivers/GD32E23x_standard_peripheral/Source/gd32e23x_adc.c ****     \param[in]  none
  41:Drivers/GD32E23x_standard_peripheral/Source/gd32e23x_adc.c ****     \param[out] none
  42:Drivers/GD32E23x_standard_peripheral/Source/gd32e23x_adc.c ****     \retval     none
  43:Drivers/GD32E23x_standard_peripheral/Source/gd32e23x_adc.c **** */
  44:Drivers/GD32E23x_standard_peripheral/Source/gd32e23x_adc.c **** void adc_deinit(void)
  45:Drivers/GD32E23x_standard_peripheral/Source/gd32e23x_adc.c **** {
  27              		.loc 1 45 1 view -0
  28              		.cfi_startproc
  29              		@ args = 0, pretend = 0, frame = 0
  30              		@ frame_needed = 0, uses_anonymous_args = 0
  31 0000 10B5     		push	{r4, lr}
  32              	.LCFI0:
  33              		.cfi_def_cfa_offset 8
  34              		.cfi_offset 4, -8
  35              		.cfi_offset 14, -4
  46:Drivers/GD32E23x_standard_peripheral/Source/gd32e23x_adc.c ****     rcu_periph_reset_enable(RCU_ADCRST);
  36              		.loc 1 46 5 view .LVU1
  37 0002 40F20930 		movw	r0, #777
  38 0006 FFF7FEFF 		bl	rcu_periph_reset_enable
  39              	.LVL0:
  47:Drivers/GD32E23x_standard_peripheral/Source/gd32e23x_adc.c ****     rcu_periph_reset_disable(RCU_ADCRST);
  40              		.loc 1 47 5 view .LVU2
  41 000a 40F20930 		movw	r0, #777
  42 000e FFF7FEFF 		bl	rcu_periph_reset_disable
  43              	.LVL1:
  48:Drivers/GD32E23x_standard_peripheral/Source/gd32e23x_adc.c **** }
  44              		.loc 1 48 1 is_stmt 0 view .LVU3
  45              		@ sp needed
  46 0012 10BD     		pop	{r4, pc}
  47              		.cfi_endproc
  48              	.LFE66:
  50              		.section	.text.adc_enable,"ax",%progbits
  51              		.align	1
  52              		.global	adc_enable
  53              		.syntax unified
  54              		.code	16
  55              		.thumb_func
  56              		.fpu softvfp
  58              	adc_enable:
  59              	.LFB67:
  49:Drivers/GD32E23x_standard_peripheral/Source/gd32e23x_adc.c **** 
  50:Drivers/GD32E23x_standard_peripheral/Source/gd32e23x_adc.c **** /*!
  51:Drivers/GD32E23x_standard_peripheral/Source/gd32e23x_adc.c ****     \brief      enable ADC interface
  52:Drivers/GD32E23x_standard_peripheral/Source/gd32e23x_adc.c ****     \param[in]  none
  53:Drivers/GD32E23x_standard_peripheral/Source/gd32e23x_adc.c ****     \param[out] none
  54:Drivers/GD32E23x_standard_peripheral/Source/gd32e23x_adc.c ****     \retval     none
  55:Drivers/GD32E23x_standard_peripheral/Source/gd32e23x_adc.c **** */
  56:Drivers/GD32E23x_standard_peripheral/Source/gd32e23x_adc.c **** void adc_enable(void)
  57:Drivers/GD32E23x_standard_peripheral/Source/gd32e23x_adc.c **** {
  60              		.loc 1 57 1 is_stmt 1 view -0
ARM GAS  /var/folders/rv/zq8s_02j1dj4vjvr1mm5zl2r0000gn/T//ccsprPZw.s 			page 3


  61              		.cfi_startproc
  62              		@ args = 0, pretend = 0, frame = 0
  63              		@ frame_needed = 0, uses_anonymous_args = 0
  64              		@ link register save eliminated.
  58:Drivers/GD32E23x_standard_peripheral/Source/gd32e23x_adc.c ****     if(RESET == (ADC_CTL1 & ADC_CTL1_ADCON)){
  65              		.loc 1 58 5 view .LVU5
  66              		.loc 1 58 18 is_stmt 0 view .LVU6
  67 0000 42F20843 		movw	r3, #9224
  68 0004 C4F20103 		movt	r3, 16385
  69 0008 1B68     		ldr	r3, [r3]
  70              		.loc 1 58 7 view .LVU7
  71 000a DB07     		lsls	r3, r3, #31
  72 000c 07D4     		bmi	.L2
  59:Drivers/GD32E23x_standard_peripheral/Source/gd32e23x_adc.c ****         ADC_CTL1 |= (uint32_t)ADC_CTL1_ADCON;
  73              		.loc 1 59 9 is_stmt 1 view .LVU8
  74              		.loc 1 59 18 is_stmt 0 view .LVU9
  75 000e 42F20843 		movw	r3, #9224
  76 0012 C4F20103 		movt	r3, 16385
  77 0016 1A68     		ldr	r2, [r3]
  78 0018 0121     		movs	r1, #1
  79 001a 0A43     		orrs	r2, r1
  80 001c 1A60     		str	r2, [r3]
  81              	.L2:
  60:Drivers/GD32E23x_standard_peripheral/Source/gd32e23x_adc.c ****     }
  61:Drivers/GD32E23x_standard_peripheral/Source/gd32e23x_adc.c **** }
  82              		.loc 1 61 1 view .LVU10
  83              		@ sp needed
  84 001e 7047     		bx	lr
  85              		.cfi_endproc
  86              	.LFE67:
  88              		.section	.text.adc_disable,"ax",%progbits
  89              		.align	1
  90              		.global	adc_disable
  91              		.syntax unified
  92              		.code	16
  93              		.thumb_func
  94              		.fpu softvfp
  96              	adc_disable:
  97              	.LFB68:
  62:Drivers/GD32E23x_standard_peripheral/Source/gd32e23x_adc.c **** 
  63:Drivers/GD32E23x_standard_peripheral/Source/gd32e23x_adc.c **** /*!
  64:Drivers/GD32E23x_standard_peripheral/Source/gd32e23x_adc.c ****     \brief      disable ADC interface
  65:Drivers/GD32E23x_standard_peripheral/Source/gd32e23x_adc.c ****     \param[in]  none
  66:Drivers/GD32E23x_standard_peripheral/Source/gd32e23x_adc.c ****     \param[out] none
  67:Drivers/GD32E23x_standard_peripheral/Source/gd32e23x_adc.c ****     \retval     none
  68:Drivers/GD32E23x_standard_peripheral/Source/gd32e23x_adc.c **** */
  69:Drivers/GD32E23x_standard_peripheral/Source/gd32e23x_adc.c **** void adc_disable(void)
  70:Drivers/GD32E23x_standard_peripheral/Source/gd32e23x_adc.c **** {
  98              		.loc 1 70 1 is_stmt 1 view -0
  99              		.cfi_startproc
 100              		@ args = 0, pretend = 0, frame = 0
 101              		@ frame_needed = 0, uses_anonymous_args = 0
 102              		@ link register save eliminated.
  71:Drivers/GD32E23x_standard_peripheral/Source/gd32e23x_adc.c ****     ADC_CTL1 &= ~((uint32_t)ADC_CTL1_ADCON);
 103              		.loc 1 71 5 view .LVU12
 104              		.loc 1 71 14 is_stmt 0 view .LVU13
 105 0000 42F20843 		movw	r3, #9224
ARM GAS  /var/folders/rv/zq8s_02j1dj4vjvr1mm5zl2r0000gn/T//ccsprPZw.s 			page 4


 106 0004 C4F20103 		movt	r3, 16385
 107 0008 1A68     		ldr	r2, [r3]
 108 000a 0121     		movs	r1, #1
 109 000c 8A43     		bics	r2, r1
 110 000e 1A60     		str	r2, [r3]
  72:Drivers/GD32E23x_standard_peripheral/Source/gd32e23x_adc.c **** }
 111              		.loc 1 72 1 view .LVU14
 112              		@ sp needed
 113 0010 7047     		bx	lr
 114              		.cfi_endproc
 115              	.LFE68:
 117              		.section	.text.adc_calibration_enable,"ax",%progbits
 118              		.align	1
 119              		.global	adc_calibration_enable
 120              		.syntax unified
 121              		.code	16
 122              		.thumb_func
 123              		.fpu softvfp
 125              	adc_calibration_enable:
 126              	.LFB69:
  73:Drivers/GD32E23x_standard_peripheral/Source/gd32e23x_adc.c **** 
  74:Drivers/GD32E23x_standard_peripheral/Source/gd32e23x_adc.c **** /*!
  75:Drivers/GD32E23x_standard_peripheral/Source/gd32e23x_adc.c ****     \brief      ADC calibration and reset calibration
  76:Drivers/GD32E23x_standard_peripheral/Source/gd32e23x_adc.c ****     \param[in]  none
  77:Drivers/GD32E23x_standard_peripheral/Source/gd32e23x_adc.c ****     \param[out] none
  78:Drivers/GD32E23x_standard_peripheral/Source/gd32e23x_adc.c ****     \retval     none
  79:Drivers/GD32E23x_standard_peripheral/Source/gd32e23x_adc.c **** */
  80:Drivers/GD32E23x_standard_peripheral/Source/gd32e23x_adc.c **** void adc_calibration_enable(void)
  81:Drivers/GD32E23x_standard_peripheral/Source/gd32e23x_adc.c **** {
 127              		.loc 1 81 1 is_stmt 1 view -0
 128              		.cfi_startproc
 129              		@ args = 0, pretend = 0, frame = 0
 130              		@ frame_needed = 0, uses_anonymous_args = 0
 131              		@ link register save eliminated.
  82:Drivers/GD32E23x_standard_peripheral/Source/gd32e23x_adc.c ****     /* reset the selected ADC calibration register */
  83:Drivers/GD32E23x_standard_peripheral/Source/gd32e23x_adc.c ****     ADC_CTL1 |= (uint32_t) ADC_CTL1_RSTCLB;
 132              		.loc 1 83 5 view .LVU16
 133              		.loc 1 83 14 is_stmt 0 view .LVU17
 134 0000 42F20843 		movw	r3, #9224
 135 0004 C4F20103 		movt	r3, 16385
 136 0008 1A68     		ldr	r2, [r3]
 137 000a 0821     		movs	r1, #8
 138 000c 0A43     		orrs	r2, r1
 139 000e 1A60     		str	r2, [r3]
  84:Drivers/GD32E23x_standard_peripheral/Source/gd32e23x_adc.c ****     /* check the RSTCLB bit state */
  85:Drivers/GD32E23x_standard_peripheral/Source/gd32e23x_adc.c ****     while((ADC_CTL1 & ADC_CTL1_RSTCLB)){
 140              		.loc 1 85 5 is_stmt 1 view .LVU18
 141              	.L6:
  86:Drivers/GD32E23x_standard_peripheral/Source/gd32e23x_adc.c ****     }
 142              		.loc 1 86 5 discriminator 1 view .LVU19
  85:Drivers/GD32E23x_standard_peripheral/Source/gd32e23x_adc.c ****     }
 143              		.loc 1 85 10 discriminator 1 view .LVU20
  85:Drivers/GD32E23x_standard_peripheral/Source/gd32e23x_adc.c ****     }
 144              		.loc 1 85 12 is_stmt 0 discriminator 1 view .LVU21
 145 0010 42F20843 		movw	r3, #9224
 146 0014 C4F20103 		movt	r3, 16385
 147 0018 1B68     		ldr	r3, [r3]
ARM GAS  /var/folders/rv/zq8s_02j1dj4vjvr1mm5zl2r0000gn/T//ccsprPZw.s 			page 5


  85:Drivers/GD32E23x_standard_peripheral/Source/gd32e23x_adc.c ****     }
 148              		.loc 1 85 10 discriminator 1 view .LVU22
 149 001a 1B07     		lsls	r3, r3, #28
 150 001c F8D4     		bmi	.L6
  87:Drivers/GD32E23x_standard_peripheral/Source/gd32e23x_adc.c **** 
  88:Drivers/GD32E23x_standard_peripheral/Source/gd32e23x_adc.c ****     /* enable ADC calibration process */
  89:Drivers/GD32E23x_standard_peripheral/Source/gd32e23x_adc.c ****     ADC_CTL1 |= ADC_CTL1_CLB;
 151              		.loc 1 89 5 is_stmt 1 view .LVU23
 152              		.loc 1 89 14 is_stmt 0 view .LVU24
 153 001e 42F20843 		movw	r3, #9224
 154 0022 C4F20103 		movt	r3, 16385
 155 0026 1A68     		ldr	r2, [r3]
 156 0028 0421     		movs	r1, #4
 157 002a 0A43     		orrs	r2, r1
 158 002c 1A60     		str	r2, [r3]
  90:Drivers/GD32E23x_standard_peripheral/Source/gd32e23x_adc.c ****     /* check the CLB bit state */
  91:Drivers/GD32E23x_standard_peripheral/Source/gd32e23x_adc.c ****     while((ADC_CTL1 & ADC_CTL1_CLB)){
 159              		.loc 1 91 5 is_stmt 1 view .LVU25
 160              	.L7:
  92:Drivers/GD32E23x_standard_peripheral/Source/gd32e23x_adc.c ****     }
 161              		.loc 1 92 5 discriminator 1 view .LVU26
  91:Drivers/GD32E23x_standard_peripheral/Source/gd32e23x_adc.c ****     }
 162              		.loc 1 91 10 discriminator 1 view .LVU27
  91:Drivers/GD32E23x_standard_peripheral/Source/gd32e23x_adc.c ****     }
 163              		.loc 1 91 12 is_stmt 0 discriminator 1 view .LVU28
 164 002e 42F20843 		movw	r3, #9224
 165 0032 C4F20103 		movt	r3, 16385
 166 0036 1B68     		ldr	r3, [r3]
  91:Drivers/GD32E23x_standard_peripheral/Source/gd32e23x_adc.c ****     }
 167              		.loc 1 91 10 discriminator 1 view .LVU29
 168 0038 5B07     		lsls	r3, r3, #29
 169 003a F8D4     		bmi	.L7
  93:Drivers/GD32E23x_standard_peripheral/Source/gd32e23x_adc.c **** }
 170              		.loc 1 93 1 view .LVU30
 171              		@ sp needed
 172 003c 7047     		bx	lr
 173              		.cfi_endproc
 174              	.LFE69:
 176              		.section	.text.adc_dma_mode_enable,"ax",%progbits
 177              		.align	1
 178              		.global	adc_dma_mode_enable
 179              		.syntax unified
 180              		.code	16
 181              		.thumb_func
 182              		.fpu softvfp
 184              	adc_dma_mode_enable:
 185              	.LFB70:
  94:Drivers/GD32E23x_standard_peripheral/Source/gd32e23x_adc.c **** 
  95:Drivers/GD32E23x_standard_peripheral/Source/gd32e23x_adc.c **** /*!
  96:Drivers/GD32E23x_standard_peripheral/Source/gd32e23x_adc.c ****     \brief      enable DMA request 
  97:Drivers/GD32E23x_standard_peripheral/Source/gd32e23x_adc.c ****     \param[in]  none
  98:Drivers/GD32E23x_standard_peripheral/Source/gd32e23x_adc.c ****     \param[out] none
  99:Drivers/GD32E23x_standard_peripheral/Source/gd32e23x_adc.c ****     \retval     none
 100:Drivers/GD32E23x_standard_peripheral/Source/gd32e23x_adc.c **** */
 101:Drivers/GD32E23x_standard_peripheral/Source/gd32e23x_adc.c **** void adc_dma_mode_enable(void)
 102:Drivers/GD32E23x_standard_peripheral/Source/gd32e23x_adc.c **** {
 186              		.loc 1 102 1 is_stmt 1 view -0
ARM GAS  /var/folders/rv/zq8s_02j1dj4vjvr1mm5zl2r0000gn/T//ccsprPZw.s 			page 6


 187              		.cfi_startproc
 188              		@ args = 0, pretend = 0, frame = 0
 189              		@ frame_needed = 0, uses_anonymous_args = 0
 190              		@ link register save eliminated.
 103:Drivers/GD32E23x_standard_peripheral/Source/gd32e23x_adc.c ****     ADC_CTL1 |= (uint32_t)(ADC_CTL1_DMA);
 191              		.loc 1 103 5 view .LVU32
 192              		.loc 1 103 14 is_stmt 0 view .LVU33
 193 0000 42F20843 		movw	r3, #9224
 194 0004 C4F20103 		movt	r3, 16385
 195 0008 1A68     		ldr	r2, [r3]
 196 000a 40F20011 		movw	r1, #256
 197 000e 0A43     		orrs	r2, r1
 198 0010 1A60     		str	r2, [r3]
 104:Drivers/GD32E23x_standard_peripheral/Source/gd32e23x_adc.c **** }
 199              		.loc 1 104 1 view .LVU34
 200              		@ sp needed
 201 0012 7047     		bx	lr
 202              		.cfi_endproc
 203              	.LFE70:
 205              		.section	.text.adc_dma_mode_disable,"ax",%progbits
 206              		.align	1
 207              		.global	adc_dma_mode_disable
 208              		.syntax unified
 209              		.code	16
 210              		.thumb_func
 211              		.fpu softvfp
 213              	adc_dma_mode_disable:
 214              	.LFB71:
 105:Drivers/GD32E23x_standard_peripheral/Source/gd32e23x_adc.c **** 
 106:Drivers/GD32E23x_standard_peripheral/Source/gd32e23x_adc.c **** /*!
 107:Drivers/GD32E23x_standard_peripheral/Source/gd32e23x_adc.c ****     \brief      disable DMA request 
 108:Drivers/GD32E23x_standard_peripheral/Source/gd32e23x_adc.c ****     \param[in]  none
 109:Drivers/GD32E23x_standard_peripheral/Source/gd32e23x_adc.c ****     \param[out] none
 110:Drivers/GD32E23x_standard_peripheral/Source/gd32e23x_adc.c ****     \retval     none
 111:Drivers/GD32E23x_standard_peripheral/Source/gd32e23x_adc.c **** */
 112:Drivers/GD32E23x_standard_peripheral/Source/gd32e23x_adc.c **** void adc_dma_mode_disable(void)
 113:Drivers/GD32E23x_standard_peripheral/Source/gd32e23x_adc.c **** {
 215              		.loc 1 113 1 is_stmt 1 view -0
 216              		.cfi_startproc
 217              		@ args = 0, pretend = 0, frame = 0
 218              		@ frame_needed = 0, uses_anonymous_args = 0
 219              		@ link register save eliminated.
 114:Drivers/GD32E23x_standard_peripheral/Source/gd32e23x_adc.c ****     ADC_CTL1 &= ~((uint32_t)ADC_CTL1_DMA);
 220              		.loc 1 114 5 view .LVU36
 221              		.loc 1 114 14 is_stmt 0 view .LVU37
 222 0000 42F20843 		movw	r3, #9224
 223 0004 C4F20103 		movt	r3, 16385
 224 0008 1A68     		ldr	r2, [r3]
 225 000a 0249     		ldr	r1, .L10
 226 000c 0A40     		ands	r2, r1
 227 000e 1A60     		str	r2, [r3]
 115:Drivers/GD32E23x_standard_peripheral/Source/gd32e23x_adc.c **** }
 228              		.loc 1 115 1 view .LVU38
 229              		@ sp needed
 230 0010 7047     		bx	lr
 231              	.L11:
 232 0012 C046     		.align	2
ARM GAS  /var/folders/rv/zq8s_02j1dj4vjvr1mm5zl2r0000gn/T//ccsprPZw.s 			page 7


 233              	.L10:
 234 0014 FFFEFFFF 		.word	-257
 235              		.cfi_endproc
 236              	.LFE71:
 238              		.section	.text.adc_tempsensor_vrefint_enable,"ax",%progbits
 239              		.align	1
 240              		.global	adc_tempsensor_vrefint_enable
 241              		.syntax unified
 242              		.code	16
 243              		.thumb_func
 244              		.fpu softvfp
 246              	adc_tempsensor_vrefint_enable:
 247              	.LFB72:
 116:Drivers/GD32E23x_standard_peripheral/Source/gd32e23x_adc.c **** 
 117:Drivers/GD32E23x_standard_peripheral/Source/gd32e23x_adc.c **** /*!
 118:Drivers/GD32E23x_standard_peripheral/Source/gd32e23x_adc.c ****     \brief      enable the temperature sensor and Vrefint channel
 119:Drivers/GD32E23x_standard_peripheral/Source/gd32e23x_adc.c ****     \param[in]  none
 120:Drivers/GD32E23x_standard_peripheral/Source/gd32e23x_adc.c ****     \param[out] none
 121:Drivers/GD32E23x_standard_peripheral/Source/gd32e23x_adc.c ****     \retval     none
 122:Drivers/GD32E23x_standard_peripheral/Source/gd32e23x_adc.c **** */
 123:Drivers/GD32E23x_standard_peripheral/Source/gd32e23x_adc.c **** void adc_tempsensor_vrefint_enable(void)
 124:Drivers/GD32E23x_standard_peripheral/Source/gd32e23x_adc.c **** {
 248              		.loc 1 124 1 is_stmt 1 view -0
 249              		.cfi_startproc
 250              		@ args = 0, pretend = 0, frame = 0
 251              		@ frame_needed = 0, uses_anonymous_args = 0
 252              		@ link register save eliminated.
 125:Drivers/GD32E23x_standard_peripheral/Source/gd32e23x_adc.c ****     /* enable the temperature sensor and Vrefint channel */
 126:Drivers/GD32E23x_standard_peripheral/Source/gd32e23x_adc.c ****     ADC_CTL1 |= ADC_CTL1_TSVREN;
 253              		.loc 1 126 5 view .LVU40
 254              		.loc 1 126 14 is_stmt 0 view .LVU41
 255 0000 42F20843 		movw	r3, #9224
 256 0004 C4F20103 		movt	r3, 16385
 257 0008 1968     		ldr	r1, [r3]
 258 000a 8022     		movs	r2, #128
 259 000c 1204     		lsls	r2, r2, #16
 260 000e 0A43     		orrs	r2, r1
 261 0010 1A60     		str	r2, [r3]
 127:Drivers/GD32E23x_standard_peripheral/Source/gd32e23x_adc.c **** }
 262              		.loc 1 127 1 view .LVU42
 263              		@ sp needed
 264 0012 7047     		bx	lr
 265              		.cfi_endproc
 266              	.LFE72:
 268              		.section	.text.adc_tempsensor_vrefint_disable,"ax",%progbits
 269              		.align	1
 270              		.global	adc_tempsensor_vrefint_disable
 271              		.syntax unified
 272              		.code	16
 273              		.thumb_func
 274              		.fpu softvfp
 276              	adc_tempsensor_vrefint_disable:
 277              	.LFB73:
 128:Drivers/GD32E23x_standard_peripheral/Source/gd32e23x_adc.c **** 
 129:Drivers/GD32E23x_standard_peripheral/Source/gd32e23x_adc.c **** /*!
 130:Drivers/GD32E23x_standard_peripheral/Source/gd32e23x_adc.c ****     \brief      disable the temperature sensor and Vrefint channel
 131:Drivers/GD32E23x_standard_peripheral/Source/gd32e23x_adc.c ****     \param[in]  none
ARM GAS  /var/folders/rv/zq8s_02j1dj4vjvr1mm5zl2r0000gn/T//ccsprPZw.s 			page 8


 132:Drivers/GD32E23x_standard_peripheral/Source/gd32e23x_adc.c ****     \param[out] none
 133:Drivers/GD32E23x_standard_peripheral/Source/gd32e23x_adc.c ****     \retval     none
 134:Drivers/GD32E23x_standard_peripheral/Source/gd32e23x_adc.c **** */
 135:Drivers/GD32E23x_standard_peripheral/Source/gd32e23x_adc.c **** void adc_tempsensor_vrefint_disable(void)
 136:Drivers/GD32E23x_standard_peripheral/Source/gd32e23x_adc.c **** {
 278              		.loc 1 136 1 is_stmt 1 view -0
 279              		.cfi_startproc
 280              		@ args = 0, pretend = 0, frame = 0
 281              		@ frame_needed = 0, uses_anonymous_args = 0
 282              		@ link register save eliminated.
 137:Drivers/GD32E23x_standard_peripheral/Source/gd32e23x_adc.c ****     /* disable the temperature sensor and Vrefint channel */
 138:Drivers/GD32E23x_standard_peripheral/Source/gd32e23x_adc.c ****     ADC_CTL1 &= ~ADC_CTL1_TSVREN;
 283              		.loc 1 138 5 view .LVU44
 284              		.loc 1 138 14 is_stmt 0 view .LVU45
 285 0000 42F20843 		movw	r3, #9224
 286 0004 C4F20103 		movt	r3, 16385
 287 0008 1A68     		ldr	r2, [r3]
 288 000a 0249     		ldr	r1, .L14
 289 000c 0A40     		ands	r2, r1
 290 000e 1A60     		str	r2, [r3]
 139:Drivers/GD32E23x_standard_peripheral/Source/gd32e23x_adc.c **** }
 291              		.loc 1 139 1 view .LVU46
 292              		@ sp needed
 293 0010 7047     		bx	lr
 294              	.L15:
 295 0012 C046     		.align	2
 296              	.L14:
 297 0014 FFFF7FFF 		.word	-8388609
 298              		.cfi_endproc
 299              	.LFE73:
 301              		.section	.text.adc_discontinuous_mode_config,"ax",%progbits
 302              		.align	1
 303              		.global	adc_discontinuous_mode_config
 304              		.syntax unified
 305              		.code	16
 306              		.thumb_func
 307              		.fpu softvfp
 309              	adc_discontinuous_mode_config:
 310              	.LVL2:
 311              	.LFB74:
 140:Drivers/GD32E23x_standard_peripheral/Source/gd32e23x_adc.c **** 
 141:Drivers/GD32E23x_standard_peripheral/Source/gd32e23x_adc.c **** /*!
 142:Drivers/GD32E23x_standard_peripheral/Source/gd32e23x_adc.c ****     \brief      configure ADC discontinuous mode 
 143:Drivers/GD32E23x_standard_peripheral/Source/gd32e23x_adc.c ****     \param[in]  channel_group: select the channel group
 144:Drivers/GD32E23x_standard_peripheral/Source/gd32e23x_adc.c ****                 only one parameter can be selected which is shown as below:
 145:Drivers/GD32E23x_standard_peripheral/Source/gd32e23x_adc.c ****       \arg        ADC_REGULAR_CHANNEL: regular channel group
 146:Drivers/GD32E23x_standard_peripheral/Source/gd32e23x_adc.c ****       \arg        ADC_INSERTED_CHANNEL: inserted channel group
 147:Drivers/GD32E23x_standard_peripheral/Source/gd32e23x_adc.c ****       \arg        ADC_CHANNEL_DISCON_DISABLE: disable discontinuous mode of regular and inserted ch
 148:Drivers/GD32E23x_standard_peripheral/Source/gd32e23x_adc.c ****     \param[in]  length: number of conversions in discontinuous mode, the number can be 1..8
 149:Drivers/GD32E23x_standard_peripheral/Source/gd32e23x_adc.c ****                         for regular channel, the number has no effect for inserted channel
 150:Drivers/GD32E23x_standard_peripheral/Source/gd32e23x_adc.c ****     \param[out] none
 151:Drivers/GD32E23x_standard_peripheral/Source/gd32e23x_adc.c ****     \retval     none
 152:Drivers/GD32E23x_standard_peripheral/Source/gd32e23x_adc.c **** */
 153:Drivers/GD32E23x_standard_peripheral/Source/gd32e23x_adc.c **** void adc_discontinuous_mode_config(uint8_t channel_group, uint8_t length)
 154:Drivers/GD32E23x_standard_peripheral/Source/gd32e23x_adc.c **** {
 312              		.loc 1 154 1 is_stmt 1 view -0
 313              		.cfi_startproc
ARM GAS  /var/folders/rv/zq8s_02j1dj4vjvr1mm5zl2r0000gn/T//ccsprPZw.s 			page 9


 314              		@ args = 0, pretend = 0, frame = 0
 315              		@ frame_needed = 0, uses_anonymous_args = 0
 316              		.loc 1 154 1 is_stmt 0 view .LVU48
 317 0000 10B5     		push	{r4, lr}
 318              	.LCFI1:
 319              		.cfi_def_cfa_offset 8
 320              		.cfi_offset 4, -8
 321              		.cfi_offset 14, -4
 155:Drivers/GD32E23x_standard_peripheral/Source/gd32e23x_adc.c ****     ADC_CTL0 &= ~((uint32_t)(ADC_CTL0_DISRC | ADC_CTL0_DISIC));
 322              		.loc 1 155 5 is_stmt 1 view .LVU49
 323              		.loc 1 155 14 is_stmt 0 view .LVU50
 324 0002 42F20443 		movw	r3, #9220
 325 0006 C4F20103 		movt	r3, 16385
 326 000a 1A68     		ldr	r2, [r3]
 327 000c 134C     		ldr	r4, .L20
 328 000e 2240     		ands	r2, r4
 329 0010 1A60     		str	r2, [r3]
 156:Drivers/GD32E23x_standard_peripheral/Source/gd32e23x_adc.c ****     
 157:Drivers/GD32E23x_standard_peripheral/Source/gd32e23x_adc.c ****     switch(channel_group){
 330              		.loc 1 157 5 is_stmt 1 view .LVU51
 331 0012 0128     		cmp	r0, #1
 332 0014 02D0     		beq	.L17
 333 0016 0228     		cmp	r0, #2
 334 0018 16D0     		beq	.L18
 335              	.LVL3:
 336              	.L16:
 158:Drivers/GD32E23x_standard_peripheral/Source/gd32e23x_adc.c ****     case ADC_REGULAR_CHANNEL:
 159:Drivers/GD32E23x_standard_peripheral/Source/gd32e23x_adc.c ****         /* configure the number of conversions in discontinuous mode */
 160:Drivers/GD32E23x_standard_peripheral/Source/gd32e23x_adc.c ****         ADC_CTL0 &= ~((uint32_t)ADC_CTL0_DISNUM);
 161:Drivers/GD32E23x_standard_peripheral/Source/gd32e23x_adc.c ****         ADC_CTL0 |= CTL0_DISNUM(((uint32_t)length - 1U));
 162:Drivers/GD32E23x_standard_peripheral/Source/gd32e23x_adc.c ****         ADC_CTL0 |= (uint32_t)ADC_CTL0_DISRC;
 163:Drivers/GD32E23x_standard_peripheral/Source/gd32e23x_adc.c ****         break;
 164:Drivers/GD32E23x_standard_peripheral/Source/gd32e23x_adc.c ****     case ADC_INSERTED_CHANNEL:
 165:Drivers/GD32E23x_standard_peripheral/Source/gd32e23x_adc.c ****         ADC_CTL0 |= (uint32_t)ADC_CTL0_DISIC;
 166:Drivers/GD32E23x_standard_peripheral/Source/gd32e23x_adc.c ****         break;
 167:Drivers/GD32E23x_standard_peripheral/Source/gd32e23x_adc.c ****     case ADC_CHANNEL_DISCON_DISABLE:
 168:Drivers/GD32E23x_standard_peripheral/Source/gd32e23x_adc.c ****     default:
 169:Drivers/GD32E23x_standard_peripheral/Source/gd32e23x_adc.c ****         break;
 170:Drivers/GD32E23x_standard_peripheral/Source/gd32e23x_adc.c ****     }
 171:Drivers/GD32E23x_standard_peripheral/Source/gd32e23x_adc.c **** }
 337              		.loc 1 171 1 is_stmt 0 view .LVU52
 338              		@ sp needed
 339 001a 10BD     		pop	{r4, pc}
 340              	.LVL4:
 341              	.L17:
 160:Drivers/GD32E23x_standard_peripheral/Source/gd32e23x_adc.c ****         ADC_CTL0 |= CTL0_DISNUM(((uint32_t)length - 1U));
 342              		.loc 1 160 9 is_stmt 1 view .LVU53
 160:Drivers/GD32E23x_standard_peripheral/Source/gd32e23x_adc.c ****         ADC_CTL0 |= CTL0_DISNUM(((uint32_t)length - 1U));
 343              		.loc 1 160 18 is_stmt 0 view .LVU54
 344 001c 42F20443 		movw	r3, #9220
 345 0020 C4F20103 		movt	r3, 16385
 346 0024 1A68     		ldr	r2, [r3]
 347 0026 0E48     		ldr	r0, .L20+4
 348              	.LVL5:
 160:Drivers/GD32E23x_standard_peripheral/Source/gd32e23x_adc.c ****         ADC_CTL0 |= CTL0_DISNUM(((uint32_t)length - 1U));
 349              		.loc 1 160 18 view .LVU55
 350 0028 0240     		ands	r2, r0
ARM GAS  /var/folders/rv/zq8s_02j1dj4vjvr1mm5zl2r0000gn/T//ccsprPZw.s 			page 10


 351 002a 1A60     		str	r2, [r3]
 161:Drivers/GD32E23x_standard_peripheral/Source/gd32e23x_adc.c ****         ADC_CTL0 |= (uint32_t)ADC_CTL0_DISRC;
 352              		.loc 1 161 9 is_stmt 1 view .LVU56
 161:Drivers/GD32E23x_standard_peripheral/Source/gd32e23x_adc.c ****         ADC_CTL0 |= (uint32_t)ADC_CTL0_DISRC;
 353              		.loc 1 161 18 is_stmt 0 view .LVU57
 354 002c 1A68     		ldr	r2, [r3]
 161:Drivers/GD32E23x_standard_peripheral/Source/gd32e23x_adc.c ****         ADC_CTL0 |= (uint32_t)ADC_CTL0_DISRC;
 355              		.loc 1 161 21 view .LVU58
 356 002e 0139     		subs	r1, r1, #1
 357              	.LVL6:
 161:Drivers/GD32E23x_standard_peripheral/Source/gd32e23x_adc.c ****         ADC_CTL0 |= (uint32_t)ADC_CTL0_DISRC;
 358              		.loc 1 161 21 view .LVU59
 359 0030 4903     		lsls	r1, r1, #13
 360 0032 4FF6FF70 		movw	r0, #65535
 361 0036 0140     		ands	r1, r0
 161:Drivers/GD32E23x_standard_peripheral/Source/gd32e23x_adc.c ****         ADC_CTL0 |= (uint32_t)ADC_CTL0_DISRC;
 362              		.loc 1 161 18 view .LVU60
 363 0038 1143     		orrs	r1, r2
 364 003a 1960     		str	r1, [r3]
 162:Drivers/GD32E23x_standard_peripheral/Source/gd32e23x_adc.c ****         break;
 365              		.loc 1 162 9 is_stmt 1 view .LVU61
 162:Drivers/GD32E23x_standard_peripheral/Source/gd32e23x_adc.c ****         break;
 366              		.loc 1 162 18 is_stmt 0 view .LVU62
 367 003c 1A68     		ldr	r2, [r3]
 368 003e 40F60001 		movw	r1, #2048
 369 0042 0A43     		orrs	r2, r1
 370 0044 1A60     		str	r2, [r3]
 163:Drivers/GD32E23x_standard_peripheral/Source/gd32e23x_adc.c ****     case ADC_INSERTED_CHANNEL:
 371              		.loc 1 163 9 is_stmt 1 view .LVU63
 372 0046 E8E7     		b	.L16
 373              	.LVL7:
 374              	.L18:
 165:Drivers/GD32E23x_standard_peripheral/Source/gd32e23x_adc.c ****         break;
 375              		.loc 1 165 9 view .LVU64
 165:Drivers/GD32E23x_standard_peripheral/Source/gd32e23x_adc.c ****         break;
 376              		.loc 1 165 18 is_stmt 0 view .LVU65
 377 0048 42F20443 		movw	r3, #9220
 378 004c C4F20103 		movt	r3, 16385
 379 0050 1A68     		ldr	r2, [r3]
 380 0052 41F20001 		movw	r1, #4096
 381              	.LVL8:
 165:Drivers/GD32E23x_standard_peripheral/Source/gd32e23x_adc.c ****         break;
 382              		.loc 1 165 18 view .LVU66
 383 0056 0A43     		orrs	r2, r1
 384 0058 1A60     		str	r2, [r3]
 166:Drivers/GD32E23x_standard_peripheral/Source/gd32e23x_adc.c ****     case ADC_CHANNEL_DISCON_DISABLE:
 385              		.loc 1 166 9 is_stmt 1 view .LVU67
 386              		.loc 1 171 1 is_stmt 0 view .LVU68
 387 005a DEE7     		b	.L16
 388              	.L21:
 389              		.align	2
 390              	.L20:
 391 005c FFE7FFFF 		.word	-6145
 392 0060 FF1FFFFF 		.word	-57345
 393              		.cfi_endproc
 394              	.LFE74:
 396              		.section	.text.adc_special_function_config,"ax",%progbits
ARM GAS  /var/folders/rv/zq8s_02j1dj4vjvr1mm5zl2r0000gn/T//ccsprPZw.s 			page 11


 397              		.align	1
 398              		.global	adc_special_function_config
 399              		.syntax unified
 400              		.code	16
 401              		.thumb_func
 402              		.fpu softvfp
 404              	adc_special_function_config:
 405              	.LVL9:
 406              	.LFB75:
 172:Drivers/GD32E23x_standard_peripheral/Source/gd32e23x_adc.c **** 
 173:Drivers/GD32E23x_standard_peripheral/Source/gd32e23x_adc.c **** /*!
 174:Drivers/GD32E23x_standard_peripheral/Source/gd32e23x_adc.c ****     \brief      configure ADC special function
 175:Drivers/GD32E23x_standard_peripheral/Source/gd32e23x_adc.c ****     \param[in]  function: the function to configure
 176:Drivers/GD32E23x_standard_peripheral/Source/gd32e23x_adc.c ****                 one or more parameters can be selected which is shown as below:
 177:Drivers/GD32E23x_standard_peripheral/Source/gd32e23x_adc.c ****       \arg        ADC_SCAN_MODE: scan mode select
 178:Drivers/GD32E23x_standard_peripheral/Source/gd32e23x_adc.c ****       \arg        ADC_INSERTED_CHANNEL_AUTO: inserted channel group convert automatically
 179:Drivers/GD32E23x_standard_peripheral/Source/gd32e23x_adc.c ****       \arg        ADC_CONTINUOUS_MODE: continuous mode select
 180:Drivers/GD32E23x_standard_peripheral/Source/gd32e23x_adc.c ****     \param[in]  newvalue: ENABLE or DISABLE
 181:Drivers/GD32E23x_standard_peripheral/Source/gd32e23x_adc.c ****     \param[out] none
 182:Drivers/GD32E23x_standard_peripheral/Source/gd32e23x_adc.c ****     \retval     none
 183:Drivers/GD32E23x_standard_peripheral/Source/gd32e23x_adc.c **** */
 184:Drivers/GD32E23x_standard_peripheral/Source/gd32e23x_adc.c **** void adc_special_function_config(uint32_t function, ControlStatus newvalue)
 185:Drivers/GD32E23x_standard_peripheral/Source/gd32e23x_adc.c **** {
 407              		.loc 1 185 1 is_stmt 1 view -0
 408              		.cfi_startproc
 409              		@ args = 0, pretend = 0, frame = 0
 410              		@ frame_needed = 0, uses_anonymous_args = 0
 411              		@ link register save eliminated.
 186:Drivers/GD32E23x_standard_peripheral/Source/gd32e23x_adc.c ****     if(newvalue){
 412              		.loc 1 186 5 view .LVU70
 413              		.loc 1 186 7 is_stmt 0 view .LVU71
 414 0000 01B3     		cbz	r1, .L23
 187:Drivers/GD32E23x_standard_peripheral/Source/gd32e23x_adc.c ****         /* enable ADC scan mode */
 188:Drivers/GD32E23x_standard_peripheral/Source/gd32e23x_adc.c ****         if(RESET != (function & ADC_SCAN_MODE)){
 415              		.loc 1 188 9 is_stmt 1 view .LVU72
 416              		.loc 1 188 11 is_stmt 0 view .LVU73
 417 0002 C305     		lsls	r3, r0, #23
 418 0004 08D5     		bpl	.L24
 189:Drivers/GD32E23x_standard_peripheral/Source/gd32e23x_adc.c ****             ADC_CTL0 |= ADC_SCAN_MODE;
 419              		.loc 1 189 13 is_stmt 1 view .LVU74
 420              		.loc 1 189 22 is_stmt 0 view .LVU75
 421 0006 42F20443 		movw	r3, #9220
 422 000a C4F20103 		movt	r3, 16385
 423 000e 1A68     		ldr	r2, [r3]
 424 0010 40F20011 		movw	r1, #256
 425              	.LVL10:
 426              		.loc 1 189 22 view .LVU76
 427 0014 0A43     		orrs	r2, r1
 428 0016 1A60     		str	r2, [r3]
 429              	.L24:
 190:Drivers/GD32E23x_standard_peripheral/Source/gd32e23x_adc.c ****         }
 191:Drivers/GD32E23x_standard_peripheral/Source/gd32e23x_adc.c ****         /* enable ADC inserted channel group convert automatically */
 192:Drivers/GD32E23x_standard_peripheral/Source/gd32e23x_adc.c ****         if(RESET != (function & ADC_INSERTED_CHANNEL_AUTO)){
 430              		.loc 1 192 9 is_stmt 1 view .LVU77
 431              		.loc 1 192 11 is_stmt 0 view .LVU78
 432 0018 4305     		lsls	r3, r0, #21
 433 001a 08D5     		bpl	.L25
ARM GAS  /var/folders/rv/zq8s_02j1dj4vjvr1mm5zl2r0000gn/T//ccsprPZw.s 			page 12


 193:Drivers/GD32E23x_standard_peripheral/Source/gd32e23x_adc.c ****             ADC_CTL0 |= ADC_INSERTED_CHANNEL_AUTO;
 434              		.loc 1 193 13 is_stmt 1 view .LVU79
 435              		.loc 1 193 22 is_stmt 0 view .LVU80
 436 001c 42F20443 		movw	r3, #9220
 437 0020 C4F20103 		movt	r3, 16385
 438 0024 1A68     		ldr	r2, [r3]
 439 0026 40F20041 		movw	r1, #1024
 440 002a 0A43     		orrs	r2, r1
 441 002c 1A60     		str	r2, [r3]
 442              	.L25:
 194:Drivers/GD32E23x_standard_peripheral/Source/gd32e23x_adc.c ****         }
 195:Drivers/GD32E23x_standard_peripheral/Source/gd32e23x_adc.c ****         /* enable ADC continuous mode */
 196:Drivers/GD32E23x_standard_peripheral/Source/gd32e23x_adc.c ****         if(RESET != (function & ADC_CONTINUOUS_MODE)){
 443              		.loc 1 196 9 is_stmt 1 view .LVU81
 444              		.loc 1 196 11 is_stmt 0 view .LVU82
 445 002e 8307     		lsls	r3, r0, #30
 446 0030 07D5     		bpl	.L22
 197:Drivers/GD32E23x_standard_peripheral/Source/gd32e23x_adc.c ****             ADC_CTL1 |= ADC_CONTINUOUS_MODE;
 447              		.loc 1 197 13 is_stmt 1 view .LVU83
 448              		.loc 1 197 22 is_stmt 0 view .LVU84
 449 0032 42F20843 		movw	r3, #9224
 450 0036 C4F20103 		movt	r3, 16385
 451 003a 1A68     		ldr	r2, [r3]
 452 003c 0221     		movs	r1, #2
 453 003e 0A43     		orrs	r2, r1
 454 0040 1A60     		str	r2, [r3]
 455              	.L22:
 198:Drivers/GD32E23x_standard_peripheral/Source/gd32e23x_adc.c ****         }
 199:Drivers/GD32E23x_standard_peripheral/Source/gd32e23x_adc.c ****     }else{
 200:Drivers/GD32E23x_standard_peripheral/Source/gd32e23x_adc.c ****         /* disable ADC scan mode */
 201:Drivers/GD32E23x_standard_peripheral/Source/gd32e23x_adc.c ****         if(RESET != (function & ADC_SCAN_MODE)){
 202:Drivers/GD32E23x_standard_peripheral/Source/gd32e23x_adc.c ****             ADC_CTL0 &= ~ADC_SCAN_MODE;
 203:Drivers/GD32E23x_standard_peripheral/Source/gd32e23x_adc.c ****         }
 204:Drivers/GD32E23x_standard_peripheral/Source/gd32e23x_adc.c ****         /* disable ADC inserted channel group convert automatically */
 205:Drivers/GD32E23x_standard_peripheral/Source/gd32e23x_adc.c ****         if(RESET != (function & ADC_INSERTED_CHANNEL_AUTO)){
 206:Drivers/GD32E23x_standard_peripheral/Source/gd32e23x_adc.c ****             ADC_CTL0 &= ~ADC_INSERTED_CHANNEL_AUTO;
 207:Drivers/GD32E23x_standard_peripheral/Source/gd32e23x_adc.c ****         }
 208:Drivers/GD32E23x_standard_peripheral/Source/gd32e23x_adc.c ****         /* disable ADC continuous mode */
 209:Drivers/GD32E23x_standard_peripheral/Source/gd32e23x_adc.c ****         if(RESET != (function & ADC_CONTINUOUS_MODE)){
 210:Drivers/GD32E23x_standard_peripheral/Source/gd32e23x_adc.c ****             ADC_CTL1 &= ~ADC_CONTINUOUS_MODE;
 211:Drivers/GD32E23x_standard_peripheral/Source/gd32e23x_adc.c ****         }
 212:Drivers/GD32E23x_standard_peripheral/Source/gd32e23x_adc.c ****     }
 213:Drivers/GD32E23x_standard_peripheral/Source/gd32e23x_adc.c **** }
 456              		.loc 1 213 1 view .LVU85
 457              		@ sp needed
 458 0042 7047     		bx	lr
 459              	.LVL11:
 460              	.L23:
 201:Drivers/GD32E23x_standard_peripheral/Source/gd32e23x_adc.c ****             ADC_CTL0 &= ~ADC_SCAN_MODE;
 461              		.loc 1 201 9 is_stmt 1 view .LVU86
 201:Drivers/GD32E23x_standard_peripheral/Source/gd32e23x_adc.c ****             ADC_CTL0 &= ~ADC_SCAN_MODE;
 462              		.loc 1 201 11 is_stmt 0 view .LVU87
 463 0044 C305     		lsls	r3, r0, #23
 464 0046 07D5     		bpl	.L27
 202:Drivers/GD32E23x_standard_peripheral/Source/gd32e23x_adc.c ****         }
 465              		.loc 1 202 13 is_stmt 1 view .LVU88
 202:Drivers/GD32E23x_standard_peripheral/Source/gd32e23x_adc.c ****         }
ARM GAS  /var/folders/rv/zq8s_02j1dj4vjvr1mm5zl2r0000gn/T//ccsprPZw.s 			page 13


 466              		.loc 1 202 22 is_stmt 0 view .LVU89
 467 0048 42F20443 		movw	r3, #9220
 468 004c C4F20103 		movt	r3, 16385
 469 0050 1A68     		ldr	r2, [r3]
 470 0052 0C49     		ldr	r1, .L29
 471              	.LVL12:
 202:Drivers/GD32E23x_standard_peripheral/Source/gd32e23x_adc.c ****         }
 472              		.loc 1 202 22 view .LVU90
 473 0054 0A40     		ands	r2, r1
 474 0056 1A60     		str	r2, [r3]
 475              	.L27:
 205:Drivers/GD32E23x_standard_peripheral/Source/gd32e23x_adc.c ****             ADC_CTL0 &= ~ADC_INSERTED_CHANNEL_AUTO;
 476              		.loc 1 205 9 is_stmt 1 view .LVU91
 205:Drivers/GD32E23x_standard_peripheral/Source/gd32e23x_adc.c ****             ADC_CTL0 &= ~ADC_INSERTED_CHANNEL_AUTO;
 477              		.loc 1 205 11 is_stmt 0 view .LVU92
 478 0058 4305     		lsls	r3, r0, #21
 479 005a 07D5     		bpl	.L28
 206:Drivers/GD32E23x_standard_peripheral/Source/gd32e23x_adc.c ****         }
 480              		.loc 1 206 13 is_stmt 1 view .LVU93
 206:Drivers/GD32E23x_standard_peripheral/Source/gd32e23x_adc.c ****         }
 481              		.loc 1 206 22 is_stmt 0 view .LVU94
 482 005c 42F20443 		movw	r3, #9220
 483 0060 C4F20103 		movt	r3, 16385
 484 0064 1A68     		ldr	r2, [r3]
 485 0066 0849     		ldr	r1, .L29+4
 486 0068 0A40     		ands	r2, r1
 487 006a 1A60     		str	r2, [r3]
 488              	.L28:
 209:Drivers/GD32E23x_standard_peripheral/Source/gd32e23x_adc.c ****             ADC_CTL1 &= ~ADC_CONTINUOUS_MODE;
 489              		.loc 1 209 9 is_stmt 1 view .LVU95
 209:Drivers/GD32E23x_standard_peripheral/Source/gd32e23x_adc.c ****             ADC_CTL1 &= ~ADC_CONTINUOUS_MODE;
 490              		.loc 1 209 11 is_stmt 0 view .LVU96
 491 006c 8307     		lsls	r3, r0, #30
 492 006e E8D5     		bpl	.L22
 210:Drivers/GD32E23x_standard_peripheral/Source/gd32e23x_adc.c ****         }
 493              		.loc 1 210 13 is_stmt 1 view .LVU97
 210:Drivers/GD32E23x_standard_peripheral/Source/gd32e23x_adc.c ****         }
 494              		.loc 1 210 22 is_stmt 0 view .LVU98
 495 0070 42F20843 		movw	r3, #9224
 496 0074 C4F20103 		movt	r3, 16385
 497 0078 1A68     		ldr	r2, [r3]
 498 007a 0221     		movs	r1, #2
 499 007c 8A43     		bics	r2, r1
 500 007e 1A60     		str	r2, [r3]
 501              		.loc 1 213 1 view .LVU99
 502 0080 DFE7     		b	.L22
 503              	.L30:
 504 0082 C046     		.align	2
 505              	.L29:
 506 0084 FFFEFFFF 		.word	-257
 507 0088 FFFBFFFF 		.word	-1025
 508              		.cfi_endproc
 509              	.LFE75:
 511              		.section	.text.adc_data_alignment_config,"ax",%progbits
 512              		.align	1
 513              		.global	adc_data_alignment_config
 514              		.syntax unified
ARM GAS  /var/folders/rv/zq8s_02j1dj4vjvr1mm5zl2r0000gn/T//ccsprPZw.s 			page 14


 515              		.code	16
 516              		.thumb_func
 517              		.fpu softvfp
 519              	adc_data_alignment_config:
 520              	.LVL13:
 521              	.LFB76:
 214:Drivers/GD32E23x_standard_peripheral/Source/gd32e23x_adc.c **** 
 215:Drivers/GD32E23x_standard_peripheral/Source/gd32e23x_adc.c **** /*!
 216:Drivers/GD32E23x_standard_peripheral/Source/gd32e23x_adc.c ****     \brief      configure ADC data alignment 
 217:Drivers/GD32E23x_standard_peripheral/Source/gd32e23x_adc.c ****     \param[in]  data_alignment: data alignment select
 218:Drivers/GD32E23x_standard_peripheral/Source/gd32e23x_adc.c ****                 only one parameter can be selected which is shown as below:
 219:Drivers/GD32E23x_standard_peripheral/Source/gd32e23x_adc.c ****       \arg        ADC_DATAALIGN_RIGHT: right alignment
 220:Drivers/GD32E23x_standard_peripheral/Source/gd32e23x_adc.c ****       \arg        ADC_DATAALIGN_LEFT: left alignment
 221:Drivers/GD32E23x_standard_peripheral/Source/gd32e23x_adc.c ****     \param[out] none
 222:Drivers/GD32E23x_standard_peripheral/Source/gd32e23x_adc.c ****     \retval     none
 223:Drivers/GD32E23x_standard_peripheral/Source/gd32e23x_adc.c **** */
 224:Drivers/GD32E23x_standard_peripheral/Source/gd32e23x_adc.c **** void adc_data_alignment_config(uint32_t data_alignment)
 225:Drivers/GD32E23x_standard_peripheral/Source/gd32e23x_adc.c **** {
 522              		.loc 1 225 1 is_stmt 1 view -0
 523              		.cfi_startproc
 524              		@ args = 0, pretend = 0, frame = 0
 525              		@ frame_needed = 0, uses_anonymous_args = 0
 526              		@ link register save eliminated.
 226:Drivers/GD32E23x_standard_peripheral/Source/gd32e23x_adc.c ****     if(ADC_DATAALIGN_RIGHT != data_alignment){
 527              		.loc 1 226 5 view .LVU101
 528              		.loc 1 226 7 is_stmt 0 view .LVU102
 529 0000 48B1     		cbz	r0, .L32
 227:Drivers/GD32E23x_standard_peripheral/Source/gd32e23x_adc.c ****         ADC_CTL1 |= ADC_CTL1_DAL;
 530              		.loc 1 227 9 is_stmt 1 view .LVU103
 531              		.loc 1 227 18 is_stmt 0 view .LVU104
 532 0002 42F20843 		movw	r3, #9224
 533 0006 C4F20103 		movt	r3, 16385
 534 000a 1A68     		ldr	r2, [r3]
 535 000c 40F60001 		movw	r1, #2048
 536 0010 0A43     		orrs	r2, r1
 537 0012 1A60     		str	r2, [r3]
 538              	.L31:
 228:Drivers/GD32E23x_standard_peripheral/Source/gd32e23x_adc.c ****     }else{
 229:Drivers/GD32E23x_standard_peripheral/Source/gd32e23x_adc.c ****         ADC_CTL1 &= ~((uint32_t)ADC_CTL1_DAL);
 230:Drivers/GD32E23x_standard_peripheral/Source/gd32e23x_adc.c ****     }
 231:Drivers/GD32E23x_standard_peripheral/Source/gd32e23x_adc.c **** }
 539              		.loc 1 231 1 view .LVU105
 540              		@ sp needed
 541 0014 7047     		bx	lr
 542              	.L32:
 229:Drivers/GD32E23x_standard_peripheral/Source/gd32e23x_adc.c ****     }
 543              		.loc 1 229 9 is_stmt 1 view .LVU106
 229:Drivers/GD32E23x_standard_peripheral/Source/gd32e23x_adc.c ****     }
 544              		.loc 1 229 18 is_stmt 0 view .LVU107
 545 0016 42F20843 		movw	r3, #9224
 546 001a C4F20103 		movt	r3, 16385
 547 001e 1A68     		ldr	r2, [r3]
 548 0020 0149     		ldr	r1, .L34
 549 0022 0A40     		ands	r2, r1
 550 0024 1A60     		str	r2, [r3]
 551              		.loc 1 231 1 view .LVU108
 552 0026 F5E7     		b	.L31
ARM GAS  /var/folders/rv/zq8s_02j1dj4vjvr1mm5zl2r0000gn/T//ccsprPZw.s 			page 15


 553              	.L35:
 554              		.align	2
 555              	.L34:
 556 0028 FFF7FFFF 		.word	-2049
 557              		.cfi_endproc
 558              	.LFE76:
 560              		.section	.text.adc_channel_length_config,"ax",%progbits
 561              		.align	1
 562              		.global	adc_channel_length_config
 563              		.syntax unified
 564              		.code	16
 565              		.thumb_func
 566              		.fpu softvfp
 568              	adc_channel_length_config:
 569              	.LVL14:
 570              	.LFB77:
 232:Drivers/GD32E23x_standard_peripheral/Source/gd32e23x_adc.c **** 
 233:Drivers/GD32E23x_standard_peripheral/Source/gd32e23x_adc.c **** /*!
 234:Drivers/GD32E23x_standard_peripheral/Source/gd32e23x_adc.c ****     \brief      configure the length of regular channel group or inserted channel group
 235:Drivers/GD32E23x_standard_peripheral/Source/gd32e23x_adc.c ****     \param[in]  channel_group: select the channel group
 236:Drivers/GD32E23x_standard_peripheral/Source/gd32e23x_adc.c ****                 only one parameter can be selected which is shown as below:
 237:Drivers/GD32E23x_standard_peripheral/Source/gd32e23x_adc.c ****       \arg        ADC_REGULAR_CHANNEL: regular channel group
 238:Drivers/GD32E23x_standard_peripheral/Source/gd32e23x_adc.c ****       \arg        ADC_INSERTED_CHANNEL: inserted channel group
 239:Drivers/GD32E23x_standard_peripheral/Source/gd32e23x_adc.c ****     \param[in]  length: the length of the channel
 240:Drivers/GD32E23x_standard_peripheral/Source/gd32e23x_adc.c ****                         regular channel 1-16
 241:Drivers/GD32E23x_standard_peripheral/Source/gd32e23x_adc.c ****                         inserted channel 1-4
 242:Drivers/GD32E23x_standard_peripheral/Source/gd32e23x_adc.c ****     \param[out] none
 243:Drivers/GD32E23x_standard_peripheral/Source/gd32e23x_adc.c ****     \retval     none
 244:Drivers/GD32E23x_standard_peripheral/Source/gd32e23x_adc.c **** */
 245:Drivers/GD32E23x_standard_peripheral/Source/gd32e23x_adc.c **** void adc_channel_length_config(uint8_t channel_group, uint32_t length)
 246:Drivers/GD32E23x_standard_peripheral/Source/gd32e23x_adc.c **** {
 571              		.loc 1 246 1 is_stmt 1 view -0
 572              		.cfi_startproc
 573              		@ args = 0, pretend = 0, frame = 0
 574              		@ frame_needed = 0, uses_anonymous_args = 0
 575              		@ link register save eliminated.
 247:Drivers/GD32E23x_standard_peripheral/Source/gd32e23x_adc.c ****     switch(channel_group){
 576              		.loc 1 247 5 view .LVU110
 577 0000 0128     		cmp	r0, #1
 578 0002 02D0     		beq	.L37
 579 0004 0228     		cmp	r0, #2
 580 0006 11D0     		beq	.L38
 581              	.LVL15:
 582              	.L36:
 248:Drivers/GD32E23x_standard_peripheral/Source/gd32e23x_adc.c ****     case ADC_REGULAR_CHANNEL:
 249:Drivers/GD32E23x_standard_peripheral/Source/gd32e23x_adc.c ****         /* configure the length of regular channel group */
 250:Drivers/GD32E23x_standard_peripheral/Source/gd32e23x_adc.c ****         ADC_RSQ0 &= ~((uint32_t)ADC_RSQ0_RL);
 251:Drivers/GD32E23x_standard_peripheral/Source/gd32e23x_adc.c ****         ADC_RSQ0 |= RSQ0_RL((uint32_t)(length-1U));
 252:Drivers/GD32E23x_standard_peripheral/Source/gd32e23x_adc.c ****         break;
 253:Drivers/GD32E23x_standard_peripheral/Source/gd32e23x_adc.c ****     case ADC_INSERTED_CHANNEL:
 254:Drivers/GD32E23x_standard_peripheral/Source/gd32e23x_adc.c ****         /* configure the length of inserted channel group */
 255:Drivers/GD32E23x_standard_peripheral/Source/gd32e23x_adc.c ****         ADC_ISQ &= ~((uint32_t)ADC_ISQ_IL);
 256:Drivers/GD32E23x_standard_peripheral/Source/gd32e23x_adc.c ****         ADC_ISQ |= ISQ_IL((uint32_t)(length-1U));
 257:Drivers/GD32E23x_standard_peripheral/Source/gd32e23x_adc.c ****         break;
 258:Drivers/GD32E23x_standard_peripheral/Source/gd32e23x_adc.c ****     default:
 259:Drivers/GD32E23x_standard_peripheral/Source/gd32e23x_adc.c ****         break;
 260:Drivers/GD32E23x_standard_peripheral/Source/gd32e23x_adc.c ****     }
ARM GAS  /var/folders/rv/zq8s_02j1dj4vjvr1mm5zl2r0000gn/T//ccsprPZw.s 			page 16


 261:Drivers/GD32E23x_standard_peripheral/Source/gd32e23x_adc.c **** }
 583              		.loc 1 261 1 is_stmt 0 view .LVU111
 584              		@ sp needed
 585 0008 7047     		bx	lr
 586              	.LVL16:
 587              	.L37:
 250:Drivers/GD32E23x_standard_peripheral/Source/gd32e23x_adc.c ****         ADC_RSQ0 |= RSQ0_RL((uint32_t)(length-1U));
 588              		.loc 1 250 9 is_stmt 1 view .LVU112
 250:Drivers/GD32E23x_standard_peripheral/Source/gd32e23x_adc.c ****         ADC_RSQ0 |= RSQ0_RL((uint32_t)(length-1U));
 589              		.loc 1 250 18 is_stmt 0 view .LVU113
 590 000a 42F22C43 		movw	r3, #9260
 591 000e C4F20103 		movt	r3, 16385
 592 0012 1A68     		ldr	r2, [r3]
 593 0014 0E48     		ldr	r0, .L40
 594              	.LVL17:
 250:Drivers/GD32E23x_standard_peripheral/Source/gd32e23x_adc.c ****         ADC_RSQ0 |= RSQ0_RL((uint32_t)(length-1U));
 595              		.loc 1 250 18 view .LVU114
 596 0016 0240     		ands	r2, r0
 597 0018 1A60     		str	r2, [r3]
 251:Drivers/GD32E23x_standard_peripheral/Source/gd32e23x_adc.c ****         break;
 598              		.loc 1 251 9 is_stmt 1 view .LVU115
 251:Drivers/GD32E23x_standard_peripheral/Source/gd32e23x_adc.c ****         break;
 599              		.loc 1 251 18 is_stmt 0 view .LVU116
 600 001a 1A68     		ldr	r2, [r3]
 251:Drivers/GD32E23x_standard_peripheral/Source/gd32e23x_adc.c ****         break;
 601              		.loc 1 251 21 view .LVU117
 602 001c 0139     		subs	r1, r1, #1
 603              	.LVL18:
 251:Drivers/GD32E23x_standard_peripheral/Source/gd32e23x_adc.c ****         break;
 604              		.loc 1 251 21 view .LVU118
 605 001e 0905     		lsls	r1, r1, #20
 606              	.LVL19:
 251:Drivers/GD32E23x_standard_peripheral/Source/gd32e23x_adc.c ****         break;
 607              		.loc 1 251 21 view .LVU119
 608 0020 F020     		movs	r0, #240
 609 0022 0004     		lsls	r0, r0, #16
 610 0024 0140     		ands	r1, r0
 251:Drivers/GD32E23x_standard_peripheral/Source/gd32e23x_adc.c ****         break;
 611              		.loc 1 251 18 view .LVU120
 612 0026 1143     		orrs	r1, r2
 613 0028 1960     		str	r1, [r3]
 252:Drivers/GD32E23x_standard_peripheral/Source/gd32e23x_adc.c ****     case ADC_INSERTED_CHANNEL:
 614              		.loc 1 252 9 is_stmt 1 view .LVU121
 615 002a EDE7     		b	.L36
 616              	.LVL20:
 617              	.L38:
 255:Drivers/GD32E23x_standard_peripheral/Source/gd32e23x_adc.c ****         ADC_ISQ |= ISQ_IL((uint32_t)(length-1U));
 618              		.loc 1 255 9 view .LVU122
 255:Drivers/GD32E23x_standard_peripheral/Source/gd32e23x_adc.c ****         ADC_ISQ |= ISQ_IL((uint32_t)(length-1U));
 619              		.loc 1 255 17 is_stmt 0 view .LVU123
 620 002c 42F23843 		movw	r3, #9272
 621 0030 C4F20103 		movt	r3, 16385
 622 0034 1A68     		ldr	r2, [r3]
 623 0036 0748     		ldr	r0, .L40+4
 624              	.LVL21:
 255:Drivers/GD32E23x_standard_peripheral/Source/gd32e23x_adc.c ****         ADC_ISQ |= ISQ_IL((uint32_t)(length-1U));
 625              		.loc 1 255 17 view .LVU124
ARM GAS  /var/folders/rv/zq8s_02j1dj4vjvr1mm5zl2r0000gn/T//ccsprPZw.s 			page 17


 626 0038 0240     		ands	r2, r0
 627 003a 1A60     		str	r2, [r3]
 256:Drivers/GD32E23x_standard_peripheral/Source/gd32e23x_adc.c ****         break;
 628              		.loc 1 256 9 is_stmt 1 view .LVU125
 256:Drivers/GD32E23x_standard_peripheral/Source/gd32e23x_adc.c ****         break;
 629              		.loc 1 256 17 is_stmt 0 view .LVU126
 630 003c 1A68     		ldr	r2, [r3]
 256:Drivers/GD32E23x_standard_peripheral/Source/gd32e23x_adc.c ****         break;
 631              		.loc 1 256 20 view .LVU127
 632 003e 0139     		subs	r1, r1, #1
 633              	.LVL22:
 256:Drivers/GD32E23x_standard_peripheral/Source/gd32e23x_adc.c ****         break;
 634              		.loc 1 256 20 view .LVU128
 635 0040 0905     		lsls	r1, r1, #20
 636              	.LVL23:
 256:Drivers/GD32E23x_standard_peripheral/Source/gd32e23x_adc.c ****         break;
 637              		.loc 1 256 20 view .LVU129
 638 0042 C020     		movs	r0, #192
 639 0044 8003     		lsls	r0, r0, #14
 640 0046 0140     		ands	r1, r0
 256:Drivers/GD32E23x_standard_peripheral/Source/gd32e23x_adc.c ****         break;
 641              		.loc 1 256 17 view .LVU130
 642 0048 1143     		orrs	r1, r2
 643 004a 1960     		str	r1, [r3]
 257:Drivers/GD32E23x_standard_peripheral/Source/gd32e23x_adc.c ****     default:
 644              		.loc 1 257 9 is_stmt 1 view .LVU131
 645              		.loc 1 261 1 is_stmt 0 view .LVU132
 646 004c DCE7     		b	.L36
 647              	.L41:
 648 004e C046     		.align	2
 649              	.L40:
 650 0050 FFFF0FFF 		.word	-15728641
 651 0054 FFFFCFFF 		.word	-3145729
 652              		.cfi_endproc
 653              	.LFE77:
 655              		.section	.text.adc_regular_channel_config,"ax",%progbits
 656              		.align	1
 657              		.global	adc_regular_channel_config
 658              		.syntax unified
 659              		.code	16
 660              		.thumb_func
 661              		.fpu softvfp
 663              	adc_regular_channel_config:
 664              	.LVL24:
 665              	.LFB78:
 262:Drivers/GD32E23x_standard_peripheral/Source/gd32e23x_adc.c **** 
 263:Drivers/GD32E23x_standard_peripheral/Source/gd32e23x_adc.c **** /*!
 264:Drivers/GD32E23x_standard_peripheral/Source/gd32e23x_adc.c ****     \brief      configure ADC regular channel
 265:Drivers/GD32E23x_standard_peripheral/Source/gd32e23x_adc.c ****     \param[in]  rank: the regular group sequence rank, this parameter must be between 0 to 15
 266:Drivers/GD32E23x_standard_peripheral/Source/gd32e23x_adc.c ****     \param[in]  channel: the selected ADC channel
 267:Drivers/GD32E23x_standard_peripheral/Source/gd32e23x_adc.c ****                 only one parameter can be selected which is shown as below:
 268:Drivers/GD32E23x_standard_peripheral/Source/gd32e23x_adc.c ****       \arg        ADC_CHANNEL_x(x=0..9,16,17): ADC Channelx
 269:Drivers/GD32E23x_standard_peripheral/Source/gd32e23x_adc.c ****     \param[in]  sample_time: the sample time value
 270:Drivers/GD32E23x_standard_peripheral/Source/gd32e23x_adc.c ****                 only one parameter can be selected which is shown as below:
 271:Drivers/GD32E23x_standard_peripheral/Source/gd32e23x_adc.c ****       \arg        ADC_SAMPLETIME_1POINT5: 1.5 cycles
 272:Drivers/GD32E23x_standard_peripheral/Source/gd32e23x_adc.c ****       \arg        ADC_SAMPLETIME_7POINT5: 7.5 cycles
 273:Drivers/GD32E23x_standard_peripheral/Source/gd32e23x_adc.c ****       \arg        ADC_SAMPLETIME_13POINT5: 13.5 cycles
ARM GAS  /var/folders/rv/zq8s_02j1dj4vjvr1mm5zl2r0000gn/T//ccsprPZw.s 			page 18


 274:Drivers/GD32E23x_standard_peripheral/Source/gd32e23x_adc.c ****       \arg        ADC_SAMPLETIME_28POINT5: 28.5 cycles
 275:Drivers/GD32E23x_standard_peripheral/Source/gd32e23x_adc.c ****       \arg        ADC_SAMPLETIME_41POINT5: 41.5 cycles
 276:Drivers/GD32E23x_standard_peripheral/Source/gd32e23x_adc.c ****       \arg        ADC_SAMPLETIME_55POINT5: 55.5 cycles
 277:Drivers/GD32E23x_standard_peripheral/Source/gd32e23x_adc.c ****       \arg        ADC_SAMPLETIME_71POINT5: 71.5 cycles
 278:Drivers/GD32E23x_standard_peripheral/Source/gd32e23x_adc.c ****       \arg        ADC_SAMPLETIME_239POINT5: 239.5 cycles
 279:Drivers/GD32E23x_standard_peripheral/Source/gd32e23x_adc.c ****     \param[out] none
 280:Drivers/GD32E23x_standard_peripheral/Source/gd32e23x_adc.c ****     \retval     none
 281:Drivers/GD32E23x_standard_peripheral/Source/gd32e23x_adc.c **** */
 282:Drivers/GD32E23x_standard_peripheral/Source/gd32e23x_adc.c **** void adc_regular_channel_config(uint8_t rank, uint8_t channel, uint32_t sample_time)
 283:Drivers/GD32E23x_standard_peripheral/Source/gd32e23x_adc.c **** {
 666              		.loc 1 283 1 is_stmt 1 view -0
 667              		.cfi_startproc
 668              		@ args = 0, pretend = 0, frame = 0
 669              		@ frame_needed = 0, uses_anonymous_args = 0
 670              		.loc 1 283 1 is_stmt 0 view .LVU134
 671 0000 30B5     		push	{r4, r5, lr}
 672              	.LCFI2:
 673              		.cfi_def_cfa_offset 12
 674              		.cfi_offset 4, -12
 675              		.cfi_offset 5, -8
 676              		.cfi_offset 14, -4
 284:Drivers/GD32E23x_standard_peripheral/Source/gd32e23x_adc.c ****     uint32_t rsq,sampt;
 677              		.loc 1 284 5 is_stmt 1 view .LVU135
 285:Drivers/GD32E23x_standard_peripheral/Source/gd32e23x_adc.c ****     
 286:Drivers/GD32E23x_standard_peripheral/Source/gd32e23x_adc.c ****     /* configure ADC regular sequence */
 287:Drivers/GD32E23x_standard_peripheral/Source/gd32e23x_adc.c ****     if(rank < 6U){
 678              		.loc 1 287 5 view .LVU136
 679              		.loc 1 287 7 is_stmt 0 view .LVU137
 680 0002 0528     		cmp	r0, #5
 681 0004 1DD8     		bhi	.L43
 288:Drivers/GD32E23x_standard_peripheral/Source/gd32e23x_adc.c ****         rsq = ADC_RSQ2;
 682              		.loc 1 288 9 is_stmt 1 view .LVU138
 683              		.loc 1 288 13 is_stmt 0 view .LVU139
 684 0006 42F23444 		movw	r4, #9268
 685 000a C4F20104 		movt	r4, 16385
 686 000e 2568     		ldr	r5, [r4]
 687              	.LVL25:
 289:Drivers/GD32E23x_standard_peripheral/Source/gd32e23x_adc.c ****         rsq &=  ~((uint32_t)(ADC_RSQX_RSQN << (5U*rank)));
 688              		.loc 1 289 9 is_stmt 1 view .LVU140
 689              		.loc 1 289 50 is_stmt 0 view .LVU141
 690 0010 8300     		lsls	r3, r0, #2
 691 0012 1818     		adds	r0, r3, r0
 692              	.LVL26:
 693              		.loc 1 289 19 view .LVU142
 694 0014 1F23     		movs	r3, #31
 695 0016 8340     		lsls	r3, r3, r0
 696              		.loc 1 289 13 view .LVU143
 697 0018 9D43     		bics	r5, r3
 698              	.LVL27:
 290:Drivers/GD32E23x_standard_peripheral/Source/gd32e23x_adc.c ****         rsq |= ((uint32_t)channel << (5U*rank));
 699              		.loc 1 290 9 is_stmt 1 view .LVU144
 700              		.loc 1 290 35 is_stmt 0 view .LVU145
 701 001a 0B00     		movs	r3, r1
 702 001c 8340     		lsls	r3, r3, r0
 703              		.loc 1 290 13 view .LVU146
 704 001e 2B43     		orrs	r3, r5
 705              	.LVL28:
ARM GAS  /var/folders/rv/zq8s_02j1dj4vjvr1mm5zl2r0000gn/T//ccsprPZw.s 			page 19


 291:Drivers/GD32E23x_standard_peripheral/Source/gd32e23x_adc.c ****         ADC_RSQ2 = rsq;
 706              		.loc 1 291 9 is_stmt 1 view .LVU147
 707              		.loc 1 291 18 is_stmt 0 view .LVU148
 708 0020 2360     		str	r3, [r4]
 709              	.LVL29:
 710              	.L44:
 292:Drivers/GD32E23x_standard_peripheral/Source/gd32e23x_adc.c ****     }else if(rank < 12U){
 293:Drivers/GD32E23x_standard_peripheral/Source/gd32e23x_adc.c ****         rsq = ADC_RSQ1;
 294:Drivers/GD32E23x_standard_peripheral/Source/gd32e23x_adc.c ****         rsq &= ~((uint32_t)(ADC_RSQX_RSQN << (5U*(rank-6U))));
 295:Drivers/GD32E23x_standard_peripheral/Source/gd32e23x_adc.c ****         rsq |= ((uint32_t)channel << (5U*(rank-6U)));
 296:Drivers/GD32E23x_standard_peripheral/Source/gd32e23x_adc.c ****         ADC_RSQ1 = rsq;
 297:Drivers/GD32E23x_standard_peripheral/Source/gd32e23x_adc.c ****     }else if(rank < 16U){
 298:Drivers/GD32E23x_standard_peripheral/Source/gd32e23x_adc.c ****         rsq = ADC_RSQ0;
 299:Drivers/GD32E23x_standard_peripheral/Source/gd32e23x_adc.c ****         rsq &= ~((uint32_t)(ADC_RSQX_RSQN << (5U*(rank-12U))));
 300:Drivers/GD32E23x_standard_peripheral/Source/gd32e23x_adc.c ****         rsq |= ((uint32_t)channel << (5U*(rank-12U)));
 301:Drivers/GD32E23x_standard_peripheral/Source/gd32e23x_adc.c ****         ADC_RSQ0 = rsq;
 302:Drivers/GD32E23x_standard_peripheral/Source/gd32e23x_adc.c ****     }else{
 303:Drivers/GD32E23x_standard_peripheral/Source/gd32e23x_adc.c ****     }
 711              		.loc 1 303 5 is_stmt 1 view .LVU149
 304:Drivers/GD32E23x_standard_peripheral/Source/gd32e23x_adc.c ****     
 305:Drivers/GD32E23x_standard_peripheral/Source/gd32e23x_adc.c ****     /* configure ADC sampling time */
 306:Drivers/GD32E23x_standard_peripheral/Source/gd32e23x_adc.c ****     if(channel < 10U){
 712              		.loc 1 306 5 view .LVU150
 713              		.loc 1 306 7 is_stmt 0 view .LVU151
 714 0022 0929     		cmp	r1, #9
 715 0024 31D8     		bhi	.L46
 307:Drivers/GD32E23x_standard_peripheral/Source/gd32e23x_adc.c ****         sampt = ADC_SAMPT1;
 716              		.loc 1 307 9 is_stmt 1 view .LVU152
 717              		.loc 1 307 15 is_stmt 0 view .LVU153
 718 0026 42F21040 		movw	r0, #9232
 719 002a C4F20100 		movt	r0, 16385
 720 002e 0468     		ldr	r4, [r0]
 721              	.LVL30:
 308:Drivers/GD32E23x_standard_peripheral/Source/gd32e23x_adc.c ****         sampt &= ~((uint32_t)(ADC_SAMPTX_SPTN << (3U*channel)));
 722              		.loc 1 308 9 is_stmt 1 view .LVU154
 723              		.loc 1 308 53 is_stmt 0 view .LVU155
 724 0030 4B00     		lsls	r3, r1, #1
 725 0032 5918     		adds	r1, r3, r1
 726              	.LVL31:
 727              		.loc 1 308 20 view .LVU156
 728 0034 0723     		movs	r3, #7
 729 0036 8B40     		lsls	r3, r3, r1
 730              		.loc 1 308 15 view .LVU157
 731 0038 9C43     		bics	r4, r3
 732              	.LVL32:
 309:Drivers/GD32E23x_standard_peripheral/Source/gd32e23x_adc.c ****         sampt |= (uint32_t)(sample_time << (3U*channel));
 733              		.loc 1 309 9 is_stmt 1 view .LVU158
 734              		.loc 1 309 41 is_stmt 0 view .LVU159
 735 003a 8A40     		lsls	r2, r2, r1
 736              	.LVL33:
 737              		.loc 1 309 15 view .LVU160
 738 003c 2243     		orrs	r2, r4
 739              	.LVL34:
 310:Drivers/GD32E23x_standard_peripheral/Source/gd32e23x_adc.c ****         ADC_SAMPT1 = sampt;
 740              		.loc 1 310 9 is_stmt 1 view .LVU161
 741              		.loc 1 310 20 is_stmt 0 view .LVU162
 742 003e 0260     		str	r2, [r0]
ARM GAS  /var/folders/rv/zq8s_02j1dj4vjvr1mm5zl2r0000gn/T//ccsprPZw.s 			page 20


 743              	.LVL35:
 744              	.L42:
 311:Drivers/GD32E23x_standard_peripheral/Source/gd32e23x_adc.c ****     }else if(channel < 19U){
 312:Drivers/GD32E23x_standard_peripheral/Source/gd32e23x_adc.c ****         sampt = ADC_SAMPT0;
 313:Drivers/GD32E23x_standard_peripheral/Source/gd32e23x_adc.c ****         sampt &= ~((uint32_t)(ADC_SAMPTX_SPTN << (3U*(channel-10U))));
 314:Drivers/GD32E23x_standard_peripheral/Source/gd32e23x_adc.c ****         sampt |= (uint32_t)(sample_time << (3U*(channel-10U)));
 315:Drivers/GD32E23x_standard_peripheral/Source/gd32e23x_adc.c ****         ADC_SAMPT0 = sampt;
 316:Drivers/GD32E23x_standard_peripheral/Source/gd32e23x_adc.c ****     }else{
 317:Drivers/GD32E23x_standard_peripheral/Source/gd32e23x_adc.c ****         /* illegal parameters */
 318:Drivers/GD32E23x_standard_peripheral/Source/gd32e23x_adc.c ****     }
 319:Drivers/GD32E23x_standard_peripheral/Source/gd32e23x_adc.c **** }
 745              		.loc 1 319 1 view .LVU163
 746              		@ sp needed
 747 0040 30BD     		pop	{r4, r5, pc}
 748              	.LVL36:
 749              	.L43:
 292:Drivers/GD32E23x_standard_peripheral/Source/gd32e23x_adc.c ****         rsq = ADC_RSQ1;
 750              		.loc 1 292 11 is_stmt 1 view .LVU164
 292:Drivers/GD32E23x_standard_peripheral/Source/gd32e23x_adc.c ****         rsq = ADC_RSQ1;
 751              		.loc 1 292 13 is_stmt 0 view .LVU165
 752 0042 0B28     		cmp	r0, #11
 753 0044 0FD8     		bhi	.L45
 293:Drivers/GD32E23x_standard_peripheral/Source/gd32e23x_adc.c ****         rsq &= ~((uint32_t)(ADC_RSQX_RSQN << (5U*(rank-6U))));
 754              		.loc 1 293 9 is_stmt 1 view .LVU166
 293:Drivers/GD32E23x_standard_peripheral/Source/gd32e23x_adc.c ****         rsq &= ~((uint32_t)(ADC_RSQX_RSQN << (5U*(rank-6U))));
 755              		.loc 1 293 13 is_stmt 0 view .LVU167
 756 0046 42F23044 		movw	r4, #9264
 757 004a C4F20104 		movt	r4, 16385
 758 004e 2568     		ldr	r5, [r4]
 759              	.LVL37:
 294:Drivers/GD32E23x_standard_peripheral/Source/gd32e23x_adc.c ****         rsq |= ((uint32_t)channel << (5U*(rank-6U)));
 760              		.loc 1 294 9 is_stmt 1 view .LVU168
 294:Drivers/GD32E23x_standard_peripheral/Source/gd32e23x_adc.c ****         rsq |= ((uint32_t)channel << (5U*(rank-6U)));
 761              		.loc 1 294 49 is_stmt 0 view .LVU169
 762 0050 8300     		lsls	r3, r0, #2
 763 0052 1818     		adds	r0, r3, r0
 764              	.LVL38:
 294:Drivers/GD32E23x_standard_peripheral/Source/gd32e23x_adc.c ****         rsq |= ((uint32_t)channel << (5U*(rank-6U)));
 765              		.loc 1 294 49 view .LVU170
 766 0054 1E38     		subs	r0, r0, #30
 294:Drivers/GD32E23x_standard_peripheral/Source/gd32e23x_adc.c ****         rsq |= ((uint32_t)channel << (5U*(rank-6U)));
 767              		.loc 1 294 18 view .LVU171
 768 0056 1F23     		movs	r3, #31
 769 0058 8340     		lsls	r3, r3, r0
 294:Drivers/GD32E23x_standard_peripheral/Source/gd32e23x_adc.c ****         rsq |= ((uint32_t)channel << (5U*(rank-6U)));
 770              		.loc 1 294 13 view .LVU172
 771 005a 9D43     		bics	r5, r3
 772              	.LVL39:
 295:Drivers/GD32E23x_standard_peripheral/Source/gd32e23x_adc.c ****         ADC_RSQ1 = rsq;
 773              		.loc 1 295 9 is_stmt 1 view .LVU173
 295:Drivers/GD32E23x_standard_peripheral/Source/gd32e23x_adc.c ****         ADC_RSQ1 = rsq;
 774              		.loc 1 295 35 is_stmt 0 view .LVU174
 775 005c 0B00     		movs	r3, r1
 776 005e 8340     		lsls	r3, r3, r0
 295:Drivers/GD32E23x_standard_peripheral/Source/gd32e23x_adc.c ****         ADC_RSQ1 = rsq;
 777              		.loc 1 295 13 view .LVU175
 778 0060 2B43     		orrs	r3, r5
ARM GAS  /var/folders/rv/zq8s_02j1dj4vjvr1mm5zl2r0000gn/T//ccsprPZw.s 			page 21


 779              	.LVL40:
 296:Drivers/GD32E23x_standard_peripheral/Source/gd32e23x_adc.c ****     }else if(rank < 16U){
 780              		.loc 1 296 9 is_stmt 1 view .LVU176
 296:Drivers/GD32E23x_standard_peripheral/Source/gd32e23x_adc.c ****     }else if(rank < 16U){
 781              		.loc 1 296 18 is_stmt 0 view .LVU177
 782 0062 2360     		str	r3, [r4]
 783 0064 DDE7     		b	.L44
 784              	.LVL41:
 785              	.L45:
 297:Drivers/GD32E23x_standard_peripheral/Source/gd32e23x_adc.c ****         rsq = ADC_RSQ0;
 786              		.loc 1 297 11 is_stmt 1 view .LVU178
 297:Drivers/GD32E23x_standard_peripheral/Source/gd32e23x_adc.c ****         rsq = ADC_RSQ0;
 787              		.loc 1 297 13 is_stmt 0 view .LVU179
 788 0066 0F28     		cmp	r0, #15
 789 0068 DBD8     		bhi	.L44
 298:Drivers/GD32E23x_standard_peripheral/Source/gd32e23x_adc.c ****         rsq &= ~((uint32_t)(ADC_RSQX_RSQN << (5U*(rank-12U))));
 790              		.loc 1 298 9 is_stmt 1 view .LVU180
 298:Drivers/GD32E23x_standard_peripheral/Source/gd32e23x_adc.c ****         rsq &= ~((uint32_t)(ADC_RSQX_RSQN << (5U*(rank-12U))));
 791              		.loc 1 298 13 is_stmt 0 view .LVU181
 792 006a 42F22C44 		movw	r4, #9260
 793 006e C4F20104 		movt	r4, 16385
 794 0072 2568     		ldr	r5, [r4]
 795              	.LVL42:
 299:Drivers/GD32E23x_standard_peripheral/Source/gd32e23x_adc.c ****         rsq |= ((uint32_t)channel << (5U*(rank-12U)));
 796              		.loc 1 299 9 is_stmt 1 view .LVU182
 299:Drivers/GD32E23x_standard_peripheral/Source/gd32e23x_adc.c ****         rsq |= ((uint32_t)channel << (5U*(rank-12U)));
 797              		.loc 1 299 49 is_stmt 0 view .LVU183
 798 0074 8300     		lsls	r3, r0, #2
 799 0076 1818     		adds	r0, r3, r0
 800              	.LVL43:
 299:Drivers/GD32E23x_standard_peripheral/Source/gd32e23x_adc.c ****         rsq |= ((uint32_t)channel << (5U*(rank-12U)));
 801              		.loc 1 299 49 view .LVU184
 802 0078 3C38     		subs	r0, r0, #60
 299:Drivers/GD32E23x_standard_peripheral/Source/gd32e23x_adc.c ****         rsq |= ((uint32_t)channel << (5U*(rank-12U)));
 803              		.loc 1 299 18 view .LVU185
 804 007a 1F23     		movs	r3, #31
 805 007c 8340     		lsls	r3, r3, r0
 299:Drivers/GD32E23x_standard_peripheral/Source/gd32e23x_adc.c ****         rsq |= ((uint32_t)channel << (5U*(rank-12U)));
 806              		.loc 1 299 13 view .LVU186
 807 007e 9D43     		bics	r5, r3
 808              	.LVL44:
 300:Drivers/GD32E23x_standard_peripheral/Source/gd32e23x_adc.c ****         ADC_RSQ0 = rsq;
 809              		.loc 1 300 9 is_stmt 1 view .LVU187
 300:Drivers/GD32E23x_standard_peripheral/Source/gd32e23x_adc.c ****         ADC_RSQ0 = rsq;
 810              		.loc 1 300 35 is_stmt 0 view .LVU188
 811 0080 0B00     		movs	r3, r1
 812 0082 8340     		lsls	r3, r3, r0
 300:Drivers/GD32E23x_standard_peripheral/Source/gd32e23x_adc.c ****         ADC_RSQ0 = rsq;
 813              		.loc 1 300 13 view .LVU189
 814 0084 2B43     		orrs	r3, r5
 815              	.LVL45:
 301:Drivers/GD32E23x_standard_peripheral/Source/gd32e23x_adc.c ****     }else{
 816              		.loc 1 301 9 is_stmt 1 view .LVU190
 301:Drivers/GD32E23x_standard_peripheral/Source/gd32e23x_adc.c ****     }else{
 817              		.loc 1 301 18 is_stmt 0 view .LVU191
 818 0086 2360     		str	r3, [r4]
 819 0088 CBE7     		b	.L44
ARM GAS  /var/folders/rv/zq8s_02j1dj4vjvr1mm5zl2r0000gn/T//ccsprPZw.s 			page 22


 820              	.LVL46:
 821              	.L46:
 311:Drivers/GD32E23x_standard_peripheral/Source/gd32e23x_adc.c ****         sampt = ADC_SAMPT0;
 822              		.loc 1 311 11 is_stmt 1 view .LVU192
 311:Drivers/GD32E23x_standard_peripheral/Source/gd32e23x_adc.c ****         sampt = ADC_SAMPT0;
 823              		.loc 1 311 13 is_stmt 0 view .LVU193
 824 008a 1229     		cmp	r1, #18
 825 008c D8D8     		bhi	.L42
 312:Drivers/GD32E23x_standard_peripheral/Source/gd32e23x_adc.c ****         sampt &= ~((uint32_t)(ADC_SAMPTX_SPTN << (3U*(channel-10U))));
 826              		.loc 1 312 9 is_stmt 1 view .LVU194
 312:Drivers/GD32E23x_standard_peripheral/Source/gd32e23x_adc.c ****         sampt &= ~((uint32_t)(ADC_SAMPTX_SPTN << (3U*(channel-10U))));
 827              		.loc 1 312 15 is_stmt 0 view .LVU195
 828 008e 42F20C40 		movw	r0, #9228
 829 0092 C4F20100 		movt	r0, 16385
 830 0096 0468     		ldr	r4, [r0]
 831              	.LVL47:
 313:Drivers/GD32E23x_standard_peripheral/Source/gd32e23x_adc.c ****         sampt |= (uint32_t)(sample_time << (3U*(channel-10U)));
 832              		.loc 1 313 9 is_stmt 1 view .LVU196
 313:Drivers/GD32E23x_standard_peripheral/Source/gd32e23x_adc.c ****         sampt |= (uint32_t)(sample_time << (3U*(channel-10U)));
 833              		.loc 1 313 53 is_stmt 0 view .LVU197
 834 0098 4B00     		lsls	r3, r1, #1
 835 009a 5918     		adds	r1, r3, r1
 836              	.LVL48:
 313:Drivers/GD32E23x_standard_peripheral/Source/gd32e23x_adc.c ****         sampt |= (uint32_t)(sample_time << (3U*(channel-10U)));
 837              		.loc 1 313 53 view .LVU198
 838 009c 1E39     		subs	r1, r1, #30
 313:Drivers/GD32E23x_standard_peripheral/Source/gd32e23x_adc.c ****         sampt |= (uint32_t)(sample_time << (3U*(channel-10U)));
 839              		.loc 1 313 20 view .LVU199
 840 009e 0723     		movs	r3, #7
 841 00a0 8B40     		lsls	r3, r3, r1
 313:Drivers/GD32E23x_standard_peripheral/Source/gd32e23x_adc.c ****         sampt |= (uint32_t)(sample_time << (3U*(channel-10U)));
 842              		.loc 1 313 15 view .LVU200
 843 00a2 9C43     		bics	r4, r3
 844              	.LVL49:
 314:Drivers/GD32E23x_standard_peripheral/Source/gd32e23x_adc.c ****         ADC_SAMPT0 = sampt;
 845              		.loc 1 314 9 is_stmt 1 view .LVU201
 314:Drivers/GD32E23x_standard_peripheral/Source/gd32e23x_adc.c ****         ADC_SAMPT0 = sampt;
 846              		.loc 1 314 41 is_stmt 0 view .LVU202
 847 00a4 8A40     		lsls	r2, r2, r1
 848              	.LVL50:
 314:Drivers/GD32E23x_standard_peripheral/Source/gd32e23x_adc.c ****         ADC_SAMPT0 = sampt;
 849              		.loc 1 314 15 view .LVU203
 850 00a6 2243     		orrs	r2, r4
 851              	.LVL51:
 315:Drivers/GD32E23x_standard_peripheral/Source/gd32e23x_adc.c ****     }else{
 852              		.loc 1 315 9 is_stmt 1 view .LVU204
 315:Drivers/GD32E23x_standard_peripheral/Source/gd32e23x_adc.c ****     }else{
 853              		.loc 1 315 20 is_stmt 0 view .LVU205
 854 00a8 0260     		str	r2, [r0]
 318:Drivers/GD32E23x_standard_peripheral/Source/gd32e23x_adc.c **** }
 855              		.loc 1 318 5 is_stmt 1 view .LVU206
 856              		.loc 1 319 1 is_stmt 0 view .LVU207
 857 00aa C9E7     		b	.L42
 858              		.cfi_endproc
 859              	.LFE78:
 861              		.section	.text.adc_inserted_channel_config,"ax",%progbits
 862              		.align	1
ARM GAS  /var/folders/rv/zq8s_02j1dj4vjvr1mm5zl2r0000gn/T//ccsprPZw.s 			page 23


 863              		.global	adc_inserted_channel_config
 864              		.syntax unified
 865              		.code	16
 866              		.thumb_func
 867              		.fpu softvfp
 869              	adc_inserted_channel_config:
 870              	.LVL52:
 871              	.LFB79:
 320:Drivers/GD32E23x_standard_peripheral/Source/gd32e23x_adc.c **** 
 321:Drivers/GD32E23x_standard_peripheral/Source/gd32e23x_adc.c **** /*!
 322:Drivers/GD32E23x_standard_peripheral/Source/gd32e23x_adc.c ****     \brief      configure ADC inserted channel 
 323:Drivers/GD32E23x_standard_peripheral/Source/gd32e23x_adc.c ****     \param[in]  rank: the inserted group sequencer rank,this parameter must be between 0 to 3
 324:Drivers/GD32E23x_standard_peripheral/Source/gd32e23x_adc.c ****     \param[in]  channel: the selected ADC channel
 325:Drivers/GD32E23x_standard_peripheral/Source/gd32e23x_adc.c ****                 only one parameter can be selected which is shown as below:
 326:Drivers/GD32E23x_standard_peripheral/Source/gd32e23x_adc.c ****       \arg        ADC_CHANNEL_x(x=0..9,16,17): ADC Channelx
 327:Drivers/GD32E23x_standard_peripheral/Source/gd32e23x_adc.c ****     \param[in]  sample_time: The sample time value
 328:Drivers/GD32E23x_standard_peripheral/Source/gd32e23x_adc.c ****                 only one parameter can be selected which is shown as below:
 329:Drivers/GD32E23x_standard_peripheral/Source/gd32e23x_adc.c ****       \arg        ADC_SAMPLETIME_1POINT5: 1.5 cycles
 330:Drivers/GD32E23x_standard_peripheral/Source/gd32e23x_adc.c ****       \arg        ADC_SAMPLETIME_7POINT5: 7.5 cycles
 331:Drivers/GD32E23x_standard_peripheral/Source/gd32e23x_adc.c ****       \arg        ADC_SAMPLETIME_13POINT5: 13.5 cycles
 332:Drivers/GD32E23x_standard_peripheral/Source/gd32e23x_adc.c ****       \arg        ADC_SAMPLETIME_28POINT5: 28.5 cycles
 333:Drivers/GD32E23x_standard_peripheral/Source/gd32e23x_adc.c ****       \arg        ADC_SAMPLETIME_41POINT5: 41.5 cycles
 334:Drivers/GD32E23x_standard_peripheral/Source/gd32e23x_adc.c ****       \arg        ADC_SAMPLETIME_55POINT5: 55.5 cycles
 335:Drivers/GD32E23x_standard_peripheral/Source/gd32e23x_adc.c ****       \arg        ADC_SAMPLETIME_71POINT5: 71.5 cycles
 336:Drivers/GD32E23x_standard_peripheral/Source/gd32e23x_adc.c ****       \arg        ADC_SAMPLETIME_239POINT5: 239.5 cycles
 337:Drivers/GD32E23x_standard_peripheral/Source/gd32e23x_adc.c ****     \param[out] none
 338:Drivers/GD32E23x_standard_peripheral/Source/gd32e23x_adc.c ****     \retval     none
 339:Drivers/GD32E23x_standard_peripheral/Source/gd32e23x_adc.c **** */
 340:Drivers/GD32E23x_standard_peripheral/Source/gd32e23x_adc.c **** void adc_inserted_channel_config(uint8_t rank, uint8_t channel, uint32_t sample_time)
 341:Drivers/GD32E23x_standard_peripheral/Source/gd32e23x_adc.c **** {
 872              		.loc 1 341 1 is_stmt 1 view -0
 873              		.cfi_startproc
 874              		@ args = 0, pretend = 0, frame = 0
 875              		@ frame_needed = 0, uses_anonymous_args = 0
 876              		.loc 1 341 1 is_stmt 0 view .LVU209
 877 0000 30B5     		push	{r4, r5, lr}
 878              	.LCFI3:
 879              		.cfi_def_cfa_offset 12
 880              		.cfi_offset 4, -12
 881              		.cfi_offset 5, -8
 882              		.cfi_offset 14, -4
 342:Drivers/GD32E23x_standard_peripheral/Source/gd32e23x_adc.c ****     uint8_t inserted_length;
 883              		.loc 1 342 5 is_stmt 1 view .LVU210
 343:Drivers/GD32E23x_standard_peripheral/Source/gd32e23x_adc.c ****     uint32_t isq,sampt;
 884              		.loc 1 343 5 view .LVU211
 344:Drivers/GD32E23x_standard_peripheral/Source/gd32e23x_adc.c **** 
 345:Drivers/GD32E23x_standard_peripheral/Source/gd32e23x_adc.c ****     inserted_length = (uint8_t)GET_BITS(ADC_ISQ , 20U , 21U);
 885              		.loc 1 345 5 view .LVU212
 886              		.loc 1 345 32 is_stmt 0 view .LVU213
 887 0002 42F23844 		movw	r4, #9272
 888 0006 C4F20104 		movt	r4, 16385
 889 000a 2368     		ldr	r3, [r4]
 890 000c 1B0D     		lsrs	r3, r3, #20
 891              		.loc 1 345 21 view .LVU214
 892 000e 0325     		movs	r5, #3
 893 0010 2B40     		ands	r3, r5
 894              	.LVL53:
ARM GAS  /var/folders/rv/zq8s_02j1dj4vjvr1mm5zl2r0000gn/T//ccsprPZw.s 			page 24


 346:Drivers/GD32E23x_standard_peripheral/Source/gd32e23x_adc.c ****   
 347:Drivers/GD32E23x_standard_peripheral/Source/gd32e23x_adc.c ****     isq = ADC_ISQ;
 895              		.loc 1 347 5 is_stmt 1 view .LVU215
 896              		.loc 1 347 9 is_stmt 0 view .LVU216
 897 0012 2568     		ldr	r5, [r4]
 898              	.LVL54:
 348:Drivers/GD32E23x_standard_peripheral/Source/gd32e23x_adc.c ****     isq &= ~((uint32_t)(ADC_ISQ_ISQN << (15U - (inserted_length - rank)*5U)));
 899              		.loc 1 348 5 is_stmt 1 view .LVU217
 900              		.loc 1 348 65 is_stmt 0 view .LVU218
 901 0014 181A     		subs	r0, r3, r0
 902              	.LVL55:
 903              		.loc 1 348 72 view .LVU219
 904 0016 8300     		lsls	r3, r0, #2
 905              	.LVL56:
 906              		.loc 1 348 72 view .LVU220
 907 0018 1818     		adds	r0, r3, r0
 908              		.loc 1 348 46 view .LVU221
 909 001a 0F23     		movs	r3, #15
 910 001c 181A     		subs	r0, r3, r0
 911              		.loc 1 348 14 view .LVU222
 912 001e 1033     		adds	r3, r3, #16
 913 0020 8340     		lsls	r3, r3, r0
 914              		.loc 1 348 9 view .LVU223
 915 0022 9D43     		bics	r5, r3
 916              	.LVL57:
 349:Drivers/GD32E23x_standard_peripheral/Source/gd32e23x_adc.c ****     isq |= ((uint32_t)channel << (15U - (inserted_length - rank)*5U));
 917              		.loc 1 349 5 is_stmt 1 view .LVU224
 918              		.loc 1 349 31 is_stmt 0 view .LVU225
 919 0024 0B00     		movs	r3, r1
 920 0026 8340     		lsls	r3, r3, r0
 921              		.loc 1 349 9 view .LVU226
 922 0028 2B43     		orrs	r3, r5
 923              	.LVL58:
 350:Drivers/GD32E23x_standard_peripheral/Source/gd32e23x_adc.c ****     ADC_ISQ = isq;
 924              		.loc 1 350 5 is_stmt 1 view .LVU227
 925              		.loc 1 350 13 is_stmt 0 view .LVU228
 926 002a 2360     		str	r3, [r4]
 351:Drivers/GD32E23x_standard_peripheral/Source/gd32e23x_adc.c **** 
 352:Drivers/GD32E23x_standard_peripheral/Source/gd32e23x_adc.c ****     /* configure ADC sampling time */
 353:Drivers/GD32E23x_standard_peripheral/Source/gd32e23x_adc.c ****     if(channel < 10U){
 927              		.loc 1 353 5 is_stmt 1 view .LVU229
 928              		.loc 1 353 7 is_stmt 0 view .LVU230
 929 002c 0929     		cmp	r1, #9
 930 002e 0DD8     		bhi	.L49
 354:Drivers/GD32E23x_standard_peripheral/Source/gd32e23x_adc.c ****         sampt = ADC_SAMPT1;
 931              		.loc 1 354 9 is_stmt 1 view .LVU231
 932              		.loc 1 354 15 is_stmt 0 view .LVU232
 933 0030 42F21040 		movw	r0, #9232
 934 0034 C4F20100 		movt	r0, 16385
 935 0038 0468     		ldr	r4, [r0]
 936              	.LVL59:
 355:Drivers/GD32E23x_standard_peripheral/Source/gd32e23x_adc.c ****         sampt &= ~((uint32_t)(ADC_SAMPTX_SPTN << (3U*channel)));
 937              		.loc 1 355 9 is_stmt 1 view .LVU233
 938              		.loc 1 355 53 is_stmt 0 view .LVU234
 939 003a 4B00     		lsls	r3, r1, #1
 940              	.LVL60:
 941              		.loc 1 355 53 view .LVU235
ARM GAS  /var/folders/rv/zq8s_02j1dj4vjvr1mm5zl2r0000gn/T//ccsprPZw.s 			page 25


 942 003c 5918     		adds	r1, r3, r1
 943              	.LVL61:
 944              		.loc 1 355 20 view .LVU236
 945 003e 0723     		movs	r3, #7
 946 0040 8B40     		lsls	r3, r3, r1
 947              		.loc 1 355 15 view .LVU237
 948 0042 9C43     		bics	r4, r3
 949              	.LVL62:
 356:Drivers/GD32E23x_standard_peripheral/Source/gd32e23x_adc.c ****         sampt |= (uint32_t) sample_time << (3U*channel);
 950              		.loc 1 356 9 is_stmt 1 view .LVU238
 951              		.loc 1 356 41 is_stmt 0 view .LVU239
 952 0044 8A40     		lsls	r2, r2, r1
 953              	.LVL63:
 954              		.loc 1 356 15 view .LVU240
 955 0046 2243     		orrs	r2, r4
 956              	.LVL64:
 357:Drivers/GD32E23x_standard_peripheral/Source/gd32e23x_adc.c ****         ADC_SAMPT1 = sampt;
 957              		.loc 1 357 9 is_stmt 1 view .LVU241
 958              		.loc 1 357 20 is_stmt 0 view .LVU242
 959 0048 0260     		str	r2, [r0]
 960              	.LVL65:
 961              	.L48:
 358:Drivers/GD32E23x_standard_peripheral/Source/gd32e23x_adc.c ****     }else if(channel < 19U){
 359:Drivers/GD32E23x_standard_peripheral/Source/gd32e23x_adc.c ****         sampt = ADC_SAMPT0;
 360:Drivers/GD32E23x_standard_peripheral/Source/gd32e23x_adc.c ****         sampt &= ~((uint32_t)(ADC_SAMPTX_SPTN << (3U*(channel - 10U))));
 361:Drivers/GD32E23x_standard_peripheral/Source/gd32e23x_adc.c ****         sampt |= ((uint32_t)sample_time << (3U*(channel - 10U)));
 362:Drivers/GD32E23x_standard_peripheral/Source/gd32e23x_adc.c ****         ADC_SAMPT0 = sampt;
 363:Drivers/GD32E23x_standard_peripheral/Source/gd32e23x_adc.c ****     }else{
 364:Drivers/GD32E23x_standard_peripheral/Source/gd32e23x_adc.c ****         /* illegal parameters */
 365:Drivers/GD32E23x_standard_peripheral/Source/gd32e23x_adc.c ****     }
 366:Drivers/GD32E23x_standard_peripheral/Source/gd32e23x_adc.c **** }
 962              		.loc 1 366 1 view .LVU243
 963              		@ sp needed
 964 004a 30BD     		pop	{r4, r5, pc}
 965              	.LVL66:
 966              	.L49:
 358:Drivers/GD32E23x_standard_peripheral/Source/gd32e23x_adc.c ****     }else if(channel < 19U){
 967              		.loc 1 358 11 is_stmt 1 view .LVU244
 358:Drivers/GD32E23x_standard_peripheral/Source/gd32e23x_adc.c ****     }else if(channel < 19U){
 968              		.loc 1 358 13 is_stmt 0 view .LVU245
 969 004c 1229     		cmp	r1, #18
 970 004e FCD8     		bhi	.L48
 359:Drivers/GD32E23x_standard_peripheral/Source/gd32e23x_adc.c ****         sampt &= ~((uint32_t)(ADC_SAMPTX_SPTN << (3U*(channel - 10U))));
 971              		.loc 1 359 9 is_stmt 1 view .LVU246
 359:Drivers/GD32E23x_standard_peripheral/Source/gd32e23x_adc.c ****         sampt &= ~((uint32_t)(ADC_SAMPTX_SPTN << (3U*(channel - 10U))));
 972              		.loc 1 359 15 is_stmt 0 view .LVU247
 973 0050 42F20C40 		movw	r0, #9228
 974 0054 C4F20100 		movt	r0, 16385
 975 0058 0468     		ldr	r4, [r0]
 976              	.LVL67:
 360:Drivers/GD32E23x_standard_peripheral/Source/gd32e23x_adc.c ****         sampt |= ((uint32_t)sample_time << (3U*(channel - 10U)));
 977              		.loc 1 360 9 is_stmt 1 view .LVU248
 360:Drivers/GD32E23x_standard_peripheral/Source/gd32e23x_adc.c ****         sampt |= ((uint32_t)sample_time << (3U*(channel - 10U)));
 978              		.loc 1 360 53 is_stmt 0 view .LVU249
 979 005a 4B00     		lsls	r3, r1, #1
 980              	.LVL68:
 360:Drivers/GD32E23x_standard_peripheral/Source/gd32e23x_adc.c ****         sampt |= ((uint32_t)sample_time << (3U*(channel - 10U)));
ARM GAS  /var/folders/rv/zq8s_02j1dj4vjvr1mm5zl2r0000gn/T//ccsprPZw.s 			page 26


 981              		.loc 1 360 53 view .LVU250
 982 005c 5918     		adds	r1, r3, r1
 983              	.LVL69:
 360:Drivers/GD32E23x_standard_peripheral/Source/gd32e23x_adc.c ****         sampt |= ((uint32_t)sample_time << (3U*(channel - 10U)));
 984              		.loc 1 360 53 view .LVU251
 985 005e 1E39     		subs	r1, r1, #30
 360:Drivers/GD32E23x_standard_peripheral/Source/gd32e23x_adc.c ****         sampt |= ((uint32_t)sample_time << (3U*(channel - 10U)));
 986              		.loc 1 360 20 view .LVU252
 987 0060 0723     		movs	r3, #7
 988 0062 8B40     		lsls	r3, r3, r1
 360:Drivers/GD32E23x_standard_peripheral/Source/gd32e23x_adc.c ****         sampt |= ((uint32_t)sample_time << (3U*(channel - 10U)));
 989              		.loc 1 360 15 view .LVU253
 990 0064 9C43     		bics	r4, r3
 991              	.LVL70:
 361:Drivers/GD32E23x_standard_peripheral/Source/gd32e23x_adc.c ****         ADC_SAMPT0 = sampt;
 992              		.loc 1 361 9 is_stmt 1 view .LVU254
 361:Drivers/GD32E23x_standard_peripheral/Source/gd32e23x_adc.c ****         ADC_SAMPT0 = sampt;
 993              		.loc 1 361 41 is_stmt 0 view .LVU255
 994 0066 8A40     		lsls	r2, r2, r1
 995              	.LVL71:
 361:Drivers/GD32E23x_standard_peripheral/Source/gd32e23x_adc.c ****         ADC_SAMPT0 = sampt;
 996              		.loc 1 361 15 view .LVU256
 997 0068 2243     		orrs	r2, r4
 998              	.LVL72:
 362:Drivers/GD32E23x_standard_peripheral/Source/gd32e23x_adc.c ****     }else{
 999              		.loc 1 362 9 is_stmt 1 view .LVU257
 362:Drivers/GD32E23x_standard_peripheral/Source/gd32e23x_adc.c ****     }else{
 1000              		.loc 1 362 20 is_stmt 0 view .LVU258
 1001 006a 0260     		str	r2, [r0]
 365:Drivers/GD32E23x_standard_peripheral/Source/gd32e23x_adc.c **** }
 1002              		.loc 1 365 5 is_stmt 1 view .LVU259
 1003              		.loc 1 366 1 is_stmt 0 view .LVU260
 1004 006c EDE7     		b	.L48
 1005              		.cfi_endproc
 1006              	.LFE79:
 1008              		.section	.text.adc_inserted_channel_offset_config,"ax",%progbits
 1009              		.align	1
 1010              		.global	adc_inserted_channel_offset_config
 1011              		.syntax unified
 1012              		.code	16
 1013              		.thumb_func
 1014              		.fpu softvfp
 1016              	adc_inserted_channel_offset_config:
 1017              	.LVL73:
 1018              	.LFB80:
 367:Drivers/GD32E23x_standard_peripheral/Source/gd32e23x_adc.c **** 
 368:Drivers/GD32E23x_standard_peripheral/Source/gd32e23x_adc.c **** /*!
 369:Drivers/GD32E23x_standard_peripheral/Source/gd32e23x_adc.c ****     \brief      configure ADC inserted channel offset
 370:Drivers/GD32E23x_standard_peripheral/Source/gd32e23x_adc.c ****     \param[in]  inserted_channel: insert channel select
 371:Drivers/GD32E23x_standard_peripheral/Source/gd32e23x_adc.c ****                 only one parameter can be selected which is shown as below:
 372:Drivers/GD32E23x_standard_peripheral/Source/gd32e23x_adc.c ****       \arg        ADC_INSERTED_CHANNEL_0: ADC inserted channel 0
 373:Drivers/GD32E23x_standard_peripheral/Source/gd32e23x_adc.c ****       \arg        ADC_INSERTED_CHANNEL_1: ADC inserted channel 1
 374:Drivers/GD32E23x_standard_peripheral/Source/gd32e23x_adc.c ****       \arg        ADC_INSERTED_CHANNEL_2: ADC inserted channel 2
 375:Drivers/GD32E23x_standard_peripheral/Source/gd32e23x_adc.c ****       \arg        ADC_INSERTED_CHANNEL_3: ADC inserted channel 3
 376:Drivers/GD32E23x_standard_peripheral/Source/gd32e23x_adc.c ****     \param[in]  offset: the offset data
 377:Drivers/GD32E23x_standard_peripheral/Source/gd32e23x_adc.c ****     \param[out] none
 378:Drivers/GD32E23x_standard_peripheral/Source/gd32e23x_adc.c ****     \retval     none
ARM GAS  /var/folders/rv/zq8s_02j1dj4vjvr1mm5zl2r0000gn/T//ccsprPZw.s 			page 27


 379:Drivers/GD32E23x_standard_peripheral/Source/gd32e23x_adc.c **** */
 380:Drivers/GD32E23x_standard_peripheral/Source/gd32e23x_adc.c **** void adc_inserted_channel_offset_config(uint8_t inserted_channel, uint16_t offset)
 381:Drivers/GD32E23x_standard_peripheral/Source/gd32e23x_adc.c **** {
 1019              		.loc 1 381 1 is_stmt 1 view -0
 1020              		.cfi_startproc
 1021              		@ args = 0, pretend = 0, frame = 0
 1022              		@ frame_needed = 0, uses_anonymous_args = 0
 1023              		@ link register save eliminated.
 382:Drivers/GD32E23x_standard_peripheral/Source/gd32e23x_adc.c ****     uint8_t inserted_length;
 1024              		.loc 1 382 5 view .LVU262
 383:Drivers/GD32E23x_standard_peripheral/Source/gd32e23x_adc.c ****     uint32_t num = 0U;
 1025              		.loc 1 383 5 view .LVU263
 384:Drivers/GD32E23x_standard_peripheral/Source/gd32e23x_adc.c **** 
 385:Drivers/GD32E23x_standard_peripheral/Source/gd32e23x_adc.c ****     inserted_length = (uint8_t)GET_BITS(ADC_ISQ, 20U, 21U);
 1026              		.loc 1 385 5 view .LVU264
 1027              		.loc 1 385 32 is_stmt 0 view .LVU265
 1028 0000 42F23842 		movw	r2, #9272
 1029 0004 C4F20102 		movt	r2, 16385
 1030 0008 1368     		ldr	r3, [r2]
 1031 000a 1B0D     		lsrs	r3, r3, #20
 1032              		.loc 1 385 21 view .LVU266
 1033 000c 0322     		movs	r2, #3
 1034 000e 1340     		ands	r3, r2
 1035              	.LVL74:
 386:Drivers/GD32E23x_standard_peripheral/Source/gd32e23x_adc.c ****     num = 3U - (inserted_length - inserted_channel);
 1036              		.loc 1 386 5 is_stmt 1 view .LVU267
 1037              		.loc 1 386 33 is_stmt 0 view .LVU268
 1038 0010 1B1A     		subs	r3, r3, r0
 1039              	.LVL75:
 1040              		.loc 1 386 9 view .LVU269
 1041 0012 0320     		movs	r0, #3
 1042              	.LVL76:
 1043              		.loc 1 386 9 view .LVU270
 1044 0014 C31A     		subs	r3, r0, r3
 1045              	.LVL77:
 387:Drivers/GD32E23x_standard_peripheral/Source/gd32e23x_adc.c ****     
 388:Drivers/GD32E23x_standard_peripheral/Source/gd32e23x_adc.c ****     if(num <= 3U){
 1046              		.loc 1 388 5 is_stmt 1 view .LVU271
 1047              		.loc 1 388 7 is_stmt 0 view .LVU272
 1048 0016 032B     		cmp	r3, #3
 1049 0018 09D8     		bhi	.L51
 389:Drivers/GD32E23x_standard_peripheral/Source/gd32e23x_adc.c ****         /* calculate the offset of the register */
 390:Drivers/GD32E23x_standard_peripheral/Source/gd32e23x_adc.c ****         num = num * 4U;
 1050              		.loc 1 390 9 is_stmt 1 view .LVU273
 1051              		.loc 1 390 13 is_stmt 0 view .LVU274
 1052 001a 9B00     		lsls	r3, r3, #2
 1053              	.LVL78:
 391:Drivers/GD32E23x_standard_peripheral/Source/gd32e23x_adc.c ****         /* configure the offset of the selected channels */
 392:Drivers/GD32E23x_standard_peripheral/Source/gd32e23x_adc.c ****         REG32((ADC) + 0x14U + num) = IOFFX_IOFF((uint32_t)offset);
 1054              		.loc 1 392 9 is_stmt 1 view .LVU275
 1055 001c 42F2144C 		movw	ip, #9236
 1056 0020 C4F2010C 		movt	ip, 16385
 1057 0024 6344     		add	r3, r3, ip
 1058              	.LVL79:
 1059              		.loc 1 392 38 is_stmt 0 view .LVU276
 1060 0026 40F6FF72 		movw	r2, #4095
 1061 002a 1140     		ands	r1, r2
ARM GAS  /var/folders/rv/zq8s_02j1dj4vjvr1mm5zl2r0000gn/T//ccsprPZw.s 			page 28


 1062              	.LVL80:
 1063              		.loc 1 392 36 view .LVU277
 1064 002c 1960     		str	r1, [r3]
 1065              	.L51:
 393:Drivers/GD32E23x_standard_peripheral/Source/gd32e23x_adc.c ****     }
 394:Drivers/GD32E23x_standard_peripheral/Source/gd32e23x_adc.c **** }
 1066              		.loc 1 394 1 view .LVU278
 1067              		@ sp needed
 1068 002e 7047     		bx	lr
 1069              		.cfi_endproc
 1070              	.LFE80:
 1072              		.section	.text.adc_external_trigger_config,"ax",%progbits
 1073              		.align	1
 1074              		.global	adc_external_trigger_config
 1075              		.syntax unified
 1076              		.code	16
 1077              		.thumb_func
 1078              		.fpu softvfp
 1080              	adc_external_trigger_config:
 1081              	.LVL81:
 1082              	.LFB81:
 395:Drivers/GD32E23x_standard_peripheral/Source/gd32e23x_adc.c **** 
 396:Drivers/GD32E23x_standard_peripheral/Source/gd32e23x_adc.c **** /*!
 397:Drivers/GD32E23x_standard_peripheral/Source/gd32e23x_adc.c ****     \brief      enable or disable ADC external trigger 
 398:Drivers/GD32E23x_standard_peripheral/Source/gd32e23x_adc.c ****     \param[in]  channel_group: select the channel group
 399:Drivers/GD32E23x_standard_peripheral/Source/gd32e23x_adc.c ****                 one or more parameters can be selected which is shown as below:
 400:Drivers/GD32E23x_standard_peripheral/Source/gd32e23x_adc.c ****       \arg        ADC_REGULAR_CHANNEL: regular channel group
 401:Drivers/GD32E23x_standard_peripheral/Source/gd32e23x_adc.c ****       \arg        ADC_INSERTED_CHANNEL: inserted channel group
 402:Drivers/GD32E23x_standard_peripheral/Source/gd32e23x_adc.c ****     \param[in]  newvalue: ENABLE or DISABLE
 403:Drivers/GD32E23x_standard_peripheral/Source/gd32e23x_adc.c ****     \param[out] none
 404:Drivers/GD32E23x_standard_peripheral/Source/gd32e23x_adc.c ****     \retval     none
 405:Drivers/GD32E23x_standard_peripheral/Source/gd32e23x_adc.c **** */
 406:Drivers/GD32E23x_standard_peripheral/Source/gd32e23x_adc.c **** void adc_external_trigger_config(uint8_t channel_group, ControlStatus newvalue)
 407:Drivers/GD32E23x_standard_peripheral/Source/gd32e23x_adc.c **** {
 1083              		.loc 1 407 1 is_stmt 1 view -0
 1084              		.cfi_startproc
 1085              		@ args = 0, pretend = 0, frame = 0
 1086              		@ frame_needed = 0, uses_anonymous_args = 0
 1087              		@ link register save eliminated.
 408:Drivers/GD32E23x_standard_peripheral/Source/gd32e23x_adc.c ****     if(newvalue){
 1088              		.loc 1 408 5 view .LVU280
 1089              		.loc 1 408 7 is_stmt 0 view .LVU281
 1090 0000 B1B1     		cbz	r1, .L54
 409:Drivers/GD32E23x_standard_peripheral/Source/gd32e23x_adc.c ****         /* external trigger enable for regular channel */
 410:Drivers/GD32E23x_standard_peripheral/Source/gd32e23x_adc.c ****         if(RESET != (channel_group & ADC_REGULAR_CHANNEL)){
 1091              		.loc 1 410 9 is_stmt 1 view .LVU282
 1092              		.loc 1 410 11 is_stmt 0 view .LVU283
 1093 0002 C307     		lsls	r3, r0, #31
 1094 0004 08D5     		bpl	.L55
 411:Drivers/GD32E23x_standard_peripheral/Source/gd32e23x_adc.c ****             ADC_CTL1 |= ADC_CTL1_ETERC;
 1095              		.loc 1 411 13 is_stmt 1 view .LVU284
 1096              		.loc 1 411 22 is_stmt 0 view .LVU285
 1097 0006 42F20843 		movw	r3, #9224
 1098 000a C4F20103 		movt	r3, 16385
 1099 000e 1968     		ldr	r1, [r3]
 1100              	.LVL82:
 1101              		.loc 1 411 22 view .LVU286
ARM GAS  /var/folders/rv/zq8s_02j1dj4vjvr1mm5zl2r0000gn/T//ccsprPZw.s 			page 29


 1102 0010 8022     		movs	r2, #128
 1103 0012 5203     		lsls	r2, r2, #13
 1104 0014 0A43     		orrs	r2, r1
 1105 0016 1A60     		str	r2, [r3]
 1106              	.L55:
 412:Drivers/GD32E23x_standard_peripheral/Source/gd32e23x_adc.c ****         }
 413:Drivers/GD32E23x_standard_peripheral/Source/gd32e23x_adc.c ****         /* external trigger enable for inserted channel */
 414:Drivers/GD32E23x_standard_peripheral/Source/gd32e23x_adc.c ****         if(RESET != (channel_group & ADC_INSERTED_CHANNEL)){
 1107              		.loc 1 414 9 is_stmt 1 view .LVU287
 1108              		.loc 1 414 11 is_stmt 0 view .LVU288
 1109 0018 8307     		lsls	r3, r0, #30
 1110 001a 08D5     		bpl	.L53
 415:Drivers/GD32E23x_standard_peripheral/Source/gd32e23x_adc.c ****             ADC_CTL1 |= ADC_CTL1_ETEIC;
 1111              		.loc 1 415 13 is_stmt 1 view .LVU289
 1112              		.loc 1 415 22 is_stmt 0 view .LVU290
 1113 001c 42F20843 		movw	r3, #9224
 1114 0020 C4F20103 		movt	r3, 16385
 1115 0024 1A68     		ldr	r2, [r3]
 1116 0026 48F20001 		movw	r1, #32768
 1117 002a 0A43     		orrs	r2, r1
 1118 002c 1A60     		str	r2, [r3]
 1119              	.L53:
 416:Drivers/GD32E23x_standard_peripheral/Source/gd32e23x_adc.c ****         }
 417:Drivers/GD32E23x_standard_peripheral/Source/gd32e23x_adc.c ****     }else{
 418:Drivers/GD32E23x_standard_peripheral/Source/gd32e23x_adc.c ****         /* external trigger disable for regular channel */
 419:Drivers/GD32E23x_standard_peripheral/Source/gd32e23x_adc.c ****         if(RESET != (channel_group & ADC_REGULAR_CHANNEL)){
 420:Drivers/GD32E23x_standard_peripheral/Source/gd32e23x_adc.c ****             ADC_CTL1 &= ~ADC_CTL1_ETERC;
 421:Drivers/GD32E23x_standard_peripheral/Source/gd32e23x_adc.c ****         }
 422:Drivers/GD32E23x_standard_peripheral/Source/gd32e23x_adc.c ****         /* external trigger disable for inserted channel */
 423:Drivers/GD32E23x_standard_peripheral/Source/gd32e23x_adc.c ****         if(RESET != (channel_group & ADC_INSERTED_CHANNEL)){
 424:Drivers/GD32E23x_standard_peripheral/Source/gd32e23x_adc.c ****             ADC_CTL1 &= ~ADC_CTL1_ETEIC;
 425:Drivers/GD32E23x_standard_peripheral/Source/gd32e23x_adc.c ****         }
 426:Drivers/GD32E23x_standard_peripheral/Source/gd32e23x_adc.c ****     }
 427:Drivers/GD32E23x_standard_peripheral/Source/gd32e23x_adc.c **** }
 1120              		.loc 1 427 1 view .LVU291
 1121              		@ sp needed
 1122 002e 7047     		bx	lr
 1123              	.LVL83:
 1124              	.L54:
 419:Drivers/GD32E23x_standard_peripheral/Source/gd32e23x_adc.c ****             ADC_CTL1 &= ~ADC_CTL1_ETERC;
 1125              		.loc 1 419 9 is_stmt 1 view .LVU292
 419:Drivers/GD32E23x_standard_peripheral/Source/gd32e23x_adc.c ****             ADC_CTL1 &= ~ADC_CTL1_ETERC;
 1126              		.loc 1 419 11 is_stmt 0 view .LVU293
 1127 0030 C307     		lsls	r3, r0, #31
 1128 0032 07D5     		bpl	.L57
 420:Drivers/GD32E23x_standard_peripheral/Source/gd32e23x_adc.c ****         }
 1129              		.loc 1 420 13 is_stmt 1 view .LVU294
 420:Drivers/GD32E23x_standard_peripheral/Source/gd32e23x_adc.c ****         }
 1130              		.loc 1 420 22 is_stmt 0 view .LVU295
 1131 0034 42F20843 		movw	r3, #9224
 1132 0038 C4F20103 		movt	r3, 16385
 1133 003c 1A68     		ldr	r2, [r3]
 1134 003e 0749     		ldr	r1, .L58
 1135              	.LVL84:
 420:Drivers/GD32E23x_standard_peripheral/Source/gd32e23x_adc.c ****         }
 1136              		.loc 1 420 22 view .LVU296
 1137 0040 0A40     		ands	r2, r1
ARM GAS  /var/folders/rv/zq8s_02j1dj4vjvr1mm5zl2r0000gn/T//ccsprPZw.s 			page 30


 1138 0042 1A60     		str	r2, [r3]
 1139              	.L57:
 423:Drivers/GD32E23x_standard_peripheral/Source/gd32e23x_adc.c ****             ADC_CTL1 &= ~ADC_CTL1_ETEIC;
 1140              		.loc 1 423 9 is_stmt 1 view .LVU297
 423:Drivers/GD32E23x_standard_peripheral/Source/gd32e23x_adc.c ****             ADC_CTL1 &= ~ADC_CTL1_ETEIC;
 1141              		.loc 1 423 11 is_stmt 0 view .LVU298
 1142 0044 8307     		lsls	r3, r0, #30
 1143 0046 F2D5     		bpl	.L53
 424:Drivers/GD32E23x_standard_peripheral/Source/gd32e23x_adc.c ****         }
 1144              		.loc 1 424 13 is_stmt 1 view .LVU299
 424:Drivers/GD32E23x_standard_peripheral/Source/gd32e23x_adc.c ****         }
 1145              		.loc 1 424 22 is_stmt 0 view .LVU300
 1146 0048 42F20843 		movw	r3, #9224
 1147 004c C4F20103 		movt	r3, 16385
 1148 0050 1A68     		ldr	r2, [r3]
 1149 0052 0349     		ldr	r1, .L58+4
 1150 0054 0A40     		ands	r2, r1
 1151 0056 1A60     		str	r2, [r3]
 1152              		.loc 1 427 1 view .LVU301
 1153 0058 E9E7     		b	.L53
 1154              	.L59:
 1155 005a C046     		.align	2
 1156              	.L58:
 1157 005c FFFFEFFF 		.word	-1048577
 1158 0060 FF7FFFFF 		.word	-32769
 1159              		.cfi_endproc
 1160              	.LFE81:
 1162              		.section	.text.adc_external_trigger_source_config,"ax",%progbits
 1163              		.align	1
 1164              		.global	adc_external_trigger_source_config
 1165              		.syntax unified
 1166              		.code	16
 1167              		.thumb_func
 1168              		.fpu softvfp
 1170              	adc_external_trigger_source_config:
 1171              	.LVL85:
 1172              	.LFB82:
 428:Drivers/GD32E23x_standard_peripheral/Source/gd32e23x_adc.c **** 
 429:Drivers/GD32E23x_standard_peripheral/Source/gd32e23x_adc.c **** /*!
 430:Drivers/GD32E23x_standard_peripheral/Source/gd32e23x_adc.c ****     \brief      configure ADC external trigger source 
 431:Drivers/GD32E23x_standard_peripheral/Source/gd32e23x_adc.c ****     \param[in]  channel_group: select the channel group
 432:Drivers/GD32E23x_standard_peripheral/Source/gd32e23x_adc.c ****                 only one parameter can be selected which is shown as below:
 433:Drivers/GD32E23x_standard_peripheral/Source/gd32e23x_adc.c ****       \arg        ADC_REGULAR_CHANNEL: regular channel group
 434:Drivers/GD32E23x_standard_peripheral/Source/gd32e23x_adc.c ****       \arg        ADC_INSERTED_CHANNEL: inserted channel group
 435:Drivers/GD32E23x_standard_peripheral/Source/gd32e23x_adc.c ****     \param[in]  external_trigger_source: regular or inserted group trigger source
 436:Drivers/GD32E23x_standard_peripheral/Source/gd32e23x_adc.c ****                 only one parameter can be selected which is shown as below:
 437:Drivers/GD32E23x_standard_peripheral/Source/gd32e23x_adc.c ****                 for regular channel:
 438:Drivers/GD32E23x_standard_peripheral/Source/gd32e23x_adc.c ****       \arg        ADC_EXTTRIG_REGULAR_T0_CH0: TIMER0 CH0 event select 
 439:Drivers/GD32E23x_standard_peripheral/Source/gd32e23x_adc.c ****       \arg        ADC_EXTTRIG_REGULAR_T0_CH1: TIMER0 CH1 event select 
 440:Drivers/GD32E23x_standard_peripheral/Source/gd32e23x_adc.c ****       \arg        ADC_EXTTRIG_REGULAR_T0_CH2: TIMER0 CH2 event select  
 441:Drivers/GD32E23x_standard_peripheral/Source/gd32e23x_adc.c ****       \arg        ADC_EXTTRIG_REGULAR_T2_TRGO: TIMER2 TRGO event select 
 442:Drivers/GD32E23x_standard_peripheral/Source/gd32e23x_adc.c ****       \arg        ADC_EXTTRIG_REGULAR_T14_CH0:  TIMER14 CH0 event select 
 443:Drivers/GD32E23x_standard_peripheral/Source/gd32e23x_adc.c ****       \arg        ADC_EXTTRIG_REGULAR_EXTI_11: external interrupt line 11
 444:Drivers/GD32E23x_standard_peripheral/Source/gd32e23x_adc.c ****       \arg        ADC_EXTTRIG_REGULAR_NONE: software trigger
 445:Drivers/GD32E23x_standard_peripheral/Source/gd32e23x_adc.c ****                 for inserted channel:
 446:Drivers/GD32E23x_standard_peripheral/Source/gd32e23x_adc.c ****       \arg        ADC_EXTTRIG_INSERTED_T0_TRGO: TIMER0 TRGO event select
 447:Drivers/GD32E23x_standard_peripheral/Source/gd32e23x_adc.c ****       \arg        ADC_EXTTRIG_INSERTED_T0_CH3: TIMER0 CH3 event select 
ARM GAS  /var/folders/rv/zq8s_02j1dj4vjvr1mm5zl2r0000gn/T//ccsprPZw.s 			page 31


 448:Drivers/GD32E23x_standard_peripheral/Source/gd32e23x_adc.c ****       \arg        ADC_EXTTRIG_INSERTED_T2_CH3: TIMER2 CH3 event select 
 449:Drivers/GD32E23x_standard_peripheral/Source/gd32e23x_adc.c ****       \arg        ADC_EXTTRIG_INSERTED_T14_TRGO: TIMER14 TRGO event select 
 450:Drivers/GD32E23x_standard_peripheral/Source/gd32e23x_adc.c ****       \arg        ADC_EXTTRIG_INSERTED_EXTI_15: external interrupt line 15 
 451:Drivers/GD32E23x_standard_peripheral/Source/gd32e23x_adc.c ****       \arg        ADC_EXTTRIG_INSERTED_NONE: software trigger
 452:Drivers/GD32E23x_standard_peripheral/Source/gd32e23x_adc.c ****     \param[out] none
 453:Drivers/GD32E23x_standard_peripheral/Source/gd32e23x_adc.c ****     \retval     none
 454:Drivers/GD32E23x_standard_peripheral/Source/gd32e23x_adc.c **** */
 455:Drivers/GD32E23x_standard_peripheral/Source/gd32e23x_adc.c **** void adc_external_trigger_source_config(uint8_t channel_group, uint32_t external_trigger_source)
 456:Drivers/GD32E23x_standard_peripheral/Source/gd32e23x_adc.c **** {   
 1173              		.loc 1 456 1 is_stmt 1 view -0
 1174              		.cfi_startproc
 1175              		@ args = 0, pretend = 0, frame = 0
 1176              		@ frame_needed = 0, uses_anonymous_args = 0
 1177              		@ link register save eliminated.
 457:Drivers/GD32E23x_standard_peripheral/Source/gd32e23x_adc.c ****     switch(channel_group){
 1178              		.loc 1 457 5 view .LVU303
 1179 0000 0128     		cmp	r0, #1
 1180 0002 02D0     		beq	.L61
 1181 0004 0228     		cmp	r0, #2
 1182 0006 0CD0     		beq	.L62
 1183              	.LVL86:
 1184              	.L60:
 458:Drivers/GD32E23x_standard_peripheral/Source/gd32e23x_adc.c ****     case ADC_REGULAR_CHANNEL:
 459:Drivers/GD32E23x_standard_peripheral/Source/gd32e23x_adc.c ****         /* external trigger select for regular channel */
 460:Drivers/GD32E23x_standard_peripheral/Source/gd32e23x_adc.c ****         ADC_CTL1 &= ~((uint32_t)ADC_CTL1_ETSRC);
 461:Drivers/GD32E23x_standard_peripheral/Source/gd32e23x_adc.c ****         ADC_CTL1 |= (uint32_t)external_trigger_source;
 462:Drivers/GD32E23x_standard_peripheral/Source/gd32e23x_adc.c ****         break;
 463:Drivers/GD32E23x_standard_peripheral/Source/gd32e23x_adc.c ****     case ADC_INSERTED_CHANNEL:
 464:Drivers/GD32E23x_standard_peripheral/Source/gd32e23x_adc.c ****         /* external trigger select for inserted channel */
 465:Drivers/GD32E23x_standard_peripheral/Source/gd32e23x_adc.c ****         ADC_CTL1 &= ~((uint32_t)ADC_CTL1_ETSIC);
 466:Drivers/GD32E23x_standard_peripheral/Source/gd32e23x_adc.c ****         ADC_CTL1 |= (uint32_t)external_trigger_source;
 467:Drivers/GD32E23x_standard_peripheral/Source/gd32e23x_adc.c ****         break;
 468:Drivers/GD32E23x_standard_peripheral/Source/gd32e23x_adc.c ****     default:
 469:Drivers/GD32E23x_standard_peripheral/Source/gd32e23x_adc.c ****         break;
 470:Drivers/GD32E23x_standard_peripheral/Source/gd32e23x_adc.c ****     }
 471:Drivers/GD32E23x_standard_peripheral/Source/gd32e23x_adc.c **** }
 1185              		.loc 1 471 1 is_stmt 0 view .LVU304
 1186              		@ sp needed
 1187 0008 7047     		bx	lr
 1188              	.LVL87:
 1189              	.L61:
 460:Drivers/GD32E23x_standard_peripheral/Source/gd32e23x_adc.c ****         ADC_CTL1 |= (uint32_t)external_trigger_source;
 1190              		.loc 1 460 9 is_stmt 1 view .LVU305
 460:Drivers/GD32E23x_standard_peripheral/Source/gd32e23x_adc.c ****         ADC_CTL1 |= (uint32_t)external_trigger_source;
 1191              		.loc 1 460 18 is_stmt 0 view .LVU306
 1192 000a 42F20843 		movw	r3, #9224
 1193 000e C4F20103 		movt	r3, 16385
 1194 0012 1A68     		ldr	r2, [r3]
 1195 0014 0948     		ldr	r0, .L64
 1196              	.LVL88:
 460:Drivers/GD32E23x_standard_peripheral/Source/gd32e23x_adc.c ****         ADC_CTL1 |= (uint32_t)external_trigger_source;
 1197              		.loc 1 460 18 view .LVU307
 1198 0016 0240     		ands	r2, r0
 1199 0018 1A60     		str	r2, [r3]
 461:Drivers/GD32E23x_standard_peripheral/Source/gd32e23x_adc.c ****         break;
 1200              		.loc 1 461 9 is_stmt 1 view .LVU308
 461:Drivers/GD32E23x_standard_peripheral/Source/gd32e23x_adc.c ****         break;
ARM GAS  /var/folders/rv/zq8s_02j1dj4vjvr1mm5zl2r0000gn/T//ccsprPZw.s 			page 32


 1201              		.loc 1 461 18 is_stmt 0 view .LVU309
 1202 001a 1A68     		ldr	r2, [r3]
 1203 001c 1143     		orrs	r1, r2
 1204              	.LVL89:
 461:Drivers/GD32E23x_standard_peripheral/Source/gd32e23x_adc.c ****         break;
 1205              		.loc 1 461 18 view .LVU310
 1206 001e 1960     		str	r1, [r3]
 462:Drivers/GD32E23x_standard_peripheral/Source/gd32e23x_adc.c ****     case ADC_INSERTED_CHANNEL:
 1207              		.loc 1 462 9 is_stmt 1 view .LVU311
 1208 0020 F2E7     		b	.L60
 1209              	.LVL90:
 1210              	.L62:
 465:Drivers/GD32E23x_standard_peripheral/Source/gd32e23x_adc.c ****         ADC_CTL1 |= (uint32_t)external_trigger_source;
 1211              		.loc 1 465 9 view .LVU312
 465:Drivers/GD32E23x_standard_peripheral/Source/gd32e23x_adc.c ****         ADC_CTL1 |= (uint32_t)external_trigger_source;
 1212              		.loc 1 465 18 is_stmt 0 view .LVU313
 1213 0022 42F20843 		movw	r3, #9224
 1214 0026 C4F20103 		movt	r3, 16385
 1215 002a 1A68     		ldr	r2, [r3]
 1216 002c 0448     		ldr	r0, .L64+4
 1217              	.LVL91:
 465:Drivers/GD32E23x_standard_peripheral/Source/gd32e23x_adc.c ****         ADC_CTL1 |= (uint32_t)external_trigger_source;
 1218              		.loc 1 465 18 view .LVU314
 1219 002e 0240     		ands	r2, r0
 1220 0030 1A60     		str	r2, [r3]
 466:Drivers/GD32E23x_standard_peripheral/Source/gd32e23x_adc.c ****         break;
 1221              		.loc 1 466 9 is_stmt 1 view .LVU315
 466:Drivers/GD32E23x_standard_peripheral/Source/gd32e23x_adc.c ****         break;
 1222              		.loc 1 466 18 is_stmt 0 view .LVU316
 1223 0032 1A68     		ldr	r2, [r3]
 1224 0034 1143     		orrs	r1, r2
 1225              	.LVL92:
 466:Drivers/GD32E23x_standard_peripheral/Source/gd32e23x_adc.c ****         break;
 1226              		.loc 1 466 18 view .LVU317
 1227 0036 1960     		str	r1, [r3]
 467:Drivers/GD32E23x_standard_peripheral/Source/gd32e23x_adc.c ****     default:
 1228              		.loc 1 467 9 is_stmt 1 view .LVU318
 1229              		.loc 1 471 1 is_stmt 0 view .LVU319
 1230 0038 E6E7     		b	.L60
 1231              	.L65:
 1232 003a C046     		.align	2
 1233              	.L64:
 1234 003c FFFFF1FF 		.word	-917505
 1235 0040 FF8FFFFF 		.word	-28673
 1236              		.cfi_endproc
 1237              	.LFE82:
 1239              		.section	.text.adc_software_trigger_enable,"ax",%progbits
 1240              		.align	1
 1241              		.global	adc_software_trigger_enable
 1242              		.syntax unified
 1243              		.code	16
 1244              		.thumb_func
 1245              		.fpu softvfp
 1247              	adc_software_trigger_enable:
 1248              	.LVL93:
 1249              	.LFB83:
 472:Drivers/GD32E23x_standard_peripheral/Source/gd32e23x_adc.c **** 
ARM GAS  /var/folders/rv/zq8s_02j1dj4vjvr1mm5zl2r0000gn/T//ccsprPZw.s 			page 33


 473:Drivers/GD32E23x_standard_peripheral/Source/gd32e23x_adc.c **** /*!
 474:Drivers/GD32E23x_standard_peripheral/Source/gd32e23x_adc.c ****     \brief      enable ADC software trigger 
 475:Drivers/GD32E23x_standard_peripheral/Source/gd32e23x_adc.c ****     \param[in]  channel_group: select the channel group
 476:Drivers/GD32E23x_standard_peripheral/Source/gd32e23x_adc.c ****                 one or more parameters can be selected which is shown as below:
 477:Drivers/GD32E23x_standard_peripheral/Source/gd32e23x_adc.c ****       \arg        ADC_REGULAR_CHANNEL: regular channel group
 478:Drivers/GD32E23x_standard_peripheral/Source/gd32e23x_adc.c ****       \arg        ADC_INSERTED_CHANNEL: inserted channel group
 479:Drivers/GD32E23x_standard_peripheral/Source/gd32e23x_adc.c ****     \param[out] none
 480:Drivers/GD32E23x_standard_peripheral/Source/gd32e23x_adc.c ****     \retval     none
 481:Drivers/GD32E23x_standard_peripheral/Source/gd32e23x_adc.c **** */
 482:Drivers/GD32E23x_standard_peripheral/Source/gd32e23x_adc.c **** void adc_software_trigger_enable(uint8_t channel_group)
 483:Drivers/GD32E23x_standard_peripheral/Source/gd32e23x_adc.c **** {
 1250              		.loc 1 483 1 is_stmt 1 view -0
 1251              		.cfi_startproc
 1252              		@ args = 0, pretend = 0, frame = 0
 1253              		@ frame_needed = 0, uses_anonymous_args = 0
 1254              		@ link register save eliminated.
 484:Drivers/GD32E23x_standard_peripheral/Source/gd32e23x_adc.c ****     /* enable regular group channel software trigger */
 485:Drivers/GD32E23x_standard_peripheral/Source/gd32e23x_adc.c ****     if(RESET != (channel_group & ADC_REGULAR_CHANNEL)){
 1255              		.loc 1 485 5 view .LVU321
 1256              		.loc 1 485 7 is_stmt 0 view .LVU322
 1257 0000 C307     		lsls	r3, r0, #31
 1258 0002 08D5     		bpl	.L67
 486:Drivers/GD32E23x_standard_peripheral/Source/gd32e23x_adc.c ****         ADC_CTL1 |= ADC_CTL1_SWRCST;
 1259              		.loc 1 486 9 is_stmt 1 view .LVU323
 1260              		.loc 1 486 18 is_stmt 0 view .LVU324
 1261 0004 42F20843 		movw	r3, #9224
 1262 0008 C4F20103 		movt	r3, 16385
 1263 000c 1968     		ldr	r1, [r3]
 1264 000e 8022     		movs	r2, #128
 1265 0010 D203     		lsls	r2, r2, #15
 1266 0012 0A43     		orrs	r2, r1
 1267 0014 1A60     		str	r2, [r3]
 1268              	.L67:
 487:Drivers/GD32E23x_standard_peripheral/Source/gd32e23x_adc.c ****     }
 488:Drivers/GD32E23x_standard_peripheral/Source/gd32e23x_adc.c ****     /* enable inserted channel group software trigger */
 489:Drivers/GD32E23x_standard_peripheral/Source/gd32e23x_adc.c ****     if(RESET != (channel_group & ADC_INSERTED_CHANNEL)){
 1269              		.loc 1 489 5 is_stmt 1 view .LVU325
 1270              		.loc 1 489 7 is_stmt 0 view .LVU326
 1271 0016 8307     		lsls	r3, r0, #30
 1272 0018 08D5     		bpl	.L66
 490:Drivers/GD32E23x_standard_peripheral/Source/gd32e23x_adc.c ****         ADC_CTL1 |= ADC_CTL1_SWICST;
 1273              		.loc 1 490 9 is_stmt 1 view .LVU327
 1274              		.loc 1 490 18 is_stmt 0 view .LVU328
 1275 001a 42F20843 		movw	r3, #9224
 1276 001e C4F20103 		movt	r3, 16385
 1277 0022 1968     		ldr	r1, [r3]
 1278 0024 8022     		movs	r2, #128
 1279 0026 9203     		lsls	r2, r2, #14
 1280 0028 0A43     		orrs	r2, r1
 1281 002a 1A60     		str	r2, [r3]
 1282              	.L66:
 491:Drivers/GD32E23x_standard_peripheral/Source/gd32e23x_adc.c ****     }
 492:Drivers/GD32E23x_standard_peripheral/Source/gd32e23x_adc.c **** }
 1283              		.loc 1 492 1 view .LVU329
 1284              		@ sp needed
 1285 002c 7047     		bx	lr
 1286              		.cfi_endproc
ARM GAS  /var/folders/rv/zq8s_02j1dj4vjvr1mm5zl2r0000gn/T//ccsprPZw.s 			page 34


 1287              	.LFE83:
 1289              		.section	.text.adc_regular_data_read,"ax",%progbits
 1290              		.align	1
 1291              		.global	adc_regular_data_read
 1292              		.syntax unified
 1293              		.code	16
 1294              		.thumb_func
 1295              		.fpu softvfp
 1297              	adc_regular_data_read:
 1298              	.LFB84:
 493:Drivers/GD32E23x_standard_peripheral/Source/gd32e23x_adc.c **** 
 494:Drivers/GD32E23x_standard_peripheral/Source/gd32e23x_adc.c **** /*!
 495:Drivers/GD32E23x_standard_peripheral/Source/gd32e23x_adc.c ****     \brief      read ADC regular group data register 
 496:Drivers/GD32E23x_standard_peripheral/Source/gd32e23x_adc.c ****     \param[in]  none
 497:Drivers/GD32E23x_standard_peripheral/Source/gd32e23x_adc.c ****     \param[out] none
 498:Drivers/GD32E23x_standard_peripheral/Source/gd32e23x_adc.c ****     \retval     the conversion value
 499:Drivers/GD32E23x_standard_peripheral/Source/gd32e23x_adc.c **** */
 500:Drivers/GD32E23x_standard_peripheral/Source/gd32e23x_adc.c **** uint16_t adc_regular_data_read(void)
 501:Drivers/GD32E23x_standard_peripheral/Source/gd32e23x_adc.c **** {
 1299              		.loc 1 501 1 is_stmt 1 view -0
 1300              		.cfi_startproc
 1301              		@ args = 0, pretend = 0, frame = 0
 1302              		@ frame_needed = 0, uses_anonymous_args = 0
 1303              		@ link register save eliminated.
 502:Drivers/GD32E23x_standard_peripheral/Source/gd32e23x_adc.c ****     return ((uint16_t)ADC_RDATA);
 1304              		.loc 1 502 5 view .LVU331
 1305              		.loc 1 502 23 is_stmt 0 view .LVU332
 1306 0000 42F24C43 		movw	r3, #9292
 1307 0004 C4F20103 		movt	r3, 16385
 1308 0008 1868     		ldr	r0, [r3]
 1309              		.loc 1 502 13 view .LVU333
 1310 000a 80B2     		uxth	r0, r0
 503:Drivers/GD32E23x_standard_peripheral/Source/gd32e23x_adc.c **** }
 1311              		.loc 1 503 1 view .LVU334
 1312              		@ sp needed
 1313 000c 7047     		bx	lr
 1314              		.cfi_endproc
 1315              	.LFE84:
 1317              		.section	.text.adc_inserted_data_read,"ax",%progbits
 1318              		.align	1
 1319              		.global	adc_inserted_data_read
 1320              		.syntax unified
 1321              		.code	16
 1322              		.thumb_func
 1323              		.fpu softvfp
 1325              	adc_inserted_data_read:
 1326              	.LVL94:
 1327              	.LFB85:
 504:Drivers/GD32E23x_standard_peripheral/Source/gd32e23x_adc.c **** 
 505:Drivers/GD32E23x_standard_peripheral/Source/gd32e23x_adc.c **** /*!
 506:Drivers/GD32E23x_standard_peripheral/Source/gd32e23x_adc.c ****     \brief      read ADC inserted group data register 
 507:Drivers/GD32E23x_standard_peripheral/Source/gd32e23x_adc.c ****     \param[in]  inserted_channel: inserted channel select
 508:Drivers/GD32E23x_standard_peripheral/Source/gd32e23x_adc.c ****                 only one parameter can be selected which is shown as below:
 509:Drivers/GD32E23x_standard_peripheral/Source/gd32e23x_adc.c ****       \arg        ADC_INSERTED_CHANNEL_0: ADC inserted channel 0
 510:Drivers/GD32E23x_standard_peripheral/Source/gd32e23x_adc.c ****       \arg        ADC_INSERTED_CHANNEL_1: ADC inserted channel 1
 511:Drivers/GD32E23x_standard_peripheral/Source/gd32e23x_adc.c ****       \arg        ADC_INSERTED_CHANNEL_2: ADC inserted channel 2
 512:Drivers/GD32E23x_standard_peripheral/Source/gd32e23x_adc.c ****       \arg        ADC_INSERTED_CHANNEL_3: ADC inserted channel 3
ARM GAS  /var/folders/rv/zq8s_02j1dj4vjvr1mm5zl2r0000gn/T//ccsprPZw.s 			page 35


 513:Drivers/GD32E23x_standard_peripheral/Source/gd32e23x_adc.c ****     \param[out] none
 514:Drivers/GD32E23x_standard_peripheral/Source/gd32e23x_adc.c ****     \retval     the conversion value
 515:Drivers/GD32E23x_standard_peripheral/Source/gd32e23x_adc.c **** */
 516:Drivers/GD32E23x_standard_peripheral/Source/gd32e23x_adc.c **** uint16_t adc_inserted_data_read(uint8_t inserted_channel)
 517:Drivers/GD32E23x_standard_peripheral/Source/gd32e23x_adc.c **** {
 1328              		.loc 1 517 1 is_stmt 1 view -0
 1329              		.cfi_startproc
 1330              		@ args = 0, pretend = 0, frame = 0
 1331              		@ frame_needed = 0, uses_anonymous_args = 0
 1332              		@ link register save eliminated.
 518:Drivers/GD32E23x_standard_peripheral/Source/gd32e23x_adc.c ****     uint32_t idata;
 1333              		.loc 1 518 5 view .LVU336
 519:Drivers/GD32E23x_standard_peripheral/Source/gd32e23x_adc.c ****     /* read the data of the selected channel */
 520:Drivers/GD32E23x_standard_peripheral/Source/gd32e23x_adc.c ****     switch(inserted_channel){
 1334              		.loc 1 520 5 view .LVU337
 1335 0000 0228     		cmp	r0, #2
 1336 0002 1CD0     		beq	.L71
 1337 0004 0AD8     		bhi	.L72
 1338 0006 A0B1     		cbz	r0, .L73
 1339 0008 0128     		cmp	r0, #1
 1340 000a 05D1     		bne	.L77
 521:Drivers/GD32E23x_standard_peripheral/Source/gd32e23x_adc.c ****     case ADC_INSERTED_CHANNEL_0:
 522:Drivers/GD32E23x_standard_peripheral/Source/gd32e23x_adc.c ****         idata = ADC_IDATA0;
 523:Drivers/GD32E23x_standard_peripheral/Source/gd32e23x_adc.c ****         break;
 524:Drivers/GD32E23x_standard_peripheral/Source/gd32e23x_adc.c ****     case ADC_INSERTED_CHANNEL_1:
 525:Drivers/GD32E23x_standard_peripheral/Source/gd32e23x_adc.c ****         idata = ADC_IDATA1;
 1341              		.loc 1 525 9 view .LVU338
 1342              		.loc 1 525 15 is_stmt 0 view .LVU339
 1343 000c 42F24043 		movw	r3, #9280
 1344 0010 C4F20103 		movt	r3, 16385
 1345 0014 1868     		ldr	r0, [r3]
 1346              	.LVL95:
 526:Drivers/GD32E23x_standard_peripheral/Source/gd32e23x_adc.c ****         break;
 1347              		.loc 1 526 9 is_stmt 1 view .LVU340
 1348 0016 0AE0     		b	.L75
 1349              	.LVL96:
 1350              	.L77:
 520:Drivers/GD32E23x_standard_peripheral/Source/gd32e23x_adc.c ****     case ADC_INSERTED_CHANNEL_0:
 1351              		.loc 1 520 5 is_stmt 0 view .LVU341
 1352 0018 0020     		movs	r0, #0
 1353              	.LVL97:
 520:Drivers/GD32E23x_standard_peripheral/Source/gd32e23x_adc.c ****     case ADC_INSERTED_CHANNEL_0:
 1354              		.loc 1 520 5 view .LVU342
 1355 001a 08E0     		b	.L75
 1356              	.LVL98:
 1357              	.L72:
 520:Drivers/GD32E23x_standard_peripheral/Source/gd32e23x_adc.c ****     case ADC_INSERTED_CHANNEL_0:
 1358              		.loc 1 520 5 view .LVU343
 1359 001c 0328     		cmp	r0, #3
 1360 001e 05D1     		bne	.L78
 527:Drivers/GD32E23x_standard_peripheral/Source/gd32e23x_adc.c ****     case ADC_INSERTED_CHANNEL_2:
 528:Drivers/GD32E23x_standard_peripheral/Source/gd32e23x_adc.c ****         idata = ADC_IDATA2;
 529:Drivers/GD32E23x_standard_peripheral/Source/gd32e23x_adc.c ****         break;
 530:Drivers/GD32E23x_standard_peripheral/Source/gd32e23x_adc.c ****     case ADC_INSERTED_CHANNEL_3:
 531:Drivers/GD32E23x_standard_peripheral/Source/gd32e23x_adc.c ****         idata = ADC_IDATA3;
 1361              		.loc 1 531 9 is_stmt 1 view .LVU344
 1362              		.loc 1 531 15 is_stmt 0 view .LVU345
ARM GAS  /var/folders/rv/zq8s_02j1dj4vjvr1mm5zl2r0000gn/T//ccsprPZw.s 			page 36


 1363 0020 42F24843 		movw	r3, #9288
 1364 0024 C4F20103 		movt	r3, 16385
 1365 0028 1868     		ldr	r0, [r3]
 1366              	.LVL99:
 532:Drivers/GD32E23x_standard_peripheral/Source/gd32e23x_adc.c ****         break;
 1367              		.loc 1 532 9 is_stmt 1 view .LVU346
 1368 002a 00E0     		b	.L75
 1369              	.LVL100:
 1370              	.L78:
 520:Drivers/GD32E23x_standard_peripheral/Source/gd32e23x_adc.c ****     case ADC_INSERTED_CHANNEL_0:
 1371              		.loc 1 520 5 is_stmt 0 view .LVU347
 1372 002c 0020     		movs	r0, #0
 1373              	.LVL101:
 1374              	.L75:
 533:Drivers/GD32E23x_standard_peripheral/Source/gd32e23x_adc.c ****     default:
 534:Drivers/GD32E23x_standard_peripheral/Source/gd32e23x_adc.c ****         idata = 0U;
 535:Drivers/GD32E23x_standard_peripheral/Source/gd32e23x_adc.c ****         break;
 536:Drivers/GD32E23x_standard_peripheral/Source/gd32e23x_adc.c ****     }
 537:Drivers/GD32E23x_standard_peripheral/Source/gd32e23x_adc.c ****     return (uint16_t)idata;
 1375              		.loc 1 537 5 is_stmt 1 view .LVU348
 1376              		.loc 1 537 12 is_stmt 0 view .LVU349
 1377 002e 80B2     		uxth	r0, r0
 1378              	.LVL102:
 538:Drivers/GD32E23x_standard_peripheral/Source/gd32e23x_adc.c **** }
 1379              		.loc 1 538 1 view .LVU350
 1380              		@ sp needed
 1381 0030 7047     		bx	lr
 1382              	.LVL103:
 1383              	.L73:
 522:Drivers/GD32E23x_standard_peripheral/Source/gd32e23x_adc.c ****         break;
 1384              		.loc 1 522 9 is_stmt 1 view .LVU351
 522:Drivers/GD32E23x_standard_peripheral/Source/gd32e23x_adc.c ****         break;
 1385              		.loc 1 522 15 is_stmt 0 view .LVU352
 1386 0032 42F23C43 		movw	r3, #9276
 1387 0036 C4F20103 		movt	r3, 16385
 1388 003a 1868     		ldr	r0, [r3]
 1389              	.LVL104:
 523:Drivers/GD32E23x_standard_peripheral/Source/gd32e23x_adc.c ****     case ADC_INSERTED_CHANNEL_1:
 1390              		.loc 1 523 9 is_stmt 1 view .LVU353
 1391 003c F7E7     		b	.L75
 1392              	.LVL105:
 1393              	.L71:
 528:Drivers/GD32E23x_standard_peripheral/Source/gd32e23x_adc.c ****         break;
 1394              		.loc 1 528 9 view .LVU354
 528:Drivers/GD32E23x_standard_peripheral/Source/gd32e23x_adc.c ****         break;
 1395              		.loc 1 528 15 is_stmt 0 view .LVU355
 1396 003e 42F24443 		movw	r3, #9284
 1397 0042 C4F20103 		movt	r3, 16385
 1398 0046 1868     		ldr	r0, [r3]
 1399              	.LVL106:
 529:Drivers/GD32E23x_standard_peripheral/Source/gd32e23x_adc.c ****     case ADC_INSERTED_CHANNEL_3:
 1400              		.loc 1 529 9 is_stmt 1 view .LVU356
 1401 0048 F1E7     		b	.L75
 1402              		.cfi_endproc
 1403              	.LFE85:
 1405              		.section	.text.adc_flag_get,"ax",%progbits
 1406              		.align	1
ARM GAS  /var/folders/rv/zq8s_02j1dj4vjvr1mm5zl2r0000gn/T//ccsprPZw.s 			page 37


 1407              		.global	adc_flag_get
 1408              		.syntax unified
 1409              		.code	16
 1410              		.thumb_func
 1411              		.fpu softvfp
 1413              	adc_flag_get:
 1414              	.LVL107:
 1415              	.LFB86:
 539:Drivers/GD32E23x_standard_peripheral/Source/gd32e23x_adc.c **** 
 540:Drivers/GD32E23x_standard_peripheral/Source/gd32e23x_adc.c **** /*!
 541:Drivers/GD32E23x_standard_peripheral/Source/gd32e23x_adc.c ****     \brief      get the ADC flag bits
 542:Drivers/GD32E23x_standard_peripheral/Source/gd32e23x_adc.c ****     \param[in]  flag: the adc flag bits
 543:Drivers/GD32E23x_standard_peripheral/Source/gd32e23x_adc.c ****                 only one parameter can be selected which is shown as below:
 544:Drivers/GD32E23x_standard_peripheral/Source/gd32e23x_adc.c ****       \arg        ADC_FLAG_WDE: analog watchdog event flag
 545:Drivers/GD32E23x_standard_peripheral/Source/gd32e23x_adc.c ****       \arg        ADC_FLAG_EOC: end of group conversion flag
 546:Drivers/GD32E23x_standard_peripheral/Source/gd32e23x_adc.c ****       \arg        ADC_FLAG_EOIC: end of inserted group conversion flag
 547:Drivers/GD32E23x_standard_peripheral/Source/gd32e23x_adc.c ****       \arg        ADC_FLAG_STIC: start flag of inserted channel group
 548:Drivers/GD32E23x_standard_peripheral/Source/gd32e23x_adc.c ****       \arg        ADC_FLAG_STRC: start flag of regular channel group
 549:Drivers/GD32E23x_standard_peripheral/Source/gd32e23x_adc.c ****     \param[out] none
 550:Drivers/GD32E23x_standard_peripheral/Source/gd32e23x_adc.c ****     \retval     FlagStatus: SET or RESET
 551:Drivers/GD32E23x_standard_peripheral/Source/gd32e23x_adc.c **** */
 552:Drivers/GD32E23x_standard_peripheral/Source/gd32e23x_adc.c **** FlagStatus adc_flag_get(uint32_t flag)
 553:Drivers/GD32E23x_standard_peripheral/Source/gd32e23x_adc.c **** {
 1416              		.loc 1 553 1 view -0
 1417              		.cfi_startproc
 1418              		@ args = 0, pretend = 0, frame = 0
 1419              		@ frame_needed = 0, uses_anonymous_args = 0
 1420              		@ link register save eliminated.
 554:Drivers/GD32E23x_standard_peripheral/Source/gd32e23x_adc.c ****     FlagStatus reval = RESET;
 1421              		.loc 1 554 5 view .LVU358
 555:Drivers/GD32E23x_standard_peripheral/Source/gd32e23x_adc.c ****     
 556:Drivers/GD32E23x_standard_peripheral/Source/gd32e23x_adc.c ****     if(ADC_STAT & flag){
 1422              		.loc 1 556 5 view .LVU359
 1423              		.loc 1 556 8 is_stmt 0 view .LVU360
 1424 0000 42F20043 		movw	r3, #9216
 1425 0004 C4F20103 		movt	r3, 16385
 1426 0008 1B68     		ldr	r3, [r3]
 1427              		.loc 1 556 7 view .LVU361
 1428 000a 1842     		tst	r0, r3
 1429 000c 01D1     		bne	.L81
 554:Drivers/GD32E23x_standard_peripheral/Source/gd32e23x_adc.c ****     FlagStatus reval = RESET;
 1430              		.loc 1 554 16 view .LVU362
 1431 000e 0020     		movs	r0, #0
 1432              	.LVL108:
 1433              	.L80:
 557:Drivers/GD32E23x_standard_peripheral/Source/gd32e23x_adc.c ****         reval = SET;
 558:Drivers/GD32E23x_standard_peripheral/Source/gd32e23x_adc.c ****     }
 559:Drivers/GD32E23x_standard_peripheral/Source/gd32e23x_adc.c ****     return reval;
 1434              		.loc 1 559 5 is_stmt 1 view .LVU363
 560:Drivers/GD32E23x_standard_peripheral/Source/gd32e23x_adc.c **** }
 1435              		.loc 1 560 1 is_stmt 0 view .LVU364
 1436              		@ sp needed
 1437 0010 7047     		bx	lr
 1438              	.LVL109:
 1439              	.L81:
 557:Drivers/GD32E23x_standard_peripheral/Source/gd32e23x_adc.c ****         reval = SET;
 1440              		.loc 1 557 15 view .LVU365
ARM GAS  /var/folders/rv/zq8s_02j1dj4vjvr1mm5zl2r0000gn/T//ccsprPZw.s 			page 38


 1441 0012 0120     		movs	r0, #1
 1442              	.LVL110:
 557:Drivers/GD32E23x_standard_peripheral/Source/gd32e23x_adc.c ****         reval = SET;
 1443              		.loc 1 557 15 view .LVU366
 1444 0014 FCE7     		b	.L80
 1445              		.cfi_endproc
 1446              	.LFE86:
 1448              		.section	.text.adc_flag_clear,"ax",%progbits
 1449              		.align	1
 1450              		.global	adc_flag_clear
 1451              		.syntax unified
 1452              		.code	16
 1453              		.thumb_func
 1454              		.fpu softvfp
 1456              	adc_flag_clear:
 1457              	.LVL111:
 1458              	.LFB87:
 561:Drivers/GD32E23x_standard_peripheral/Source/gd32e23x_adc.c **** 
 562:Drivers/GD32E23x_standard_peripheral/Source/gd32e23x_adc.c **** /*!
 563:Drivers/GD32E23x_standard_peripheral/Source/gd32e23x_adc.c ****     \brief      clear the ADC flag 
 564:Drivers/GD32E23x_standard_peripheral/Source/gd32e23x_adc.c ****     \param[in]  flag: the adc flag 
 565:Drivers/GD32E23x_standard_peripheral/Source/gd32e23x_adc.c ****                 one or more parameters can be selected which is shown as below:
 566:Drivers/GD32E23x_standard_peripheral/Source/gd32e23x_adc.c ****       \arg        ADC_FLAG_WDE: analog watchdog event flag
 567:Drivers/GD32E23x_standard_peripheral/Source/gd32e23x_adc.c ****       \arg        ADC_FLAG_EOC: end of group conversion flag
 568:Drivers/GD32E23x_standard_peripheral/Source/gd32e23x_adc.c ****       \arg        ADC_FLAG_EOIC: end of inserted group conversion flag
 569:Drivers/GD32E23x_standard_peripheral/Source/gd32e23x_adc.c ****       \arg        ADC_FLAG_STIC: start flag of inserted channel group
 570:Drivers/GD32E23x_standard_peripheral/Source/gd32e23x_adc.c ****       \arg        ADC_FLAG_STRC: start flag of regular channel group
 571:Drivers/GD32E23x_standard_peripheral/Source/gd32e23x_adc.c ****     \param[out] none
 572:Drivers/GD32E23x_standard_peripheral/Source/gd32e23x_adc.c ****     \retval     none
 573:Drivers/GD32E23x_standard_peripheral/Source/gd32e23x_adc.c **** */
 574:Drivers/GD32E23x_standard_peripheral/Source/gd32e23x_adc.c **** void adc_flag_clear(uint32_t flag)
 575:Drivers/GD32E23x_standard_peripheral/Source/gd32e23x_adc.c **** {
 1459              		.loc 1 575 1 is_stmt 1 view -0
 1460              		.cfi_startproc
 1461              		@ args = 0, pretend = 0, frame = 0
 1462              		@ frame_needed = 0, uses_anonymous_args = 0
 1463              		@ link register save eliminated.
 576:Drivers/GD32E23x_standard_peripheral/Source/gd32e23x_adc.c ****     ADC_STAT &= ~((uint32_t)flag);
 1464              		.loc 1 576 5 view .LVU368
 1465              		.loc 1 576 14 is_stmt 0 view .LVU369
 1466 0000 42F20043 		movw	r3, #9216
 1467 0004 C4F20103 		movt	r3, 16385
 1468 0008 1A68     		ldr	r2, [r3]
 1469 000a 8243     		bics	r2, r0
 1470 000c 1A60     		str	r2, [r3]
 577:Drivers/GD32E23x_standard_peripheral/Source/gd32e23x_adc.c **** }
 1471              		.loc 1 577 1 view .LVU370
 1472              		@ sp needed
 1473 000e 7047     		bx	lr
 1474              		.cfi_endproc
 1475              	.LFE87:
 1477              		.section	.text.adc_interrupt_flag_get,"ax",%progbits
 1478              		.align	1
 1479              		.global	adc_interrupt_flag_get
 1480              		.syntax unified
 1481              		.code	16
 1482              		.thumb_func
ARM GAS  /var/folders/rv/zq8s_02j1dj4vjvr1mm5zl2r0000gn/T//ccsprPZw.s 			page 39


 1483              		.fpu softvfp
 1485              	adc_interrupt_flag_get:
 1486              	.LVL112:
 1487              	.LFB88:
 578:Drivers/GD32E23x_standard_peripheral/Source/gd32e23x_adc.c **** 
 579:Drivers/GD32E23x_standard_peripheral/Source/gd32e23x_adc.c **** /*!
 580:Drivers/GD32E23x_standard_peripheral/Source/gd32e23x_adc.c ****     \brief      get the ADC interrupt flag
 581:Drivers/GD32E23x_standard_peripheral/Source/gd32e23x_adc.c ****     \param[in]  flag: the adc interrupt flag
 582:Drivers/GD32E23x_standard_peripheral/Source/gd32e23x_adc.c ****                 only one parameter can be selected which is shown as below:
 583:Drivers/GD32E23x_standard_peripheral/Source/gd32e23x_adc.c ****       \arg        ADC_INT_FLAG_WDE: analog watchdog interrupt flag
 584:Drivers/GD32E23x_standard_peripheral/Source/gd32e23x_adc.c ****       \arg        ADC_INT_FLAG_EOC: end of group conversion interrupt flag
 585:Drivers/GD32E23x_standard_peripheral/Source/gd32e23x_adc.c ****       \arg        ADC_INT_FLAG_EOIC: end of inserted group conversion interrupt flag
 586:Drivers/GD32E23x_standard_peripheral/Source/gd32e23x_adc.c ****     \param[out] none
 587:Drivers/GD32E23x_standard_peripheral/Source/gd32e23x_adc.c ****     \retval     FlagStatus: SET or RESET
 588:Drivers/GD32E23x_standard_peripheral/Source/gd32e23x_adc.c **** */
 589:Drivers/GD32E23x_standard_peripheral/Source/gd32e23x_adc.c **** FlagStatus adc_interrupt_flag_get(uint32_t flag)
 590:Drivers/GD32E23x_standard_peripheral/Source/gd32e23x_adc.c **** {
 1488              		.loc 1 590 1 is_stmt 1 view -0
 1489              		.cfi_startproc
 1490              		@ args = 0, pretend = 0, frame = 0
 1491              		@ frame_needed = 0, uses_anonymous_args = 0
 1492              		@ link register save eliminated.
 591:Drivers/GD32E23x_standard_peripheral/Source/gd32e23x_adc.c ****     FlagStatus interrupt_flag = RESET;
 1493              		.loc 1 591 5 view .LVU372
 592:Drivers/GD32E23x_standard_peripheral/Source/gd32e23x_adc.c ****     uint32_t state;
 1494              		.loc 1 592 5 view .LVU373
 593:Drivers/GD32E23x_standard_peripheral/Source/gd32e23x_adc.c **** 
 594:Drivers/GD32E23x_standard_peripheral/Source/gd32e23x_adc.c ****     /* check the interrupt bits */
 595:Drivers/GD32E23x_standard_peripheral/Source/gd32e23x_adc.c ****     switch(flag){
 1495              		.loc 1 595 5 view .LVU374
 1496 0000 0228     		cmp	r0, #2
 1497 0002 16D0     		beq	.L84
 1498 0004 0428     		cmp	r0, #4
 1499 0006 25D0     		beq	.L85
 1500 0008 0128     		cmp	r0, #1
 1501 000a 01D0     		beq	.L94
 1502 000c 0020     		movs	r0, #0
 1503              	.LVL113:
 1504              	.L86:
 596:Drivers/GD32E23x_standard_peripheral/Source/gd32e23x_adc.c ****     case ADC_INT_FLAG_WDE:
 597:Drivers/GD32E23x_standard_peripheral/Source/gd32e23x_adc.c ****         state = ADC_STAT & ADC_STAT_WDE;
 598:Drivers/GD32E23x_standard_peripheral/Source/gd32e23x_adc.c ****         if((ADC_CTL0 & ADC_CTL0_WDEIE) && state){
 599:Drivers/GD32E23x_standard_peripheral/Source/gd32e23x_adc.c ****           interrupt_flag = SET;
 600:Drivers/GD32E23x_standard_peripheral/Source/gd32e23x_adc.c ****         }
 601:Drivers/GD32E23x_standard_peripheral/Source/gd32e23x_adc.c ****         break;
 602:Drivers/GD32E23x_standard_peripheral/Source/gd32e23x_adc.c ****     case ADC_INT_FLAG_EOC:
 603:Drivers/GD32E23x_standard_peripheral/Source/gd32e23x_adc.c ****         state = ADC_STAT & ADC_STAT_EOC;
 604:Drivers/GD32E23x_standard_peripheral/Source/gd32e23x_adc.c ****         if((ADC_CTL0 & ADC_CTL0_EOCIE) && state){
 605:Drivers/GD32E23x_standard_peripheral/Source/gd32e23x_adc.c ****             interrupt_flag = SET;
 606:Drivers/GD32E23x_standard_peripheral/Source/gd32e23x_adc.c ****           }
 607:Drivers/GD32E23x_standard_peripheral/Source/gd32e23x_adc.c ****         break;
 608:Drivers/GD32E23x_standard_peripheral/Source/gd32e23x_adc.c ****     case ADC_INT_FLAG_EOIC:
 609:Drivers/GD32E23x_standard_peripheral/Source/gd32e23x_adc.c ****         state = ADC_STAT & ADC_STAT_EOIC;
 610:Drivers/GD32E23x_standard_peripheral/Source/gd32e23x_adc.c ****         if((ADC_CTL0 & ADC_CTL0_EOICIE) && state){
 611:Drivers/GD32E23x_standard_peripheral/Source/gd32e23x_adc.c ****             interrupt_flag = SET;
 612:Drivers/GD32E23x_standard_peripheral/Source/gd32e23x_adc.c ****         }
 613:Drivers/GD32E23x_standard_peripheral/Source/gd32e23x_adc.c ****         break;
ARM GAS  /var/folders/rv/zq8s_02j1dj4vjvr1mm5zl2r0000gn/T//ccsprPZw.s 			page 40


 614:Drivers/GD32E23x_standard_peripheral/Source/gd32e23x_adc.c ****     default:
 615:Drivers/GD32E23x_standard_peripheral/Source/gd32e23x_adc.c ****         break;
 616:Drivers/GD32E23x_standard_peripheral/Source/gd32e23x_adc.c ****     }
 617:Drivers/GD32E23x_standard_peripheral/Source/gd32e23x_adc.c ****     return interrupt_flag;
 1505              		.loc 1 617 5 view .LVU375
 618:Drivers/GD32E23x_standard_peripheral/Source/gd32e23x_adc.c **** }
 1506              		.loc 1 618 1 is_stmt 0 view .LVU376
 1507              		@ sp needed
 1508 000e 7047     		bx	lr
 1509              	.LVL114:
 1510              	.L94:
 597:Drivers/GD32E23x_standard_peripheral/Source/gd32e23x_adc.c ****         if((ADC_CTL0 & ADC_CTL0_WDEIE) && state){
 1511              		.loc 1 597 9 is_stmt 1 view .LVU377
 597:Drivers/GD32E23x_standard_peripheral/Source/gd32e23x_adc.c ****         if((ADC_CTL0 & ADC_CTL0_WDEIE) && state){
 1512              		.loc 1 597 17 is_stmt 0 view .LVU378
 1513 0010 42F20043 		movw	r3, #9216
 1514 0014 C4F20103 		movt	r3, 16385
 1515 0018 1A68     		ldr	r2, [r3]
 597:Drivers/GD32E23x_standard_peripheral/Source/gd32e23x_adc.c ****         if((ADC_CTL0 & ADC_CTL0_WDEIE) && state){
 1516              		.loc 1 597 15 view .LVU379
 1517 001a 0123     		movs	r3, #1
 1518 001c 1340     		ands	r3, r2
 1519              	.LVL115:
 598:Drivers/GD32E23x_standard_peripheral/Source/gd32e23x_adc.c ****           interrupt_flag = SET;
 1520              		.loc 1 598 9 is_stmt 1 view .LVU380
 598:Drivers/GD32E23x_standard_peripheral/Source/gd32e23x_adc.c ****           interrupt_flag = SET;
 1521              		.loc 1 598 13 is_stmt 0 view .LVU381
 1522 001e 42F20442 		movw	r2, #9220
 1523 0022 C4F20102 		movt	r2, 16385
 1524 0026 1268     		ldr	r2, [r2]
 598:Drivers/GD32E23x_standard_peripheral/Source/gd32e23x_adc.c ****           interrupt_flag = SET;
 1525              		.loc 1 598 11 view .LVU382
 1526 0028 5206     		lsls	r2, r2, #25
 1527 002a 24D5     		bpl	.L88
 598:Drivers/GD32E23x_standard_peripheral/Source/gd32e23x_adc.c ****           interrupt_flag = SET;
 1528              		.loc 1 598 40 discriminator 1 view .LVU383
 1529 002c 2BBB     		cbnz	r3, .L89
 591:Drivers/GD32E23x_standard_peripheral/Source/gd32e23x_adc.c ****     uint32_t state;
 1530              		.loc 1 591 16 view .LVU384
 1531 002e 0020     		movs	r0, #0
 1532              	.LVL116:
 591:Drivers/GD32E23x_standard_peripheral/Source/gd32e23x_adc.c ****     uint32_t state;
 1533              		.loc 1 591 16 view .LVU385
 1534 0030 EDE7     		b	.L86
 1535              	.LVL117:
 1536              	.L84:
 603:Drivers/GD32E23x_standard_peripheral/Source/gd32e23x_adc.c ****         if((ADC_CTL0 & ADC_CTL0_EOCIE) && state){
 1537              		.loc 1 603 9 is_stmt 1 view .LVU386
 603:Drivers/GD32E23x_standard_peripheral/Source/gd32e23x_adc.c ****         if((ADC_CTL0 & ADC_CTL0_EOCIE) && state){
 1538              		.loc 1 603 17 is_stmt 0 view .LVU387
 1539 0032 42F20043 		movw	r3, #9216
 1540 0036 C4F20103 		movt	r3, 16385
 1541 003a 1A68     		ldr	r2, [r3]
 603:Drivers/GD32E23x_standard_peripheral/Source/gd32e23x_adc.c ****         if((ADC_CTL0 & ADC_CTL0_EOCIE) && state){
 1542              		.loc 1 603 15 view .LVU388
 1543 003c 0223     		movs	r3, #2
 1544 003e 1340     		ands	r3, r2
ARM GAS  /var/folders/rv/zq8s_02j1dj4vjvr1mm5zl2r0000gn/T//ccsprPZw.s 			page 41


 1545              	.LVL118:
 604:Drivers/GD32E23x_standard_peripheral/Source/gd32e23x_adc.c ****             interrupt_flag = SET;
 1546              		.loc 1 604 9 is_stmt 1 view .LVU389
 604:Drivers/GD32E23x_standard_peripheral/Source/gd32e23x_adc.c ****             interrupt_flag = SET;
 1547              		.loc 1 604 13 is_stmt 0 view .LVU390
 1548 0040 42F20442 		movw	r2, #9220
 1549 0044 C4F20102 		movt	r2, 16385
 1550 0048 1268     		ldr	r2, [r2]
 604:Drivers/GD32E23x_standard_peripheral/Source/gd32e23x_adc.c ****             interrupt_flag = SET;
 1551              		.loc 1 604 11 view .LVU391
 1552 004a 9206     		lsls	r2, r2, #26
 1553 004c 17D5     		bpl	.L90
 604:Drivers/GD32E23x_standard_peripheral/Source/gd32e23x_adc.c ****             interrupt_flag = SET;
 1554              		.loc 1 604 40 discriminator 1 view .LVU392
 1555 004e C3B9     		cbnz	r3, .L91
 591:Drivers/GD32E23x_standard_peripheral/Source/gd32e23x_adc.c ****     uint32_t state;
 1556              		.loc 1 591 16 view .LVU393
 1557 0050 0020     		movs	r0, #0
 1558              	.LVL119:
 591:Drivers/GD32E23x_standard_peripheral/Source/gd32e23x_adc.c ****     uint32_t state;
 1559              		.loc 1 591 16 view .LVU394
 1560 0052 DCE7     		b	.L86
 1561              	.LVL120:
 1562              	.L85:
 609:Drivers/GD32E23x_standard_peripheral/Source/gd32e23x_adc.c ****         if((ADC_CTL0 & ADC_CTL0_EOICIE) && state){
 1563              		.loc 1 609 9 is_stmt 1 view .LVU395
 609:Drivers/GD32E23x_standard_peripheral/Source/gd32e23x_adc.c ****         if((ADC_CTL0 & ADC_CTL0_EOICIE) && state){
 1564              		.loc 1 609 17 is_stmt 0 view .LVU396
 1565 0054 42F20043 		movw	r3, #9216
 1566 0058 C4F20103 		movt	r3, 16385
 1567 005c 1A68     		ldr	r2, [r3]
 609:Drivers/GD32E23x_standard_peripheral/Source/gd32e23x_adc.c ****         if((ADC_CTL0 & ADC_CTL0_EOICIE) && state){
 1568              		.loc 1 609 15 view .LVU397
 1569 005e 0423     		movs	r3, #4
 1570 0060 1340     		ands	r3, r2
 1571              	.LVL121:
 610:Drivers/GD32E23x_standard_peripheral/Source/gd32e23x_adc.c ****             interrupt_flag = SET;
 1572              		.loc 1 610 9 is_stmt 1 view .LVU398
 610:Drivers/GD32E23x_standard_peripheral/Source/gd32e23x_adc.c ****             interrupt_flag = SET;
 1573              		.loc 1 610 13 is_stmt 0 view .LVU399
 1574 0062 42F20442 		movw	r2, #9220
 1575 0066 C4F20102 		movt	r2, 16385
 1576 006a 1268     		ldr	r2, [r2]
 610:Drivers/GD32E23x_standard_peripheral/Source/gd32e23x_adc.c ****             interrupt_flag = SET;
 1577              		.loc 1 610 11 view .LVU400
 1578 006c 1206     		lsls	r2, r2, #24
 1579 006e 0AD5     		bpl	.L92
 610:Drivers/GD32E23x_standard_peripheral/Source/gd32e23x_adc.c ****             interrupt_flag = SET;
 1580              		.loc 1 610 41 discriminator 1 view .LVU401
 1581 0070 5BB9     		cbnz	r3, .L93
 591:Drivers/GD32E23x_standard_peripheral/Source/gd32e23x_adc.c ****     uint32_t state;
 1582              		.loc 1 591 16 view .LVU402
 1583 0072 0020     		movs	r0, #0
 1584              	.LVL122:
 591:Drivers/GD32E23x_standard_peripheral/Source/gd32e23x_adc.c ****     uint32_t state;
 1585              		.loc 1 591 16 view .LVU403
 1586 0074 CBE7     		b	.L86
ARM GAS  /var/folders/rv/zq8s_02j1dj4vjvr1mm5zl2r0000gn/T//ccsprPZw.s 			page 42


 1587              	.LVL123:
 1588              	.L88:
 591:Drivers/GD32E23x_standard_peripheral/Source/gd32e23x_adc.c ****     uint32_t state;
 1589              		.loc 1 591 16 view .LVU404
 1590 0076 0020     		movs	r0, #0
 1591              	.LVL124:
 591:Drivers/GD32E23x_standard_peripheral/Source/gd32e23x_adc.c ****     uint32_t state;
 1592              		.loc 1 591 16 view .LVU405
 1593 0078 C9E7     		b	.L86
 1594              	.LVL125:
 1595              	.L89:
 599:Drivers/GD32E23x_standard_peripheral/Source/gd32e23x_adc.c ****         }
 1596              		.loc 1 599 26 view .LVU406
 1597 007a 0120     		movs	r0, #1
 1598              	.LVL126:
 599:Drivers/GD32E23x_standard_peripheral/Source/gd32e23x_adc.c ****         }
 1599              		.loc 1 599 26 view .LVU407
 1600 007c C7E7     		b	.L86
 1601              	.LVL127:
 1602              	.L90:
 591:Drivers/GD32E23x_standard_peripheral/Source/gd32e23x_adc.c ****     uint32_t state;
 1603              		.loc 1 591 16 view .LVU408
 1604 007e 0020     		movs	r0, #0
 1605              	.LVL128:
 591:Drivers/GD32E23x_standard_peripheral/Source/gd32e23x_adc.c ****     uint32_t state;
 1606              		.loc 1 591 16 view .LVU409
 1607 0080 C5E7     		b	.L86
 1608              	.LVL129:
 1609              	.L91:
 605:Drivers/GD32E23x_standard_peripheral/Source/gd32e23x_adc.c ****           }
 1610              		.loc 1 605 28 view .LVU410
 1611 0082 0120     		movs	r0, #1
 1612              	.LVL130:
 605:Drivers/GD32E23x_standard_peripheral/Source/gd32e23x_adc.c ****           }
 1613              		.loc 1 605 28 view .LVU411
 1614 0084 C3E7     		b	.L86
 1615              	.LVL131:
 1616              	.L92:
 591:Drivers/GD32E23x_standard_peripheral/Source/gd32e23x_adc.c ****     uint32_t state;
 1617              		.loc 1 591 16 view .LVU412
 1618 0086 0020     		movs	r0, #0
 1619              	.LVL132:
 591:Drivers/GD32E23x_standard_peripheral/Source/gd32e23x_adc.c ****     uint32_t state;
 1620              		.loc 1 591 16 view .LVU413
 1621 0088 C1E7     		b	.L86
 1622              	.LVL133:
 1623              	.L93:
 611:Drivers/GD32E23x_standard_peripheral/Source/gd32e23x_adc.c ****         }
 1624              		.loc 1 611 28 view .LVU414
 1625 008a 0120     		movs	r0, #1
 1626              	.LVL134:
 611:Drivers/GD32E23x_standard_peripheral/Source/gd32e23x_adc.c ****         }
 1627              		.loc 1 611 28 view .LVU415
 1628 008c BFE7     		b	.L86
 1629              		.cfi_endproc
 1630              	.LFE88:
 1632              		.section	.text.adc_interrupt_flag_clear,"ax",%progbits
ARM GAS  /var/folders/rv/zq8s_02j1dj4vjvr1mm5zl2r0000gn/T//ccsprPZw.s 			page 43


 1633              		.align	1
 1634              		.global	adc_interrupt_flag_clear
 1635              		.syntax unified
 1636              		.code	16
 1637              		.thumb_func
 1638              		.fpu softvfp
 1640              	adc_interrupt_flag_clear:
 1641              	.LVL135:
 1642              	.LFB89:
 619:Drivers/GD32E23x_standard_peripheral/Source/gd32e23x_adc.c **** 
 620:Drivers/GD32E23x_standard_peripheral/Source/gd32e23x_adc.c **** /*!
 621:Drivers/GD32E23x_standard_peripheral/Source/gd32e23x_adc.c ****     \brief      clear ADC interrupt flag
 622:Drivers/GD32E23x_standard_peripheral/Source/gd32e23x_adc.c ****     \param[in]  flag: the adc interrupt flag
 623:Drivers/GD32E23x_standard_peripheral/Source/gd32e23x_adc.c ****                 only one parameter can be selected which is shown as below:
 624:Drivers/GD32E23x_standard_peripheral/Source/gd32e23x_adc.c ****       \arg        ADC_INT_FLAG_WDE: analog watchdog interrupt flag
 625:Drivers/GD32E23x_standard_peripheral/Source/gd32e23x_adc.c ****       \arg        ADC_INT_FLAG_EOC: end of group conversion interrupt flag
 626:Drivers/GD32E23x_standard_peripheral/Source/gd32e23x_adc.c ****       \arg        ADC_INT_FLAG_EOIC: end of inserted group conversion interrupt flag
 627:Drivers/GD32E23x_standard_peripheral/Source/gd32e23x_adc.c ****     \param[out] none
 628:Drivers/GD32E23x_standard_peripheral/Source/gd32e23x_adc.c ****     \retval     none
 629:Drivers/GD32E23x_standard_peripheral/Source/gd32e23x_adc.c **** */
 630:Drivers/GD32E23x_standard_peripheral/Source/gd32e23x_adc.c **** void adc_interrupt_flag_clear(uint32_t flag)
 631:Drivers/GD32E23x_standard_peripheral/Source/gd32e23x_adc.c **** {
 1643              		.loc 1 631 1 is_stmt 1 view -0
 1644              		.cfi_startproc
 1645              		@ args = 0, pretend = 0, frame = 0
 1646              		@ frame_needed = 0, uses_anonymous_args = 0
 1647              		@ link register save eliminated.
 632:Drivers/GD32E23x_standard_peripheral/Source/gd32e23x_adc.c ****     ADC_STAT &= ~((uint32_t)flag);
 1648              		.loc 1 632 5 view .LVU417
 1649              		.loc 1 632 14 is_stmt 0 view .LVU418
 1650 0000 42F20043 		movw	r3, #9216
 1651 0004 C4F20103 		movt	r3, 16385
 1652 0008 1A68     		ldr	r2, [r3]
 1653 000a 8243     		bics	r2, r0
 1654 000c 1A60     		str	r2, [r3]
 633:Drivers/GD32E23x_standard_peripheral/Source/gd32e23x_adc.c **** }
 1655              		.loc 1 633 1 view .LVU419
 1656              		@ sp needed
 1657 000e 7047     		bx	lr
 1658              		.cfi_endproc
 1659              	.LFE89:
 1661              		.section	.text.adc_interrupt_enable,"ax",%progbits
 1662              		.align	1
 1663              		.global	adc_interrupt_enable
 1664              		.syntax unified
 1665              		.code	16
 1666              		.thumb_func
 1667              		.fpu softvfp
 1669              	adc_interrupt_enable:
 1670              	.LVL136:
 1671              	.LFB90:
 634:Drivers/GD32E23x_standard_peripheral/Source/gd32e23x_adc.c **** 
 635:Drivers/GD32E23x_standard_peripheral/Source/gd32e23x_adc.c **** /*!
 636:Drivers/GD32E23x_standard_peripheral/Source/gd32e23x_adc.c ****     \brief      enable ADC interrupt 
 637:Drivers/GD32E23x_standard_peripheral/Source/gd32e23x_adc.c ****     \param[in]  interrupt: the adc interrupt
 638:Drivers/GD32E23x_standard_peripheral/Source/gd32e23x_adc.c ****                 one or more parameters can be selected which is shown as below:
 639:Drivers/GD32E23x_standard_peripheral/Source/gd32e23x_adc.c ****       \arg        ADC_INT_WDE: analog watchdog interrupt 
ARM GAS  /var/folders/rv/zq8s_02j1dj4vjvr1mm5zl2r0000gn/T//ccsprPZw.s 			page 44


 640:Drivers/GD32E23x_standard_peripheral/Source/gd32e23x_adc.c ****       \arg        ADC_INT_EOC: end of group conversion interrupt 
 641:Drivers/GD32E23x_standard_peripheral/Source/gd32e23x_adc.c ****       \arg        ADC_INT_EOIC: end of inserted group conversion interrupt 
 642:Drivers/GD32E23x_standard_peripheral/Source/gd32e23x_adc.c ****     \param[out] none
 643:Drivers/GD32E23x_standard_peripheral/Source/gd32e23x_adc.c ****     \retval     none
 644:Drivers/GD32E23x_standard_peripheral/Source/gd32e23x_adc.c **** */
 645:Drivers/GD32E23x_standard_peripheral/Source/gd32e23x_adc.c **** void adc_interrupt_enable(uint32_t interrupt)
 646:Drivers/GD32E23x_standard_peripheral/Source/gd32e23x_adc.c **** {
 1672              		.loc 1 646 1 is_stmt 1 view -0
 1673              		.cfi_startproc
 1674              		@ args = 0, pretend = 0, frame = 0
 1675              		@ frame_needed = 0, uses_anonymous_args = 0
 1676              		@ link register save eliminated.
 647:Drivers/GD32E23x_standard_peripheral/Source/gd32e23x_adc.c ****     /* enable analog watchdog interrupt */
 648:Drivers/GD32E23x_standard_peripheral/Source/gd32e23x_adc.c ****     if(RESET != (interrupt & ADC_INT_WDE)){
 1677              		.loc 1 648 5 view .LVU421
 1678              		.loc 1 648 7 is_stmt 0 view .LVU422
 1679 0000 C307     		lsls	r3, r0, #31
 1680 0002 07D5     		bpl	.L97
 649:Drivers/GD32E23x_standard_peripheral/Source/gd32e23x_adc.c ****         ADC_CTL0 |= (uint32_t)ADC_CTL0_WDEIE;
 1681              		.loc 1 649 9 is_stmt 1 view .LVU423
 1682              		.loc 1 649 18 is_stmt 0 view .LVU424
 1683 0004 42F20443 		movw	r3, #9220
 1684 0008 C4F20103 		movt	r3, 16385
 1685 000c 1A68     		ldr	r2, [r3]
 1686 000e 4021     		movs	r1, #64
 1687 0010 0A43     		orrs	r2, r1
 1688 0012 1A60     		str	r2, [r3]
 1689              	.L97:
 650:Drivers/GD32E23x_standard_peripheral/Source/gd32e23x_adc.c ****     }  
 651:Drivers/GD32E23x_standard_peripheral/Source/gd32e23x_adc.c **** 
 652:Drivers/GD32E23x_standard_peripheral/Source/gd32e23x_adc.c ****     /* enable end of group conversion interrupt */
 653:Drivers/GD32E23x_standard_peripheral/Source/gd32e23x_adc.c ****     if(RESET != (interrupt & ADC_INT_EOC)){
 1690              		.loc 1 653 5 is_stmt 1 view .LVU425
 1691              		.loc 1 653 7 is_stmt 0 view .LVU426
 1692 0014 8307     		lsls	r3, r0, #30
 1693 0016 07D5     		bpl	.L98
 654:Drivers/GD32E23x_standard_peripheral/Source/gd32e23x_adc.c ****         ADC_CTL0 |= (uint32_t)ADC_CTL0_EOCIE;
 1694              		.loc 1 654 9 is_stmt 1 view .LVU427
 1695              		.loc 1 654 18 is_stmt 0 view .LVU428
 1696 0018 42F20443 		movw	r3, #9220
 1697 001c C4F20103 		movt	r3, 16385
 1698 0020 1A68     		ldr	r2, [r3]
 1699 0022 2021     		movs	r1, #32
 1700 0024 0A43     		orrs	r2, r1
 1701 0026 1A60     		str	r2, [r3]
 1702              	.L98:
 655:Drivers/GD32E23x_standard_peripheral/Source/gd32e23x_adc.c ****     }  
 656:Drivers/GD32E23x_standard_peripheral/Source/gd32e23x_adc.c **** 
 657:Drivers/GD32E23x_standard_peripheral/Source/gd32e23x_adc.c ****     /* enable end of inserted group conversion interrupt */
 658:Drivers/GD32E23x_standard_peripheral/Source/gd32e23x_adc.c ****     if(RESET != (interrupt & ADC_INT_EOIC)){
 1703              		.loc 1 658 5 is_stmt 1 view .LVU429
 1704              		.loc 1 658 7 is_stmt 0 view .LVU430
 1705 0028 4307     		lsls	r3, r0, #29
 1706 002a 07D5     		bpl	.L96
 659:Drivers/GD32E23x_standard_peripheral/Source/gd32e23x_adc.c ****         ADC_CTL0 |= (uint32_t)ADC_CTL0_EOICIE;
 1707              		.loc 1 659 9 is_stmt 1 view .LVU431
 1708              		.loc 1 659 18 is_stmt 0 view .LVU432
ARM GAS  /var/folders/rv/zq8s_02j1dj4vjvr1mm5zl2r0000gn/T//ccsprPZw.s 			page 45


 1709 002c 42F20443 		movw	r3, #9220
 1710 0030 C4F20103 		movt	r3, 16385
 1711 0034 1A68     		ldr	r2, [r3]
 1712 0036 8021     		movs	r1, #128
 1713 0038 0A43     		orrs	r2, r1
 1714 003a 1A60     		str	r2, [r3]
 1715              	.L96:
 660:Drivers/GD32E23x_standard_peripheral/Source/gd32e23x_adc.c ****     }
 661:Drivers/GD32E23x_standard_peripheral/Source/gd32e23x_adc.c **** }
 1716              		.loc 1 661 1 view .LVU433
 1717              		@ sp needed
 1718 003c 7047     		bx	lr
 1719              		.cfi_endproc
 1720              	.LFE90:
 1722              		.section	.text.adc_interrupt_disable,"ax",%progbits
 1723              		.align	1
 1724              		.global	adc_interrupt_disable
 1725              		.syntax unified
 1726              		.code	16
 1727              		.thumb_func
 1728              		.fpu softvfp
 1730              	adc_interrupt_disable:
 1731              	.LVL137:
 1732              	.LFB91:
 662:Drivers/GD32E23x_standard_peripheral/Source/gd32e23x_adc.c **** 
 663:Drivers/GD32E23x_standard_peripheral/Source/gd32e23x_adc.c **** /*!
 664:Drivers/GD32E23x_standard_peripheral/Source/gd32e23x_adc.c ****     \brief      disable ADC interrupt 
 665:Drivers/GD32E23x_standard_peripheral/Source/gd32e23x_adc.c ****     \param[in]  interrupt: the adc interrupt flag
 666:Drivers/GD32E23x_standard_peripheral/Source/gd32e23x_adc.c ****                 one or more parameters can be selected which is shown as below:
 667:Drivers/GD32E23x_standard_peripheral/Source/gd32e23x_adc.c ****       \arg        ADC_INT_WDE: analog watchdog interrupt 
 668:Drivers/GD32E23x_standard_peripheral/Source/gd32e23x_adc.c ****       \arg        ADC_INT_EOC: end of group conversion interrupt 
 669:Drivers/GD32E23x_standard_peripheral/Source/gd32e23x_adc.c ****       \arg        ADC_INT_EOIC: end of inserted group conversion interrupt 
 670:Drivers/GD32E23x_standard_peripheral/Source/gd32e23x_adc.c ****     \param[out] none
 671:Drivers/GD32E23x_standard_peripheral/Source/gd32e23x_adc.c ****     \retval     none
 672:Drivers/GD32E23x_standard_peripheral/Source/gd32e23x_adc.c **** */
 673:Drivers/GD32E23x_standard_peripheral/Source/gd32e23x_adc.c **** void adc_interrupt_disable(uint32_t interrupt)
 674:Drivers/GD32E23x_standard_peripheral/Source/gd32e23x_adc.c **** {  
 1733              		.loc 1 674 1 is_stmt 1 view -0
 1734              		.cfi_startproc
 1735              		@ args = 0, pretend = 0, frame = 0
 1736              		@ frame_needed = 0, uses_anonymous_args = 0
 1737              		@ link register save eliminated.
 675:Drivers/GD32E23x_standard_peripheral/Source/gd32e23x_adc.c ****     /* disable analog watchdog interrupt */
 676:Drivers/GD32E23x_standard_peripheral/Source/gd32e23x_adc.c ****     if(RESET != (interrupt & ADC_INT_WDE)){
 1738              		.loc 1 676 5 view .LVU435
 1739              		.loc 1 676 7 is_stmt 0 view .LVU436
 1740 0000 C307     		lsls	r3, r0, #31
 1741 0002 07D5     		bpl	.L101
 677:Drivers/GD32E23x_standard_peripheral/Source/gd32e23x_adc.c ****         ADC_CTL0 &= ~(uint32_t)ADC_CTL0_WDEIE;
 1742              		.loc 1 677 9 is_stmt 1 view .LVU437
 1743              		.loc 1 677 18 is_stmt 0 view .LVU438
 1744 0004 42F20443 		movw	r3, #9220
 1745 0008 C4F20103 		movt	r3, 16385
 1746 000c 1A68     		ldr	r2, [r3]
 1747 000e 4021     		movs	r1, #64
 1748 0010 8A43     		bics	r2, r1
 1749 0012 1A60     		str	r2, [r3]
ARM GAS  /var/folders/rv/zq8s_02j1dj4vjvr1mm5zl2r0000gn/T//ccsprPZw.s 			page 46


 1750              	.L101:
 678:Drivers/GD32E23x_standard_peripheral/Source/gd32e23x_adc.c ****     }
 679:Drivers/GD32E23x_standard_peripheral/Source/gd32e23x_adc.c ****     
 680:Drivers/GD32E23x_standard_peripheral/Source/gd32e23x_adc.c ****     /* disable end of group conversion interrupt */
 681:Drivers/GD32E23x_standard_peripheral/Source/gd32e23x_adc.c ****     if(RESET != (interrupt & ADC_INT_EOC)){
 1751              		.loc 1 681 5 is_stmt 1 view .LVU439
 1752              		.loc 1 681 7 is_stmt 0 view .LVU440
 1753 0014 8307     		lsls	r3, r0, #30
 1754 0016 07D5     		bpl	.L102
 682:Drivers/GD32E23x_standard_peripheral/Source/gd32e23x_adc.c ****         ADC_CTL0 &= ~(uint32_t)ADC_CTL0_EOCIE;
 1755              		.loc 1 682 9 is_stmt 1 view .LVU441
 1756              		.loc 1 682 18 is_stmt 0 view .LVU442
 1757 0018 42F20443 		movw	r3, #9220
 1758 001c C4F20103 		movt	r3, 16385
 1759 0020 1A68     		ldr	r2, [r3]
 1760 0022 2021     		movs	r1, #32
 1761 0024 8A43     		bics	r2, r1
 1762 0026 1A60     		str	r2, [r3]
 1763              	.L102:
 683:Drivers/GD32E23x_standard_peripheral/Source/gd32e23x_adc.c ****     }
 684:Drivers/GD32E23x_standard_peripheral/Source/gd32e23x_adc.c ****     
 685:Drivers/GD32E23x_standard_peripheral/Source/gd32e23x_adc.c ****     /* disable end of inserted group conversion interrupt */
 686:Drivers/GD32E23x_standard_peripheral/Source/gd32e23x_adc.c ****     if(RESET != (interrupt & ADC_INT_EOIC)){
 1764              		.loc 1 686 5 is_stmt 1 view .LVU443
 1765              		.loc 1 686 7 is_stmt 0 view .LVU444
 1766 0028 4307     		lsls	r3, r0, #29
 1767 002a 07D5     		bpl	.L100
 687:Drivers/GD32E23x_standard_peripheral/Source/gd32e23x_adc.c ****         ADC_CTL0 &= ~(uint32_t)ADC_CTL0_EOICIE;
 1768              		.loc 1 687 9 is_stmt 1 view .LVU445
 1769              		.loc 1 687 18 is_stmt 0 view .LVU446
 1770 002c 42F20443 		movw	r3, #9220
 1771 0030 C4F20103 		movt	r3, 16385
 1772 0034 1A68     		ldr	r2, [r3]
 1773 0036 8021     		movs	r1, #128
 1774 0038 8A43     		bics	r2, r1
 1775 003a 1A60     		str	r2, [r3]
 1776              	.L100:
 688:Drivers/GD32E23x_standard_peripheral/Source/gd32e23x_adc.c ****     }
 689:Drivers/GD32E23x_standard_peripheral/Source/gd32e23x_adc.c **** }
 1777              		.loc 1 689 1 view .LVU447
 1778              		@ sp needed
 1779 003c 7047     		bx	lr
 1780              		.cfi_endproc
 1781              	.LFE91:
 1783              		.section	.text.adc_watchdog_single_channel_enable,"ax",%progbits
 1784              		.align	1
 1785              		.global	adc_watchdog_single_channel_enable
 1786              		.syntax unified
 1787              		.code	16
 1788              		.thumb_func
 1789              		.fpu softvfp
 1791              	adc_watchdog_single_channel_enable:
 1792              	.LVL138:
 1793              	.LFB92:
 690:Drivers/GD32E23x_standard_peripheral/Source/gd32e23x_adc.c **** 
 691:Drivers/GD32E23x_standard_peripheral/Source/gd32e23x_adc.c **** /*!
 692:Drivers/GD32E23x_standard_peripheral/Source/gd32e23x_adc.c ****     \brief      configure ADC analog watchdog single channel 
ARM GAS  /var/folders/rv/zq8s_02j1dj4vjvr1mm5zl2r0000gn/T//ccsprPZw.s 			page 47


 693:Drivers/GD32E23x_standard_peripheral/Source/gd32e23x_adc.c ****     \param[in]  channel: the selected ADC channel
 694:Drivers/GD32E23x_standard_peripheral/Source/gd32e23x_adc.c ****                 only one parameter can be selected which is shown as below:
 695:Drivers/GD32E23x_standard_peripheral/Source/gd32e23x_adc.c ****       \arg        ADC_CHANNEL_x(x=0..9,16,17): ADC Channelx
 696:Drivers/GD32E23x_standard_peripheral/Source/gd32e23x_adc.c ****     \param[out] none
 697:Drivers/GD32E23x_standard_peripheral/Source/gd32e23x_adc.c ****     \retval     none
 698:Drivers/GD32E23x_standard_peripheral/Source/gd32e23x_adc.c **** */
 699:Drivers/GD32E23x_standard_peripheral/Source/gd32e23x_adc.c **** void adc_watchdog_single_channel_enable(uint8_t channel)
 700:Drivers/GD32E23x_standard_peripheral/Source/gd32e23x_adc.c **** {
 1794              		.loc 1 700 1 is_stmt 1 view -0
 1795              		.cfi_startproc
 1796              		@ args = 0, pretend = 0, frame = 0
 1797              		@ frame_needed = 0, uses_anonymous_args = 0
 1798              		.loc 1 700 1 is_stmt 0 view .LVU449
 1799 0000 10B5     		push	{r4, lr}
 1800              	.LCFI4:
 1801              		.cfi_def_cfa_offset 8
 1802              		.cfi_offset 4, -8
 1803              		.cfi_offset 14, -4
 701:Drivers/GD32E23x_standard_peripheral/Source/gd32e23x_adc.c ****     ADC_CTL0 &= (uint32_t)~(ADC_CTL0_RWDEN | ADC_CTL0_IWDEN | ADC_CTL0_WDSC | ADC_CTL0_WDCHSEL);
 1804              		.loc 1 701 5 is_stmt 1 view .LVU450
 1805              		.loc 1 701 14 is_stmt 0 view .LVU451
 1806 0002 42F20443 		movw	r3, #9220
 1807 0006 C4F20103 		movt	r3, 16385
 1808 000a 1968     		ldr	r1, [r3]
 1809 000c 4FF6E054 		movw	r4, #64992
 1810 0010 CFF63F74 		movt	r4, 65343
 1811 0014 2140     		ands	r1, r4
 1812 0016 1960     		str	r1, [r3]
 702:Drivers/GD32E23x_standard_peripheral/Source/gd32e23x_adc.c **** 
 703:Drivers/GD32E23x_standard_peripheral/Source/gd32e23x_adc.c ****     ADC_CTL0 |= (uint32_t)channel;
 1813              		.loc 1 703 5 is_stmt 1 view .LVU452
 1814              		.loc 1 703 14 is_stmt 0 view .LVU453
 1815 0018 1A68     		ldr	r2, [r3]
 1816 001a 0243     		orrs	r2, r0
 1817 001c 1A60     		str	r2, [r3]
 704:Drivers/GD32E23x_standard_peripheral/Source/gd32e23x_adc.c ****     ADC_CTL0 |= (uint32_t)(ADC_CTL0_RWDEN | ADC_CTL0_IWDEN | ADC_CTL0_WDSC);
 1818              		.loc 1 704 5 is_stmt 1 view .LVU454
 1819              		.loc 1 704 14 is_stmt 0 view .LVU455
 1820 001e 1968     		ldr	r1, [r3]
 1821 0020 40F20022 		movw	r2, #512
 1822 0024 C0F2C002 		movt	r2, 192
 1823 0028 0A43     		orrs	r2, r1
 1824 002a 1A60     		str	r2, [r3]
 705:Drivers/GD32E23x_standard_peripheral/Source/gd32e23x_adc.c **** }
 1825              		.loc 1 705 1 view .LVU456
 1826              		@ sp needed
 1827 002c 10BD     		pop	{r4, pc}
 1828              		.cfi_endproc
 1829              	.LFE92:
 1831              		.section	.text.adc_watchdog_group_channel_enable,"ax",%progbits
 1832              		.align	1
 1833              		.global	adc_watchdog_group_channel_enable
 1834              		.syntax unified
 1835              		.code	16
 1836              		.thumb_func
 1837              		.fpu softvfp
 1839              	adc_watchdog_group_channel_enable:
ARM GAS  /var/folders/rv/zq8s_02j1dj4vjvr1mm5zl2r0000gn/T//ccsprPZw.s 			page 48


 1840              	.LVL139:
 1841              	.LFB93:
 706:Drivers/GD32E23x_standard_peripheral/Source/gd32e23x_adc.c **** 
 707:Drivers/GD32E23x_standard_peripheral/Source/gd32e23x_adc.c **** /*!
 708:Drivers/GD32E23x_standard_peripheral/Source/gd32e23x_adc.c ****     \brief      configure ADC analog watchdog group channel 
 709:Drivers/GD32E23x_standard_peripheral/Source/gd32e23x_adc.c ****     \param[in]  channel_group: the channel group use analog watchdog
 710:Drivers/GD32E23x_standard_peripheral/Source/gd32e23x_adc.c ****                 only one parameter can be selected which is shown as below: 
 711:Drivers/GD32E23x_standard_peripheral/Source/gd32e23x_adc.c ****       \arg        ADC_REGULAR_CHANNEL: regular channel group
 712:Drivers/GD32E23x_standard_peripheral/Source/gd32e23x_adc.c ****       \arg        ADC_INSERTED_CHANNEL: inserted channel group
 713:Drivers/GD32E23x_standard_peripheral/Source/gd32e23x_adc.c ****       \arg        ADC_REGULAR_INSERTED_CHANNEL: both regular and inserted group
 714:Drivers/GD32E23x_standard_peripheral/Source/gd32e23x_adc.c ****     \param[out] none
 715:Drivers/GD32E23x_standard_peripheral/Source/gd32e23x_adc.c ****     \retval     none
 716:Drivers/GD32E23x_standard_peripheral/Source/gd32e23x_adc.c **** */
 717:Drivers/GD32E23x_standard_peripheral/Source/gd32e23x_adc.c **** void adc_watchdog_group_channel_enable(uint8_t channel_group)
 718:Drivers/GD32E23x_standard_peripheral/Source/gd32e23x_adc.c **** {
 1842              		.loc 1 718 1 is_stmt 1 view -0
 1843              		.cfi_startproc
 1844              		@ args = 0, pretend = 0, frame = 0
 1845              		@ frame_needed = 0, uses_anonymous_args = 0
 1846              		@ link register save eliminated.
 719:Drivers/GD32E23x_standard_peripheral/Source/gd32e23x_adc.c ****     ADC_CTL0 &= (uint32_t)~(ADC_CTL0_RWDEN | ADC_CTL0_IWDEN | ADC_CTL0_WDSC);
 1847              		.loc 1 719 5 view .LVU458
 1848              		.loc 1 719 14 is_stmt 0 view .LVU459
 1849 0000 42F20443 		movw	r3, #9220
 1850 0004 C4F20103 		movt	r3, 16385
 1851 0008 1A68     		ldr	r2, [r3]
 1852 000a 4FF6FF51 		movw	r1, #65023
 1853 000e CFF63F71 		movt	r1, 65343
 1854 0012 0A40     		ands	r2, r1
 1855 0014 1A60     		str	r2, [r3]
 720:Drivers/GD32E23x_standard_peripheral/Source/gd32e23x_adc.c **** 
 721:Drivers/GD32E23x_standard_peripheral/Source/gd32e23x_adc.c ****     /* select the group */
 722:Drivers/GD32E23x_standard_peripheral/Source/gd32e23x_adc.c ****     switch(channel_group){
 1856              		.loc 1 722 5 is_stmt 1 view .LVU460
 1857 0016 0228     		cmp	r0, #2
 1858 0018 0ED0     		beq	.L106
 1859 001a 0328     		cmp	r0, #3
 1860 001c 16D0     		beq	.L107
 1861 001e 0128     		cmp	r0, #1
 1862 0020 00D0     		beq	.L109
 1863              	.L105:
 723:Drivers/GD32E23x_standard_peripheral/Source/gd32e23x_adc.c ****     case ADC_REGULAR_CHANNEL:
 724:Drivers/GD32E23x_standard_peripheral/Source/gd32e23x_adc.c ****         ADC_CTL0 |= (uint32_t)ADC_CTL0_RWDEN;
 725:Drivers/GD32E23x_standard_peripheral/Source/gd32e23x_adc.c ****         break;
 726:Drivers/GD32E23x_standard_peripheral/Source/gd32e23x_adc.c ****     case ADC_INSERTED_CHANNEL:
 727:Drivers/GD32E23x_standard_peripheral/Source/gd32e23x_adc.c ****         ADC_CTL0 |= (uint32_t)ADC_CTL0_IWDEN;
 728:Drivers/GD32E23x_standard_peripheral/Source/gd32e23x_adc.c ****         break;
 729:Drivers/GD32E23x_standard_peripheral/Source/gd32e23x_adc.c ****     case ADC_REGULAR_INSERTED_CHANNEL:
 730:Drivers/GD32E23x_standard_peripheral/Source/gd32e23x_adc.c ****         ADC_CTL0 |= (uint32_t)(ADC_CTL0_RWDEN | ADC_CTL0_IWDEN);
 731:Drivers/GD32E23x_standard_peripheral/Source/gd32e23x_adc.c ****         break;
 732:Drivers/GD32E23x_standard_peripheral/Source/gd32e23x_adc.c ****     default:
 733:Drivers/GD32E23x_standard_peripheral/Source/gd32e23x_adc.c ****         break;
 734:Drivers/GD32E23x_standard_peripheral/Source/gd32e23x_adc.c ****     }
 735:Drivers/GD32E23x_standard_peripheral/Source/gd32e23x_adc.c **** }
 1864              		.loc 1 735 1 is_stmt 0 view .LVU461
 1865              		@ sp needed
 1866 0022 7047     		bx	lr
ARM GAS  /var/folders/rv/zq8s_02j1dj4vjvr1mm5zl2r0000gn/T//ccsprPZw.s 			page 49


 1867              	.L109:
 724:Drivers/GD32E23x_standard_peripheral/Source/gd32e23x_adc.c ****         break;
 1868              		.loc 1 724 9 is_stmt 1 view .LVU462
 724:Drivers/GD32E23x_standard_peripheral/Source/gd32e23x_adc.c ****         break;
 1869              		.loc 1 724 18 is_stmt 0 view .LVU463
 1870 0024 42F20443 		movw	r3, #9220
 1871 0028 C4F20103 		movt	r3, 16385
 1872 002c 1968     		ldr	r1, [r3]
 1873 002e 8022     		movs	r2, #128
 1874 0030 1204     		lsls	r2, r2, #16
 1875 0032 0A43     		orrs	r2, r1
 1876 0034 1A60     		str	r2, [r3]
 725:Drivers/GD32E23x_standard_peripheral/Source/gd32e23x_adc.c ****     case ADC_INSERTED_CHANNEL:
 1877              		.loc 1 725 9 is_stmt 1 view .LVU464
 1878 0036 F4E7     		b	.L105
 1879              	.L106:
 727:Drivers/GD32E23x_standard_peripheral/Source/gd32e23x_adc.c ****         break;
 1880              		.loc 1 727 9 view .LVU465
 727:Drivers/GD32E23x_standard_peripheral/Source/gd32e23x_adc.c ****         break;
 1881              		.loc 1 727 18 is_stmt 0 view .LVU466
 1882 0038 42F20443 		movw	r3, #9220
 1883 003c C4F20103 		movt	r3, 16385
 1884 0040 1968     		ldr	r1, [r3]
 1885 0042 8022     		movs	r2, #128
 1886 0044 D203     		lsls	r2, r2, #15
 1887 0046 0A43     		orrs	r2, r1
 1888 0048 1A60     		str	r2, [r3]
 728:Drivers/GD32E23x_standard_peripheral/Source/gd32e23x_adc.c ****     case ADC_REGULAR_INSERTED_CHANNEL:
 1889              		.loc 1 728 9 is_stmt 1 view .LVU467
 1890 004a EAE7     		b	.L105
 1891              	.L107:
 730:Drivers/GD32E23x_standard_peripheral/Source/gd32e23x_adc.c ****         break;
 1892              		.loc 1 730 9 view .LVU468
 730:Drivers/GD32E23x_standard_peripheral/Source/gd32e23x_adc.c ****         break;
 1893              		.loc 1 730 18 is_stmt 0 view .LVU469
 1894 004c 42F20443 		movw	r3, #9220
 1895 0050 C4F20103 		movt	r3, 16385
 1896 0054 1968     		ldr	r1, [r3]
 1897 0056 C022     		movs	r2, #192
 1898 0058 1204     		lsls	r2, r2, #16
 1899 005a 0A43     		orrs	r2, r1
 1900 005c 1A60     		str	r2, [r3]
 731:Drivers/GD32E23x_standard_peripheral/Source/gd32e23x_adc.c ****     default:
 1901              		.loc 1 731 9 is_stmt 1 view .LVU470
 1902              		.loc 1 735 1 is_stmt 0 view .LVU471
 1903 005e E0E7     		b	.L105
 1904              		.cfi_endproc
 1905              	.LFE93:
 1907              		.section	.text.adc_watchdog_disable,"ax",%progbits
 1908              		.align	1
 1909              		.global	adc_watchdog_disable
 1910              		.syntax unified
 1911              		.code	16
 1912              		.thumb_func
 1913              		.fpu softvfp
 1915              	adc_watchdog_disable:
 1916              	.LFB94:
ARM GAS  /var/folders/rv/zq8s_02j1dj4vjvr1mm5zl2r0000gn/T//ccsprPZw.s 			page 50


 736:Drivers/GD32E23x_standard_peripheral/Source/gd32e23x_adc.c **** 
 737:Drivers/GD32E23x_standard_peripheral/Source/gd32e23x_adc.c **** /*!
 738:Drivers/GD32E23x_standard_peripheral/Source/gd32e23x_adc.c ****     \brief      disable ADC analog watchdog 
 739:Drivers/GD32E23x_standard_peripheral/Source/gd32e23x_adc.c ****     \param[in]  none
 740:Drivers/GD32E23x_standard_peripheral/Source/gd32e23x_adc.c ****     \param[out] none
 741:Drivers/GD32E23x_standard_peripheral/Source/gd32e23x_adc.c ****     \retval     none
 742:Drivers/GD32E23x_standard_peripheral/Source/gd32e23x_adc.c **** */
 743:Drivers/GD32E23x_standard_peripheral/Source/gd32e23x_adc.c **** void adc_watchdog_disable(void)
 744:Drivers/GD32E23x_standard_peripheral/Source/gd32e23x_adc.c **** {
 1917              		.loc 1 744 1 is_stmt 1 view -0
 1918              		.cfi_startproc
 1919              		@ args = 0, pretend = 0, frame = 0
 1920              		@ frame_needed = 0, uses_anonymous_args = 0
 1921              		@ link register save eliminated.
 745:Drivers/GD32E23x_standard_peripheral/Source/gd32e23x_adc.c ****     ADC_CTL0 &= (uint32_t)~(ADC_CTL0_RWDEN | ADC_CTL0_IWDEN | ADC_CTL0_WDSC | ADC_CTL0_WDCHSEL);
 1922              		.loc 1 745 5 view .LVU473
 1923              		.loc 1 745 14 is_stmt 0 view .LVU474
 1924 0000 42F20443 		movw	r3, #9220
 1925 0004 C4F20103 		movt	r3, 16385
 1926 0008 1A68     		ldr	r2, [r3]
 1927 000a 4FF6E051 		movw	r1, #64992
 1928 000e CFF63F71 		movt	r1, 65343
 1929 0012 0A40     		ands	r2, r1
 1930 0014 1A60     		str	r2, [r3]
 746:Drivers/GD32E23x_standard_peripheral/Source/gd32e23x_adc.c **** }
 1931              		.loc 1 746 1 view .LVU475
 1932              		@ sp needed
 1933 0016 7047     		bx	lr
 1934              		.cfi_endproc
 1935              	.LFE94:
 1937              		.section	.text.adc_watchdog_threshold_config,"ax",%progbits
 1938              		.align	1
 1939              		.global	adc_watchdog_threshold_config
 1940              		.syntax unified
 1941              		.code	16
 1942              		.thumb_func
 1943              		.fpu softvfp
 1945              	adc_watchdog_threshold_config:
 1946              	.LVL140:
 1947              	.LFB95:
 747:Drivers/GD32E23x_standard_peripheral/Source/gd32e23x_adc.c **** 
 748:Drivers/GD32E23x_standard_peripheral/Source/gd32e23x_adc.c **** /*!
 749:Drivers/GD32E23x_standard_peripheral/Source/gd32e23x_adc.c ****     \brief      configure ADC analog watchdog threshold 
 750:Drivers/GD32E23x_standard_peripheral/Source/gd32e23x_adc.c ****     \param[in]  low_threshold: analog watchdog low threshold,0..4095
 751:Drivers/GD32E23x_standard_peripheral/Source/gd32e23x_adc.c ****     \param[in]  high_threshold: analog watchdog high threshold,0..4095
 752:Drivers/GD32E23x_standard_peripheral/Source/gd32e23x_adc.c ****     \param[out] none
 753:Drivers/GD32E23x_standard_peripheral/Source/gd32e23x_adc.c ****     \retval     none
 754:Drivers/GD32E23x_standard_peripheral/Source/gd32e23x_adc.c **** */
 755:Drivers/GD32E23x_standard_peripheral/Source/gd32e23x_adc.c **** void adc_watchdog_threshold_config(uint16_t low_threshold, uint16_t high_threshold)
 756:Drivers/GD32E23x_standard_peripheral/Source/gd32e23x_adc.c **** {
 1948              		.loc 1 756 1 is_stmt 1 view -0
 1949              		.cfi_startproc
 1950              		@ args = 0, pretend = 0, frame = 0
 1951              		@ frame_needed = 0, uses_anonymous_args = 0
 1952              		@ link register save eliminated.
 757:Drivers/GD32E23x_standard_peripheral/Source/gd32e23x_adc.c ****     ADC_WDLT = (uint32_t)WDLT_WDLT(low_threshold);
 1953              		.loc 1 757 5 view .LVU477
ARM GAS  /var/folders/rv/zq8s_02j1dj4vjvr1mm5zl2r0000gn/T//ccsprPZw.s 			page 51


 1954              		.loc 1 757 16 is_stmt 0 view .LVU478
 1955 0000 40F6FF73 		movw	r3, #4095
 1956 0004 1840     		ands	r0, r3
 1957              	.LVL141:
 1958              		.loc 1 757 14 view .LVU479
 1959 0006 42F22842 		movw	r2, #9256
 1960 000a C4F20102 		movt	r2, 16385
 1961 000e 1060     		str	r0, [r2]
 758:Drivers/GD32E23x_standard_peripheral/Source/gd32e23x_adc.c ****     ADC_WDHT = (uint32_t)WDHT_WDHT(high_threshold);
 1962              		.loc 1 758 5 is_stmt 1 view .LVU480
 1963              		.loc 1 758 16 is_stmt 0 view .LVU481
 1964 0010 0B40     		ands	r3, r1
 1965              		.loc 1 758 14 view .LVU482
 1966 0012 42F22442 		movw	r2, #9252
 1967 0016 C4F20102 		movt	r2, 16385
 1968 001a 1360     		str	r3, [r2]
 759:Drivers/GD32E23x_standard_peripheral/Source/gd32e23x_adc.c **** }
 1969              		.loc 1 759 1 view .LVU483
 1970              		@ sp needed
 1971 001c 7047     		bx	lr
 1972              		.cfi_endproc
 1973              	.LFE95:
 1975              		.section	.text.adc_resolution_config,"ax",%progbits
 1976              		.align	1
 1977              		.global	adc_resolution_config
 1978              		.syntax unified
 1979              		.code	16
 1980              		.thumb_func
 1981              		.fpu softvfp
 1983              	adc_resolution_config:
 1984              	.LVL142:
 1985              	.LFB96:
 760:Drivers/GD32E23x_standard_peripheral/Source/gd32e23x_adc.c **** 
 761:Drivers/GD32E23x_standard_peripheral/Source/gd32e23x_adc.c **** 
 762:Drivers/GD32E23x_standard_peripheral/Source/gd32e23x_adc.c **** /*!
 763:Drivers/GD32E23x_standard_peripheral/Source/gd32e23x_adc.c ****     \brief      configure ADC resolution 
 764:Drivers/GD32E23x_standard_peripheral/Source/gd32e23x_adc.c ****     \param[in]  resolution: ADC resolution
 765:Drivers/GD32E23x_standard_peripheral/Source/gd32e23x_adc.c ****                 only one parameter can be selected which is shown as below:
 766:Drivers/GD32E23x_standard_peripheral/Source/gd32e23x_adc.c ****       \arg        ADC_RESOLUTION_12B: 12-bit ADC resolution
 767:Drivers/GD32E23x_standard_peripheral/Source/gd32e23x_adc.c ****       \arg        ADC_RESOLUTION_10B: 10-bit ADC resolution
 768:Drivers/GD32E23x_standard_peripheral/Source/gd32e23x_adc.c ****       \arg        ADC_RESOLUTION_8B: 8-bit ADC resolution
 769:Drivers/GD32E23x_standard_peripheral/Source/gd32e23x_adc.c ****       \arg        ADC_RESOLUTION_6B: 6-bit ADC resolution
 770:Drivers/GD32E23x_standard_peripheral/Source/gd32e23x_adc.c ****     \param[out] none
 771:Drivers/GD32E23x_standard_peripheral/Source/gd32e23x_adc.c ****     \retval     none
 772:Drivers/GD32E23x_standard_peripheral/Source/gd32e23x_adc.c **** */
 773:Drivers/GD32E23x_standard_peripheral/Source/gd32e23x_adc.c **** void adc_resolution_config(uint32_t resolution)
 774:Drivers/GD32E23x_standard_peripheral/Source/gd32e23x_adc.c **** {
 1986              		.loc 1 774 1 is_stmt 1 view -0
 1987              		.cfi_startproc
 1988              		@ args = 0, pretend = 0, frame = 0
 1989              		@ frame_needed = 0, uses_anonymous_args = 0
 1990              		@ link register save eliminated.
 775:Drivers/GD32E23x_standard_peripheral/Source/gd32e23x_adc.c ****     ADC_CTL0 &= ~((uint32_t)ADC_CTL0_DRES);
 1991              		.loc 1 775 5 view .LVU485
 1992              		.loc 1 775 14 is_stmt 0 view .LVU486
 1993 0000 42F20443 		movw	r3, #9220
 1994 0004 C4F20103 		movt	r3, 16385
ARM GAS  /var/folders/rv/zq8s_02j1dj4vjvr1mm5zl2r0000gn/T//ccsprPZw.s 			page 52


 1995 0008 1968     		ldr	r1, [r3]
 1996 000a 034A     		ldr	r2, .L113
 1997 000c 1140     		ands	r1, r2
 1998 000e 1960     		str	r1, [r3]
 776:Drivers/GD32E23x_standard_peripheral/Source/gd32e23x_adc.c ****     ADC_CTL0 |= (uint32_t)resolution;
 1999              		.loc 1 776 5 is_stmt 1 view .LVU487
 2000              		.loc 1 776 14 is_stmt 0 view .LVU488
 2001 0010 1A68     		ldr	r2, [r3]
 2002 0012 0243     		orrs	r2, r0
 2003 0014 1A60     		str	r2, [r3]
 777:Drivers/GD32E23x_standard_peripheral/Source/gd32e23x_adc.c **** }
 2004              		.loc 1 777 1 view .LVU489
 2005              		@ sp needed
 2006 0016 7047     		bx	lr
 2007              	.L114:
 2008              		.align	2
 2009              	.L113:
 2010 0018 FFFFFFFC 		.word	-50331649
 2011              		.cfi_endproc
 2012              	.LFE96:
 2014              		.section	.text.adc_oversample_mode_config,"ax",%progbits
 2015              		.align	1
 2016              		.global	adc_oversample_mode_config
 2017              		.syntax unified
 2018              		.code	16
 2019              		.thumb_func
 2020              		.fpu softvfp
 2022              	adc_oversample_mode_config:
 2023              	.LVL143:
 2024              	.LFB97:
 778:Drivers/GD32E23x_standard_peripheral/Source/gd32e23x_adc.c **** 
 779:Drivers/GD32E23x_standard_peripheral/Source/gd32e23x_adc.c **** /*!
 780:Drivers/GD32E23x_standard_peripheral/Source/gd32e23x_adc.c ****     \brief      configure ADC oversample mode 
 781:Drivers/GD32E23x_standard_peripheral/Source/gd32e23x_adc.c ****     \param[in]  mode: ADC oversampling mode
 782:Drivers/GD32E23x_standard_peripheral/Source/gd32e23x_adc.c ****                 only one parameter can be selected which is shown as below:
 783:Drivers/GD32E23x_standard_peripheral/Source/gd32e23x_adc.c ****       \arg        ADC_OVERSAMPLING_ALL_CONVERT: all oversampled conversions for a channel are done 
 784:Drivers/GD32E23x_standard_peripheral/Source/gd32e23x_adc.c ****       \arg        ADC_OVERSAMPLING_ONE_CONVERT: each oversampled conversion for a channel needs a t
 785:Drivers/GD32E23x_standard_peripheral/Source/gd32e23x_adc.c ****     \param[in]  shift: ADC oversampling shift
 786:Drivers/GD32E23x_standard_peripheral/Source/gd32e23x_adc.c ****                 only one parameter can be selected which is shown as below:
 787:Drivers/GD32E23x_standard_peripheral/Source/gd32e23x_adc.c ****       \arg        ADC_OVERSAMPLING_SHIFT_NONE: no oversampling shift
 788:Drivers/GD32E23x_standard_peripheral/Source/gd32e23x_adc.c ****       \arg        ADC_OVERSAMPLING_SHIFT_1B: 1-bit oversampling shift
 789:Drivers/GD32E23x_standard_peripheral/Source/gd32e23x_adc.c ****       \arg        ADC_OVERSAMPLING_SHIFT_2B: 2-bit oversampling shift
 790:Drivers/GD32E23x_standard_peripheral/Source/gd32e23x_adc.c ****       \arg        ADC_OVERSAMPLING_SHIFT_3B: 3-bit oversampling shift
 791:Drivers/GD32E23x_standard_peripheral/Source/gd32e23x_adc.c ****       \arg        ADC_OVERSAMPLING_SHIFT_4B: 3-bit oversampling shift
 792:Drivers/GD32E23x_standard_peripheral/Source/gd32e23x_adc.c ****       \arg        ADC_OVERSAMPLING_SHIFT_5B: 5-bit oversampling shift
 793:Drivers/GD32E23x_standard_peripheral/Source/gd32e23x_adc.c ****       \arg        ADC_OVERSAMPLING_SHIFT_6B: 6-bit oversampling shift
 794:Drivers/GD32E23x_standard_peripheral/Source/gd32e23x_adc.c ****       \arg        ADC_OVERSAMPLING_SHIFT_7B: 7-bit oversampling shift
 795:Drivers/GD32E23x_standard_peripheral/Source/gd32e23x_adc.c ****       \arg        ADC_OVERSAMPLING_SHIFT_8B: 8-bit oversampling shift
 796:Drivers/GD32E23x_standard_peripheral/Source/gd32e23x_adc.c ****     \param[in]  ratio: ADC oversampling ratio
 797:Drivers/GD32E23x_standard_peripheral/Source/gd32e23x_adc.c ****                 only one parameter can be selected which is shown as below:
 798:Drivers/GD32E23x_standard_peripheral/Source/gd32e23x_adc.c ****       \arg        ADC_OVERSAMPLING_RATIO_MUL2: oversampling ratio multiple 2
 799:Drivers/GD32E23x_standard_peripheral/Source/gd32e23x_adc.c ****       \arg        ADC_OVERSAMPLING_RATIO_MUL4: oversampling ratio multiple 4
 800:Drivers/GD32E23x_standard_peripheral/Source/gd32e23x_adc.c ****       \arg        ADC_OVERSAMPLING_RATIO_MUL8: oversampling ratio multiple 8
 801:Drivers/GD32E23x_standard_peripheral/Source/gd32e23x_adc.c ****       \arg        ADC_OVERSAMPLING_RATIO_MUL16: oversampling ratio multiple 16
 802:Drivers/GD32E23x_standard_peripheral/Source/gd32e23x_adc.c ****       \arg        ADC_OVERSAMPLING_RATIO_MUL32: oversampling ratio multiple 32
 803:Drivers/GD32E23x_standard_peripheral/Source/gd32e23x_adc.c ****       \arg        ADC_OVERSAMPLING_RATIO_MUL64: oversampling ratio multiple 64
 804:Drivers/GD32E23x_standard_peripheral/Source/gd32e23x_adc.c ****       \arg        ADC_OVERSAMPLING_RATIO_MUL128: oversampling ratio multiple 128
ARM GAS  /var/folders/rv/zq8s_02j1dj4vjvr1mm5zl2r0000gn/T//ccsprPZw.s 			page 53


 805:Drivers/GD32E23x_standard_peripheral/Source/gd32e23x_adc.c ****       \arg        ADC_OVERSAMPLING_RATIO_MUL256: oversampling ratio multiple 256
 806:Drivers/GD32E23x_standard_peripheral/Source/gd32e23x_adc.c ****     \param[out] none
 807:Drivers/GD32E23x_standard_peripheral/Source/gd32e23x_adc.c ****     \retval     none
 808:Drivers/GD32E23x_standard_peripheral/Source/gd32e23x_adc.c **** */
 809:Drivers/GD32E23x_standard_peripheral/Source/gd32e23x_adc.c **** void adc_oversample_mode_config(uint8_t mode, uint16_t shift, uint8_t ratio)
 810:Drivers/GD32E23x_standard_peripheral/Source/gd32e23x_adc.c **** {
 2025              		.loc 1 810 1 is_stmt 1 view -0
 2026              		.cfi_startproc
 2027              		@ args = 0, pretend = 0, frame = 0
 2028              		@ frame_needed = 0, uses_anonymous_args = 0
 2029              		.loc 1 810 1 is_stmt 0 view .LVU491
 2030 0000 10B5     		push	{r4, lr}
 2031              	.LCFI5:
 2032              		.cfi_def_cfa_offset 8
 2033              		.cfi_offset 4, -8
 2034              		.cfi_offset 14, -4
 811:Drivers/GD32E23x_standard_peripheral/Source/gd32e23x_adc.c ****     /* configure ADC oversampling mode */
 812:Drivers/GD32E23x_standard_peripheral/Source/gd32e23x_adc.c ****     if(ADC_OVERSAMPLING_ONE_CONVERT == mode){
 2035              		.loc 1 812 5 is_stmt 1 view .LVU492
 2036              		.loc 1 812 7 is_stmt 0 view .LVU493
 2037 0002 0128     		cmp	r0, #1
 2038 0004 14D0     		beq	.L118
 813:Drivers/GD32E23x_standard_peripheral/Source/gd32e23x_adc.c ****         ADC_OVSAMPCTL |= (uint32_t)ADC_OVSAMPCTL_TOVS;
 814:Drivers/GD32E23x_standard_peripheral/Source/gd32e23x_adc.c ****     }else{
 815:Drivers/GD32E23x_standard_peripheral/Source/gd32e23x_adc.c ****         ADC_OVSAMPCTL &= ~((uint32_t)ADC_OVSAMPCTL_TOVS);
 2039              		.loc 1 815 9 is_stmt 1 view .LVU494
 2040              		.loc 1 815 23 is_stmt 0 view .LVU495
 2041 0006 42F28043 		movw	r3, #9344
 2042 000a C4F20103 		movt	r3, 16385
 2043 000e 1868     		ldr	r0, [r3]
 2044              	.LVL144:
 2045              		.loc 1 815 23 view .LVU496
 2046 0010 0C4C     		ldr	r4, .L119
 2047 0012 2040     		ands	r0, r4
 2048 0014 1860     		str	r0, [r3]
 2049              	.L117:
 816:Drivers/GD32E23x_standard_peripheral/Source/gd32e23x_adc.c ****     }
 817:Drivers/GD32E23x_standard_peripheral/Source/gd32e23x_adc.c ****     
 818:Drivers/GD32E23x_standard_peripheral/Source/gd32e23x_adc.c ****     /* configure the shift and ratio */
 819:Drivers/GD32E23x_standard_peripheral/Source/gd32e23x_adc.c ****     ADC_OVSAMPCTL &= ~((uint32_t)(ADC_OVSAMPCTL_OVSR | ADC_OVSAMPCTL_OVSS));
 2050              		.loc 1 819 5 is_stmt 1 view .LVU497
 2051              		.loc 1 819 19 is_stmt 0 view .LVU498
 2052 0016 42F28043 		movw	r3, #9344
 2053 001a C4F20103 		movt	r3, 16385
 2054 001e 1868     		ldr	r0, [r3]
 2055 0020 094C     		ldr	r4, .L119+4
 2056 0022 2040     		ands	r0, r4
 2057 0024 1860     		str	r0, [r3]
 820:Drivers/GD32E23x_standard_peripheral/Source/gd32e23x_adc.c ****     ADC_OVSAMPCTL |= ((uint32_t)shift | (uint32_t)ratio);
 2058              		.loc 1 820 5 is_stmt 1 view .LVU499
 2059              		.loc 1 820 19 is_stmt 0 view .LVU500
 2060 0026 1868     		ldr	r0, [r3]
 2061              		.loc 1 820 39 view .LVU501
 2062 0028 1143     		orrs	r1, r2
 2063              	.LVL145:
 2064              		.loc 1 820 19 view .LVU502
 2065 002a 0143     		orrs	r1, r0
ARM GAS  /var/folders/rv/zq8s_02j1dj4vjvr1mm5zl2r0000gn/T//ccsprPZw.s 			page 54


 2066 002c 1960     		str	r1, [r3]
 821:Drivers/GD32E23x_standard_peripheral/Source/gd32e23x_adc.c **** }
 2067              		.loc 1 821 1 view .LVU503
 2068              		@ sp needed
 2069 002e 10BD     		pop	{r4, pc}
 2070              	.LVL146:
 2071              	.L118:
 813:Drivers/GD32E23x_standard_peripheral/Source/gd32e23x_adc.c ****     }else{
 2072              		.loc 1 813 9 is_stmt 1 view .LVU504
 813:Drivers/GD32E23x_standard_peripheral/Source/gd32e23x_adc.c ****     }else{
 2073              		.loc 1 813 23 is_stmt 0 view .LVU505
 2074 0030 42F28043 		movw	r3, #9344
 2075 0034 C4F20103 		movt	r3, 16385
 2076 0038 1868     		ldr	r0, [r3]
 2077              	.LVL147:
 813:Drivers/GD32E23x_standard_peripheral/Source/gd32e23x_adc.c ****     }else{
 2078              		.loc 1 813 23 view .LVU506
 2079 003a 40F20024 		movw	r4, #512
 2080 003e 2043     		orrs	r0, r4
 2081 0040 1860     		str	r0, [r3]
 2082 0042 E8E7     		b	.L117
 2083              	.L120:
 2084              		.align	2
 2085              	.L119:
 2086 0044 FFFDFFFF 		.word	-513
 2087 0048 03FEFFFF 		.word	-509
 2088              		.cfi_endproc
 2089              	.LFE97:
 2091              		.section	.text.adc_oversample_mode_enable,"ax",%progbits
 2092              		.align	1
 2093              		.global	adc_oversample_mode_enable
 2094              		.syntax unified
 2095              		.code	16
 2096              		.thumb_func
 2097              		.fpu softvfp
 2099              	adc_oversample_mode_enable:
 2100              	.LFB98:
 822:Drivers/GD32E23x_standard_peripheral/Source/gd32e23x_adc.c **** 
 823:Drivers/GD32E23x_standard_peripheral/Source/gd32e23x_adc.c **** /*!
 824:Drivers/GD32E23x_standard_peripheral/Source/gd32e23x_adc.c ****     \brief      enable ADC oversample mode 
 825:Drivers/GD32E23x_standard_peripheral/Source/gd32e23x_adc.c ****     \param[in]  none
 826:Drivers/GD32E23x_standard_peripheral/Source/gd32e23x_adc.c ****     \param[out] none
 827:Drivers/GD32E23x_standard_peripheral/Source/gd32e23x_adc.c ****     \retval     none
 828:Drivers/GD32E23x_standard_peripheral/Source/gd32e23x_adc.c **** */
 829:Drivers/GD32E23x_standard_peripheral/Source/gd32e23x_adc.c **** void adc_oversample_mode_enable(void)
 830:Drivers/GD32E23x_standard_peripheral/Source/gd32e23x_adc.c **** {
 2101              		.loc 1 830 1 is_stmt 1 view -0
 2102              		.cfi_startproc
 2103              		@ args = 0, pretend = 0, frame = 0
 2104              		@ frame_needed = 0, uses_anonymous_args = 0
 2105              		@ link register save eliminated.
 831:Drivers/GD32E23x_standard_peripheral/Source/gd32e23x_adc.c ****     ADC_OVSAMPCTL |= ADC_OVSAMPCTL_OVSEN;
 2106              		.loc 1 831 5 view .LVU508
 2107              		.loc 1 831 19 is_stmt 0 view .LVU509
 2108 0000 42F28043 		movw	r3, #9344
 2109 0004 C4F20103 		movt	r3, 16385
 2110 0008 1A68     		ldr	r2, [r3]
ARM GAS  /var/folders/rv/zq8s_02j1dj4vjvr1mm5zl2r0000gn/T//ccsprPZw.s 			page 55


 2111 000a 0121     		movs	r1, #1
 2112 000c 0A43     		orrs	r2, r1
 2113 000e 1A60     		str	r2, [r3]
 832:Drivers/GD32E23x_standard_peripheral/Source/gd32e23x_adc.c **** }
 2114              		.loc 1 832 1 view .LVU510
 2115              		@ sp needed
 2116 0010 7047     		bx	lr
 2117              		.cfi_endproc
 2118              	.LFE98:
 2120              		.section	.text.adc_oversample_mode_disable,"ax",%progbits
 2121              		.align	1
 2122              		.global	adc_oversample_mode_disable
 2123              		.syntax unified
 2124              		.code	16
 2125              		.thumb_func
 2126              		.fpu softvfp
 2128              	adc_oversample_mode_disable:
 2129              	.LFB99:
 833:Drivers/GD32E23x_standard_peripheral/Source/gd32e23x_adc.c **** 
 834:Drivers/GD32E23x_standard_peripheral/Source/gd32e23x_adc.c **** /*!
 835:Drivers/GD32E23x_standard_peripheral/Source/gd32e23x_adc.c ****     \brief      disable ADC oversample mode 
 836:Drivers/GD32E23x_standard_peripheral/Source/gd32e23x_adc.c ****     \param[in]  none
 837:Drivers/GD32E23x_standard_peripheral/Source/gd32e23x_adc.c ****     \param[out] none
 838:Drivers/GD32E23x_standard_peripheral/Source/gd32e23x_adc.c ****     \retval     none
 839:Drivers/GD32E23x_standard_peripheral/Source/gd32e23x_adc.c **** */
 840:Drivers/GD32E23x_standard_peripheral/Source/gd32e23x_adc.c **** void adc_oversample_mode_disable(void)
 841:Drivers/GD32E23x_standard_peripheral/Source/gd32e23x_adc.c **** {
 2130              		.loc 1 841 1 is_stmt 1 view -0
 2131              		.cfi_startproc
 2132              		@ args = 0, pretend = 0, frame = 0
 2133              		@ frame_needed = 0, uses_anonymous_args = 0
 2134              		@ link register save eliminated.
 842:Drivers/GD32E23x_standard_peripheral/Source/gd32e23x_adc.c ****     ADC_OVSAMPCTL &= ~((uint32_t)ADC_OVSAMPCTL_OVSEN);
 2135              		.loc 1 842 5 view .LVU512
 2136              		.loc 1 842 19 is_stmt 0 view .LVU513
 2137 0000 42F28043 		movw	r3, #9344
 2138 0004 C4F20103 		movt	r3, 16385
 2139 0008 1A68     		ldr	r2, [r3]
 2140 000a 0121     		movs	r1, #1
 2141 000c 8A43     		bics	r2, r1
 2142 000e 1A60     		str	r2, [r3]
 843:Drivers/GD32E23x_standard_peripheral/Source/gd32e23x_adc.c **** }
 2143              		.loc 1 843 1 view .LVU514
 2144              		@ sp needed
 2145 0010 7047     		bx	lr
 2146              		.cfi_endproc
 2147              	.LFE99:
 2149              		.text
 2150              	.Letext0:
 2151              		.file 2 "/Users/jgiles/projects/gcc-arm-none-eabi-10.3-2021.07/arm-none-eabi/include/machine/_defa
 2152              		.file 3 "/Users/jgiles/projects/gcc-arm-none-eabi-10.3-2021.07/arm-none-eabi/include/sys/_stdint.h
 2153              		.file 4 "Drivers/CMSIS/Device/GD/GD32E23x/Include/gd32e23x.h"
 2154              		.file 5 "Drivers/GD32E23x_standard_peripheral/Include/gd32e23x_rcu.h"
ARM GAS  /var/folders/rv/zq8s_02j1dj4vjvr1mm5zl2r0000gn/T//ccsprPZw.s 			page 56

